Archive member included to satisfy reference by file (symbol)

C:/mingw64/bin/../lib/gcc/x86_64-w64-mingw32/8.1.0/../../../../x86_64-w64-mingw32/lib/../lib/libws2_32.a(dozfs00195.o)
                              Common__SendCtrlCmd.cpp.obj (__imp_socket)
C:/mingw64/bin/../lib/gcc/x86_64-w64-mingw32/8.1.0/../../../../x86_64-w64-mingw32/lib/../lib/libws2_32.a(dozfs00193.o)
                              Common__SendCtrlCmd.cpp.obj (__imp_setsockopt)
C:/mingw64/bin/../lib/gcc/x86_64-w64-mingw32/8.1.0/../../../../x86_64-w64-mingw32/lib/../lib/libws2_32.a(dozfs00191.o)
                              Common__SendCtrlCmd.cpp.obj (__imp_send)
C:/mingw64/bin/../lib/gcc/x86_64-w64-mingw32/8.1.0/../../../../x86_64-w64-mingw32/lib/../lib/libws2_32.a(dozfs00190.o)
                              Common__SendCtrlCmd.cpp.obj (__imp_select)
C:/mingw64/bin/../lib/gcc/x86_64-w64-mingw32/8.1.0/../../../../x86_64-w64-mingw32/lib/../lib/libws2_32.a(dozfs00188.o)
                              Common__SendCtrlCmd.cpp.obj (__imp_recv)
C:/mingw64/bin/../lib/gcc/x86_64-w64-mingw32/8.1.0/../../../../x86_64-w64-mingw32/lib/../lib/libws2_32.a(dozfs00184.o)
                              Common__SendCtrlCmd.cpp.obj (__imp_ioctlsocket)
C:/mingw64/bin/../lib/gcc/x86_64-w64-mingw32/8.1.0/../../../../x86_64-w64-mingw32/lib/../lib/libws2_32.a(dozfs00166.o)
                              Common__SendCtrlCmd.cpp.obj (__imp_getaddrinfo)
C:/mingw64/bin/../lib/gcc/x86_64-w64-mingw32/8.1.0/../../../../x86_64-w64-mingw32/lib/../lib/libws2_32.a(dozfs00165.o)
                              Common__SendCtrlCmd.cpp.obj (__imp_freeaddrinfo)
C:/mingw64/bin/../lib/gcc/x86_64-w64-mingw32/8.1.0/../../../../x86_64-w64-mingw32/lib/../lib/libws2_32.a(dozfs00164.o)
                              Common__SendCtrlCmd.cpp.obj (__imp_connect)
C:/mingw64/bin/../lib/gcc/x86_64-w64-mingw32/8.1.0/../../../../x86_64-w64-mingw32/lib/../lib/libws2_32.a(dozfs00163.o)
                              Common__SendCtrlCmd.cpp.obj (__imp_closesocket)
C:/mingw64/bin/../lib/gcc/x86_64-w64-mingw32/8.1.0/../../../../x86_64-w64-mingw32/lib/../lib/libws2_32.a(dozfs00088.o)
                              Common__SendCtrlCmd.cpp.obj (__imp_WSAStartup)
C:/mingw64/bin/../lib/gcc/x86_64-w64-mingw32/8.1.0/../../../../x86_64-w64-mingw32/lib/../lib/libws2_32.a(dozfs00047.o)
                              Common__SendCtrlCmd.cpp.obj (__imp_WSAGetLastError)
C:/mingw64/bin/../lib/gcc/x86_64-w64-mingw32/8.1.0/../../../../x86_64-w64-mingw32/lib/../lib/libws2_32.a(dozfs00030.o)
                              Common__SendCtrlCmd.cpp.obj (__imp_WSACleanup)
C:/mingw64/bin/../lib/gcc/x86_64-w64-mingw32/8.1.0/../../../../x86_64-w64-mingw32/lib/../lib/libws2_32.a(dozfh.o)
                              C:/mingw64/bin/../lib/gcc/x86_64-w64-mingw32/8.1.0/../../../../x86_64-w64-mingw32/lib/../lib/libws2_32.a(dozfs00195.o) (_head_lib64_libws2_32_a)
C:/mingw64/bin/../lib/gcc/x86_64-w64-mingw32/8.1.0/../../../../x86_64-w64-mingw32/lib/../lib/libws2_32.a(dozft.o)
                              C:/mingw64/bin/../lib/gcc/x86_64-w64-mingw32/8.1.0/../../../../x86_64-w64-mingw32/lib/../lib/libws2_32.a(dozfh.o) (__lib64_libws2_32_a_iname)
C:/mingw64/bin/../lib/gcc/x86_64-w64-mingw32/8.1.0\libstdc++.a(class_type_info.o)
                              Common__CtrlCmdUtil.cpp.obj (vtable for __cxxabiv1::__class_type_info)
C:/mingw64/bin/../lib/gcc/x86_64-w64-mingw32/8.1.0\libstdc++.a(del_op.o)
                              Common__CtrlCmdUtil.cpp.obj (operator delete(void*))
C:/mingw64/bin/../lib/gcc/x86_64-w64-mingw32/8.1.0\libstdc++.a(del_ops.o)
                              Common__PipeServer.cpp.obj (operator delete(void*, unsigned long long))
C:/mingw64/bin/../lib/gcc/x86_64-w64-mingw32/8.1.0\libstdc++.a(eh_alloc.o)
                              Common__CtrlCmdUtil.cpp.obj (__cxa_free_exception)
C:/mingw64/bin/../lib/gcc/x86_64-w64-mingw32/8.1.0\libstdc++.a(eh_catch.o)
                              Common__CtrlCmdUtil.cpp.obj (__cxa_begin_catch)
C:/mingw64/bin/../lib/gcc/x86_64-w64-mingw32/8.1.0\libstdc++.a(eh_exception.o)
                              C:/mingw64/bin/../lib/gcc/x86_64-w64-mingw32/8.1.0\libstdc++.a(eh_alloc.o) (std::exception::~exception())
C:/mingw64/bin/../lib/gcc/x86_64-w64-mingw32/8.1.0\libstdc++.a(eh_globals.o)
                              C:/mingw64/bin/../lib/gcc/x86_64-w64-mingw32/8.1.0\libstdc++.a(eh_catch.o) (__cxa_get_globals)
C:/mingw64/bin/../lib/gcc/x86_64-w64-mingw32/8.1.0\libstdc++.a(eh_personality.o)
                              C:/mingw64/bin/../lib/gcc/x86_64-w64-mingw32/8.1.0\libstdc++.a(eh_alloc.o) (__cxa_call_unexpected)
C:/mingw64/bin/../lib/gcc/x86_64-w64-mingw32/8.1.0\libstdc++.a(eh_terminate.o)
                              C:/mingw64/bin/../lib/gcc/x86_64-w64-mingw32/8.1.0\libstdc++.a(eh_personality.o) (__cxxabiv1::__terminate(void (*)()))
C:/mingw64/bin/../lib/gcc/x86_64-w64-mingw32/8.1.0\libstdc++.a(eh_term_handler.o)
                              C:/mingw64/bin/../lib/gcc/x86_64-w64-mingw32/8.1.0\libstdc++.a(eh_terminate.o) (__cxxabiv1::__terminate_handler)
C:/mingw64/bin/../lib/gcc/x86_64-w64-mingw32/8.1.0\libstdc++.a(eh_throw.o)
                              Common__CtrlCmdUtil.cpp.obj (__cxa_throw)
C:/mingw64/bin/../lib/gcc/x86_64-w64-mingw32/8.1.0\libstdc++.a(eh_unex_handler.o)
                              C:/mingw64/bin/../lib/gcc/x86_64-w64-mingw32/8.1.0\libstdc++.a(eh_terminate.o) (__cxxabiv1::__unexpected_handler)
C:/mingw64/bin/../lib/gcc/x86_64-w64-mingw32/8.1.0\libstdc++.a(new_op.o)
                              Common__CtrlCmdUtil.cpp.obj (operator new(unsigned long long))
C:/mingw64/bin/../lib/gcc/x86_64-w64-mingw32/8.1.0\libstdc++.a(pure.o)
                              EpgTimerPlugIn.cpp.obj (__cxa_pure_virtual)
C:/mingw64/bin/../lib/gcc/x86_64-w64-mingw32/8.1.0\libstdc++.a(si_class_type_info.o)
                              Common__CtrlCmdUtil.cpp.obj (vtable for __cxxabiv1::__si_class_type_info)
C:/mingw64/bin/../lib/gcc/x86_64-w64-mingw32/8.1.0\libstdc++.a(tinfo.o)
                              C:/mingw64/bin/../lib/gcc/x86_64-w64-mingw32/8.1.0\libstdc++.a(class_type_info.o) (std::type_info::~type_info())
C:/mingw64/bin/../lib/gcc/x86_64-w64-mingw32/8.1.0\libstdc++.a(vterminate.o)
                              C:/mingw64/bin/../lib/gcc/x86_64-w64-mingw32/8.1.0\libstdc++.a(eh_term_handler.o) (__gnu_cxx::__verbose_terminate_handler())
C:/mingw64/bin/../lib/gcc/x86_64-w64-mingw32/8.1.0\libstdc++.a(stdexcept.o)
                              Common__CtrlCmdUtil.cpp.obj (std::runtime_error::~runtime_error())
C:/mingw64/bin/../lib/gcc/x86_64-w64-mingw32/8.1.0\libstdc++.a(cow-stdexcept.o)
                              Common__CtrlCmdUtil.cpp.obj (std::runtime_error::runtime_error(char const*))
C:/mingw64/bin/../lib/gcc/x86_64-w64-mingw32/8.1.0\libstdc++.a(cow-string-inst.o)
                              C:/mingw64/bin/../lib/gcc/x86_64-w64-mingw32/8.1.0\libstdc++.a(cow-stdexcept.o) (std::string::swap(std::string&))
C:/mingw64/bin/../lib/gcc/x86_64-w64-mingw32/8.1.0\libstdc++.a(functexcept.o)
                              Common__CtrlCmdUtil.cpp.obj (std::__throw_bad_alloc())
C:/mingw64/bin/../lib/gcc/x86_64-w64-mingw32/8.1.0\libstdc++.a(functional.o)
                              Common__PathUtil.cpp.obj (std::__throw_bad_function_call())
C:/mingw64/bin/../lib/gcc/x86_64-w64-mingw32/8.1.0\libstdc++.a(snprintf_lite.o)
                              C:/mingw64/bin/../lib/gcc/x86_64-w64-mingw32/8.1.0\libstdc++.a(functexcept.o) (__gnu_cxx::__snprintf_lite(char*, unsigned long long, char const*, char*))
C:/mingw64/bin/../lib/gcc/x86_64-w64-mingw32/8.1.0\libstdc++.a(sso_string.o)
                              C:/mingw64/bin/../lib/gcc/x86_64-w64-mingw32/8.1.0\libstdc++.a(cow-stdexcept.o) (std::__sso_string::__sso_string(char const*, unsigned long long))
C:/mingw64/bin/../lib/gcc/x86_64-w64-mingw32/8.1.0\libstdc++.a(string-inst.o)
                              C:/mingw64/bin/../lib/gcc/x86_64-w64-mingw32/8.1.0\libstdc++.a(sso_string.o) (std::__cxx11::basic_string<char, std::char_traits<char>, std::allocator<char> >::_M_assign(std::__cxx11::basic_string<char, std::char_traits<char>, std::allocator<char> > const&))
C:/mingw64/bin/../lib/gcc/x86_64-w64-mingw32/8.1.0\libstdc++.a(bad_alloc.o)
                              C:/mingw64/bin/../lib/gcc/x86_64-w64-mingw32/8.1.0\libstdc++.a(new_op.o) (std::bad_alloc::~bad_alloc())
C:/mingw64/bin/../lib/gcc/x86_64-w64-mingw32/8.1.0\libstdc++.a(bad_cast.o)
                              C:/mingw64/bin/../lib/gcc/x86_64-w64-mingw32/8.1.0\libstdc++.a(functexcept.o) (std::bad_cast::~bad_cast())
C:/mingw64/bin/../lib/gcc/x86_64-w64-mingw32/8.1.0\libstdc++.a(bad_typeid.o)
                              C:/mingw64/bin/../lib/gcc/x86_64-w64-mingw32/8.1.0\libstdc++.a(functexcept.o) (std::bad_typeid::~bad_typeid())
C:/mingw64/bin/../lib/gcc/x86_64-w64-mingw32/8.1.0\libstdc++.a(cp-demangle.o)
                              C:/mingw64/bin/../lib/gcc/x86_64-w64-mingw32/8.1.0\libstdc++.a(vterminate.o) (__cxa_demangle)
C:/mingw64/bin/../lib/gcc/x86_64-w64-mingw32/8.1.0\libstdc++.a(eh_call.o)
                              C:/mingw64/bin/../lib/gcc/x86_64-w64-mingw32/8.1.0\libstdc++.a(eh_personality.o) (__cxa_call_terminate)
C:/mingw64/bin/../lib/gcc/x86_64-w64-mingw32/8.1.0\libstdc++.a(eh_type.o)
                              C:/mingw64/bin/../lib/gcc/x86_64-w64-mingw32/8.1.0\libstdc++.a(vterminate.o) (__cxa_current_exception_type)
C:/mingw64/bin/../lib/gcc/x86_64-w64-mingw32/8.1.0\libstdc++.a(new_handler.o)
                              C:/mingw64/bin/../lib/gcc/x86_64-w64-mingw32/8.1.0\libstdc++.a(new_op.o) (std::get_new_handler())
C:/mingw64/bin/../lib/gcc/x86_64-w64-mingw32/8.1.0/../../../../x86_64-w64-mingw32/lib/../lib/libmingw32.a(lib64_libmingw32_a-gccmain.o)
                              C:/mingw64/bin/../lib/gcc/x86_64-w64-mingw32/8.1.0/../../../../x86_64-w64-mingw32/lib/../lib/dllcrt2.o (__main)
C:/mingw64/bin/../lib/gcc/x86_64-w64-mingw32/8.1.0/../../../../x86_64-w64-mingw32/lib/../lib/libmingw32.a(lib64_libmingw32_a-natstart.o)
                              C:/mingw64/bin/../lib/gcc/x86_64-w64-mingw32/8.1.0/../../../../x86_64-w64-mingw32/lib/../lib/dllcrt2.o (__native_startup_lock)
C:/mingw64/bin/../lib/gcc/x86_64-w64-mingw32/8.1.0/../../../../x86_64-w64-mingw32/lib/../lib/libmingw32.a(lib64_libmingw32_a-gs_support.o)
                              C:/mingw64/bin/../lib/gcc/x86_64-w64-mingw32/8.1.0/../../../../x86_64-w64-mingw32/lib/../lib/dllcrt2.o (__security_init_cookie)
C:/mingw64/bin/../lib/gcc/x86_64-w64-mingw32/8.1.0/../../../../x86_64-w64-mingw32/lib/../lib/libmingw32.a(lib64_libmingw32_a-tlssup.o)
                              C:/mingw64/bin/../lib/gcc/x86_64-w64-mingw32/8.1.0/../../../../x86_64-w64-mingw32/lib/../lib/dllcrt2.o (__dyn_tls_init_callback)
C:/mingw64/bin/../lib/gcc/x86_64-w64-mingw32/8.1.0/../../../../x86_64-w64-mingw32/lib/../lib/libmingw32.a(lib64_libmingw32_a-cinitexe.o)
                              C:/mingw64/bin/../lib/gcc/x86_64-w64-mingw32/8.1.0/../../../../x86_64-w64-mingw32/lib/../lib/dllcrt2.o (__xc_z)
C:/mingw64/bin/../lib/gcc/x86_64-w64-mingw32/8.1.0/../../../../x86_64-w64-mingw32/lib/../lib/libmingw32.a(lib64_libmingw32_a-mingw_helpers.o)
                              C:/mingw64/bin/../lib/gcc/x86_64-w64-mingw32/8.1.0/../../../../x86_64-w64-mingw32/lib/../lib/dllcrt2.o (mingw_app_type)
C:/mingw64/bin/../lib/gcc/x86_64-w64-mingw32/8.1.0/../../../../x86_64-w64-mingw32/lib/../lib/libmingw32.a(lib64_libmingw32_a-pseudo-reloc.o)
                              C:/mingw64/bin/../lib/gcc/x86_64-w64-mingw32/8.1.0/../../../../x86_64-w64-mingw32/lib/../lib/dllcrt2.o (_pei386_runtime_relocator)
C:/mingw64/bin/../lib/gcc/x86_64-w64-mingw32/8.1.0/../../../../x86_64-w64-mingw32/lib/../lib/libmingw32.a(lib64_libmingw32_a-crt_handler.o)
                              C:/mingw64/bin/../lib/gcc/x86_64-w64-mingw32/8.1.0/../../../../x86_64-w64-mingw32/lib/../lib/dllcrt2.o (__mingw_init_ehandler)
C:/mingw64/bin/../lib/gcc/x86_64-w64-mingw32/8.1.0/../../../../x86_64-w64-mingw32/lib/../lib/libmingw32.a(lib64_libmingw32_a-tlsthrd.o)
                              C:/mingw64/bin/../lib/gcc/x86_64-w64-mingw32/8.1.0/../../../../x86_64-w64-mingw32/lib/../lib/libmingw32.a(lib64_libmingw32_a-tlssup.o) (__mingw_TLScallback)
C:/mingw64/bin/../lib/gcc/x86_64-w64-mingw32/8.1.0/../../../../x86_64-w64-mingw32/lib/../lib/libmingw32.a(lib64_libmingw32_a-tlsmcrt.o)
                              C:/mingw64/bin/../lib/gcc/x86_64-w64-mingw32/8.1.0\libstdc++.a(eh_alloc.o) (_CRT_MT)
C:/mingw64/bin/../lib/gcc/x86_64-w64-mingw32/8.1.0/../../../../x86_64-w64-mingw32/lib/../lib/libmingw32.a(lib64_libmingw32_a-pseudo-reloc-list.o)
                              C:/mingw64/bin/../lib/gcc/x86_64-w64-mingw32/8.1.0/../../../../x86_64-w64-mingw32/lib/../lib/libmingw32.a(lib64_libmingw32_a-pseudo-reloc.o) (__RUNTIME_PSEUDO_RELOC_LIST__)
C:/mingw64/bin/../lib/gcc/x86_64-w64-mingw32/8.1.0/../../../../x86_64-w64-mingw32/lib/../lib/libmingw32.a(lib64_libmingw32_a-pesect.o)
                              C:/mingw64/bin/../lib/gcc/x86_64-w64-mingw32/8.1.0/../../../../x86_64-w64-mingw32/lib/../lib/libmingw32.a(lib64_libmingw32_a-crt_handler.o) (_FindPESectionByName)
C:/mingw64/bin/../lib/gcc/x86_64-w64-mingw32/8.1.0/../../../../x86_64-w64-mingw32/lib/../lib/libmingw32.a(lib64_libmingw32_a-CRT_fp10.o)
                              C:/mingw64/bin/../lib/gcc/x86_64-w64-mingw32/8.1.0/../../../../x86_64-w64-mingw32/lib/../lib/libmingw32.a(lib64_libmingw32_a-crt_handler.o) (_fpreset)
C:/mingw64/bin/../lib/gcc/x86_64-w64-mingw32/8.1.0/libgcc.a(_chkstk_ms.o)
                              C:/mingw64/bin/../lib/gcc/x86_64-w64-mingw32/8.1.0\libstdc++.a(functexcept.o) (___chkstk_ms)
C:/mingw64/bin/../lib/gcc/x86_64-w64-mingw32/8.1.0/libgcc.a(_ctors.o)
                              C:/mingw64/bin/../lib/gcc/x86_64-w64-mingw32/8.1.0/../../../../x86_64-w64-mingw32/lib/../lib/libmingw32.a(lib64_libmingw32_a-gccmain.o) (__DTOR_LIST__)
C:/mingw64/bin/../lib/gcc/x86_64-w64-mingw32/8.1.0/libgcc.a(gthr-win32.o)
                              C:/mingw64/bin/../lib/gcc/x86_64-w64-mingw32/8.1.0\libstdc++.a(eh_alloc.o) (__gthr_win32_mutex_init_function)
C:/mingw64/bin/../lib/gcc/x86_64-w64-mingw32/8.1.0/libgcc_eh.a(unwind-seh.o)
                              C:/mingw64/bin/../lib/gcc/x86_64-w64-mingw32/8.1.0\libstdc++.a(eh_personality.o) (_Unwind_SetGR)
C:/mingw64/bin/../lib/gcc/x86_64-w64-mingw32/8.1.0/libgcc_eh.a(emutls.o)
                              C:/mingw64/bin/../lib/gcc/x86_64-w64-mingw32/8.1.0\libstdc++.a(eh_globals.o) (__emutls_get_address)
C:/mingw64/bin/../lib/gcc/x86_64-w64-mingw32/8.1.0/../../../../x86_64-w64-mingw32/lib/../lib/libmingwex.a(lib64_libmingwex_a-dllentry.o)
                              C:/mingw64/bin/../lib/gcc/x86_64-w64-mingw32/8.1.0/../../../../x86_64-w64-mingw32/lib/../lib/dllcrt2.o (DllEntryPoint)
C:/mingw64/bin/../lib/gcc/x86_64-w64-mingw32/8.1.0/../../../../x86_64-w64-mingw32/lib/../lib/libmsvcrt.a(duags01264.o)
                              Common__CtrlCmdUtil.cpp.obj (wcslen)
C:/mingw64/bin/../lib/gcc/x86_64-w64-mingw32/8.1.0/../../../../x86_64-w64-mingw32/lib/../lib/libmsvcrt.a(duags01257.o)
                              Common__PathUtil.cpp.obj (wcschr)
C:/mingw64/bin/../lib/gcc/x86_64-w64-mingw32/8.1.0/../../../../x86_64-w64-mingw32/lib/../lib/libmsvcrt.a(duags01251.o)
                              Common__CtrlCmdUtil.cpp.obj (vswprintf_s)
C:/mingw64/bin/../lib/gcc/x86_64-w64-mingw32/8.1.0/../../../../x86_64-w64-mingw32/lib/../lib/libmsvcrt.a(duags01243.o)
                              C:/mingw64/bin/../lib/gcc/x86_64-w64-mingw32/8.1.0/../../../../x86_64-w64-mingw32/lib/../lib/libmingw32.a(lib64_libmingw32_a-pseudo-reloc.o) (vfprintf)
C:/mingw64/bin/../lib/gcc/x86_64-w64-mingw32/8.1.0/../../../../x86_64-w64-mingw32/lib/../lib/libmsvcrt.a(duags01223.o)
                              C:/mingw64/bin/../lib/gcc/x86_64-w64-mingw32/8.1.0\libstdc++.a(cow-string-inst.o) (strtoul)
C:/mingw64/bin/../lib/gcc/x86_64-w64-mingw32/8.1.0/../../../../x86_64-w64-mingw32/lib/../lib/libmsvcrt.a(duags01211.o)
                              C:/mingw64/bin/../lib/gcc/x86_64-w64-mingw32/8.1.0/../../../../x86_64-w64-mingw32/lib/../lib/libmingw32.a(lib64_libmingw32_a-pesect.o) (strncmp)
C:/mingw64/bin/../lib/gcc/x86_64-w64-mingw32/8.1.0/../../../../x86_64-w64-mingw32/lib/../lib/libmsvcrt.a(duags01208.o)
                              C:/mingw64/bin/../lib/gcc/x86_64-w64-mingw32/8.1.0\libstdc++.a(cow-string-inst.o) (strlen)
C:/mingw64/bin/../lib/gcc/x86_64-w64-mingw32/8.1.0/../../../../x86_64-w64-mingw32/lib/../lib/libmsvcrt.a(duags01201.o)
                              C:/mingw64/bin/../lib/gcc/x86_64-w64-mingw32/8.1.0\libstdc++.a(tinfo.o) (strcmp)
C:/mingw64/bin/../lib/gcc/x86_64-w64-mingw32/8.1.0/../../../../x86_64-w64-mingw32/lib/../lib/libmsvcrt.a(duags01192.o)
                              C:/mingw64/bin/../lib/gcc/x86_64-w64-mingw32/8.1.0\libstdc++.a(cp-demangle.o) (sprintf)
C:/mingw64/bin/../lib/gcc/x86_64-w64-mingw32/8.1.0/../../../../x86_64-w64-mingw32/lib/../lib/libmsvcrt.a(duags01187.o)
                              C:/mingw64/bin/../lib/gcc/x86_64-w64-mingw32/8.1.0/../../../../x86_64-w64-mingw32/lib/../lib/libmingw32.a(lib64_libmingw32_a-crt_handler.o) (signal)
C:/mingw64/bin/../lib/gcc/x86_64-w64-mingw32/8.1.0/../../../../x86_64-w64-mingw32/lib/../lib/libmsvcrt.a(duags01186.o)
                              Common__PathUtil.cpp.obj (setvbuf)
C:/mingw64/bin/../lib/gcc/x86_64-w64-mingw32/8.1.0/../../../../x86_64-w64-mingw32/lib/../lib/libmsvcrt.a(duags01177.o)
                              C:/mingw64/bin/../lib/gcc/x86_64-w64-mingw32/8.1.0\libstdc++.a(cp-demangle.o) (realloc)
C:/mingw64/bin/../lib/gcc/x86_64-w64-mingw32/8.1.0/../../../../x86_64-w64-mingw32/lib/../lib/libmsvcrt.a(duags01159.o)
                              C:/mingw64/bin/../lib/gcc/x86_64-w64-mingw32/8.1.0\libstdc++.a(cow-string-inst.o) (memset)
C:/mingw64/bin/../lib/gcc/x86_64-w64-mingw32/8.1.0/../../../../x86_64-w64-mingw32/lib/../lib/libmsvcrt.a(duags01158.o)
                              Common__CtrlCmdUtil.cpp.obj (memmove)
C:/mingw64/bin/../lib/gcc/x86_64-w64-mingw32/8.1.0/../../../../x86_64-w64-mingw32/lib/../lib/libmsvcrt.a(duags01157.o)
                              C:/mingw64/bin/../lib/gcc/x86_64-w64-mingw32/8.1.0\libstdc++.a(cow-string-inst.o) (memcpy)
C:/mingw64/bin/../lib/gcc/x86_64-w64-mingw32/8.1.0/../../../../x86_64-w64-mingw32/lib/../lib/libmsvcrt.a(duags01156.o)
                              C:/mingw64/bin/../lib/gcc/x86_64-w64-mingw32/8.1.0\libstdc++.a(cow-string-inst.o) (memcmp)
C:/mingw64/bin/../lib/gcc/x86_64-w64-mingw32/8.1.0/../../../../x86_64-w64-mingw32/lib/../lib/libmsvcrt.a(duags01155.o)
                              C:/mingw64/bin/../lib/gcc/x86_64-w64-mingw32/8.1.0\libstdc++.a(cow-string-inst.o) (memchr)
C:/mingw64/bin/../lib/gcc/x86_64-w64-mingw32/8.1.0/../../../../x86_64-w64-mingw32/lib/../lib/libmsvcrt.a(duags01149.o)
                              C:/mingw64/bin/../lib/gcc/x86_64-w64-mingw32/8.1.0\libstdc++.a(eh_alloc.o) (malloc)
C:/mingw64/bin/../lib/gcc/x86_64-w64-mingw32/8.1.0/../../../../x86_64-w64-mingw32/lib/../lib/libmsvcrt.a(duags01101.o)
                              C:/mingw64/bin/../lib/gcc/x86_64-w64-mingw32/8.1.0\libstdc++.a(vterminate.o) (fwrite)
C:/mingw64/bin/../lib/gcc/x86_64-w64-mingw32/8.1.0/../../../../x86_64-w64-mingw32/lib/../lib/libmsvcrt.a(duags01089.o)
                              C:/mingw64/bin/../lib/gcc/x86_64-w64-mingw32/8.1.0\libstdc++.a(del_op.o) (free)
C:/mingw64/bin/../lib/gcc/x86_64-w64-mingw32/8.1.0/../../../../x86_64-w64-mingw32/lib/../lib/libmsvcrt.a(duags01086.o)
                              Common__PathUtil.cpp.obj (fputwc)
C:/mingw64/bin/../lib/gcc/x86_64-w64-mingw32/8.1.0/../../../../x86_64-w64-mingw32/lib/../lib/libmsvcrt.a(duags01085.o)
                              C:/mingw64/bin/../lib/gcc/x86_64-w64-mingw32/8.1.0\libstdc++.a(vterminate.o) (fputs)
C:/mingw64/bin/../lib/gcc/x86_64-w64-mingw32/8.1.0/../../../../x86_64-w64-mingw32/lib/../lib/libmsvcrt.a(duags01084.o)
                              C:/mingw64/bin/../lib/gcc/x86_64-w64-mingw32/8.1.0\libstdc++.a(vterminate.o) (fputc)
C:/mingw64/bin/../lib/gcc/x86_64-w64-mingw32/8.1.0/../../../../x86_64-w64-mingw32/lib/../lib/libmsvcrt.a(duags01080.o)
                              C:/mingw64/bin/../lib/gcc/x86_64-w64-mingw32/8.1.0\libstdc++.a(cow-string-inst.o) (fopen)
C:/mingw64/bin/../lib/gcc/x86_64-w64-mingw32/8.1.0/../../../../x86_64-w64-mingw32/lib/../lib/libmsvcrt.a(duags01067.o)
                              Common__PathUtil.cpp.obj (fclose)
C:/mingw64/bin/../lib/gcc/x86_64-w64-mingw32/8.1.0/../../../../x86_64-w64-mingw32/lib/../lib/libmsvcrt.a(duags01050.o)
                              C:/mingw64/bin/../lib/gcc/x86_64-w64-mingw32/8.1.0/../../../../x86_64-w64-mingw32/lib/../lib/libmingw32.a(lib64_libmingw32_a-tlsthrd.o) (calloc)
C:/mingw64/bin/../lib/gcc/x86_64-w64-mingw32/8.1.0/../../../../x86_64-w64-mingw32/lib/../lib/libmsvcrt.a(duags01032.o)
                              C:/mingw64/bin/../lib/gcc/x86_64-w64-mingw32/8.1.0\libstdc++.a(eh_personality.o) (abort)
C:/mingw64/bin/../lib/gcc/x86_64-w64-mingw32/8.1.0/../../../../x86_64-w64-mingw32/lib/../lib/libmsvcrt.a(duags00986.o)
                              C:/mingw64/bin/../lib/gcc/x86_64-w64-mingw32/8.1.0\libstdc++.a(pure.o) (write)
C:/mingw64/bin/../lib/gcc/x86_64-w64-mingw32/8.1.0/../../../../x86_64-w64-mingw32/lib/../lib/libmsvcrt.a(duags00945.o)
                              Common__PathUtil.cpp.obj (__imp__wfdopen)
C:/mingw64/bin/../lib/gcc/x86_64-w64-mingw32/8.1.0/../../../../x86_64-w64-mingw32/lib/../lib/libmsvcrt.a(duags00861.o)
                              Common__PipeServer.cpp.obj (__imp__vsnwprintf_s)
C:/mingw64/bin/../lib/gcc/x86_64-w64-mingw32/8.1.0/../../../../x86_64-w64-mingw32/lib/../lib/libmsvcrt.a(duags00617.o)
                              Common__PathUtil.cpp.obj (__imp__open_osfhandle)
C:/mingw64/bin/../lib/gcc/x86_64-w64-mingw32/8.1.0/../../../../x86_64-w64-mingw32/lib/../lib/libmsvcrt.a(duags00332.o)
                              C:/mingw64/bin/../lib/gcc/x86_64-w64-mingw32/8.1.0/../../../../x86_64-w64-mingw32/lib/../lib/dllcrt2.o (_initterm)
C:/mingw64/bin/../lib/gcc/x86_64-w64-mingw32/8.1.0/../../../../x86_64-w64-mingw32/lib/../lib/libmsvcrt.a(duags00155.o)
                              Common__PathUtil.cpp.obj (__imp__close)
C:/mingw64/bin/../lib/gcc/x86_64-w64-mingw32/8.1.0/../../../../x86_64-w64-mingw32/lib/../lib/libmsvcrt.a(duags00137.o)
                              Common__PipeServer.cpp.obj (__imp__beginthreadex)
C:/mingw64/bin/../lib/gcc/x86_64-w64-mingw32/8.1.0/../../../../x86_64-w64-mingw32/lib/../lib/libmsvcrt.a(duags00122.o)
                              C:/mingw64/bin/../lib/gcc/x86_64-w64-mingw32/8.1.0/../../../../x86_64-w64-mingw32/lib/../lib/dllcrt2.o (_amsg_exit)
C:/mingw64/bin/../lib/gcc/x86_64-w64-mingw32/8.1.0/../../../../x86_64-w64-mingw32/lib/../lib/libmsvcrt.a(lib64_libmsvcrt_os_a-onexit_table.o)
                              C:/mingw64/bin/../lib/gcc/x86_64-w64-mingw32/8.1.0/../../../../x86_64-w64-mingw32/lib/../lib/dllcrt2.o (_initialize_onexit_table)
C:/mingw64/bin/../lib/gcc/x86_64-w64-mingw32/8.1.0/../../../../x86_64-w64-mingw32/lib/../lib/libmsvcrt.a(lib64_libmsvcrt_os_a-acrt_iob_func.o)
                              C:/mingw64/bin/../lib/gcc/x86_64-w64-mingw32/8.1.0/../../../../x86_64-w64-mingw32/lib/../lib/libmingw32.a(lib64_libmingw32_a-pseudo-reloc.o) (__acrt_iob_func)
C:/mingw64/bin/../lib/gcc/x86_64-w64-mingw32/8.1.0/../../../../x86_64-w64-mingw32/lib/../lib/libmsvcrt.a(lib64_libmsvcrt_os_a-vsprintf_s.o)
                              Common__SendCtrlCmd.cpp.obj (__imp_vsprintf_s)
C:/mingw64/bin/../lib/gcc/x86_64-w64-mingw32/8.1.0/../../../../x86_64-w64-mingw32/lib/../lib/libmsvcrt.a(duagh.o)
                              C:/mingw64/bin/../lib/gcc/x86_64-w64-mingw32/8.1.0/../../../../x86_64-w64-mingw32/lib/../lib/libmsvcrt.a(duags01264.o) (_head_lib64_libmsvcrt_os_a)
C:/mingw64/bin/../lib/gcc/x86_64-w64-mingw32/8.1.0/../../../../x86_64-w64-mingw32/lib/../lib/libmsvcrt.a(duags00821.o)
                              C:/mingw64/bin/../lib/gcc/x86_64-w64-mingw32/8.1.0/../../../../x86_64-w64-mingw32/lib/../lib/libmsvcrt.a(lib64_libmsvcrt_os_a-onexit_table.o) (_unlock)
C:/mingw64/bin/../lib/gcc/x86_64-w64-mingw32/8.1.0/../../../../x86_64-w64-mingw32/lib/../lib/libmsvcrt.a(duags00441.o)
                              C:/mingw64/bin/../lib/gcc/x86_64-w64-mingw32/8.1.0/../../../../x86_64-w64-mingw32/lib/../lib/libmsvcrt.a(lib64_libmsvcrt_os_a-onexit_table.o) (_lock)
C:/mingw64/bin/../lib/gcc/x86_64-w64-mingw32/8.1.0/../../../../x86_64-w64-mingw32/lib/../lib/libmsvcrt.a(duags00083.o)
                              C:/mingw64/bin/../lib/gcc/x86_64-w64-mingw32/8.1.0/../../../../x86_64-w64-mingw32/lib/../lib/libmsvcrt.a(lib64_libmsvcrt_os_a-acrt_iob_func.o) (__iob_func)
C:/mingw64/bin/../lib/gcc/x86_64-w64-mingw32/8.1.0/../../../../x86_64-w64-mingw32/lib/../lib/libmsvcrt.a(duagt.o)
                              C:/mingw64/bin/../lib/gcc/x86_64-w64-mingw32/8.1.0/../../../../x86_64-w64-mingw32/lib/../lib/libmsvcrt.a(duagh.o) (__lib64_libmsvcrt_os_a_iname)
C:/mingw64/bin/../lib/gcc/x86_64-w64-mingw32/8.1.0/../../../../x86_64-w64-mingw32/lib/../lib/libadvapi32.a(diufs00741.o)
                              Common__PipeServer.cpp.obj (__imp_SetSecurityInfo)
C:/mingw64/bin/../lib/gcc/x86_64-w64-mingw32/8.1.0/../../../../x86_64-w64-mingw32/lib/../lib/libadvapi32.a(diufs00720.o)
                              Common__PipeServer.cpp.obj (__imp_SetEntriesInAclW)
C:/mingw64/bin/../lib/gcc/x86_64-w64-mingw32/8.1.0/../../../../x86_64-w64-mingw32/lib/../lib/libadvapi32.a(diufs00354.o)
                              Common__PipeServer.cpp.obj (__imp_GetSecurityInfo)
C:/mingw64/bin/../lib/gcc/x86_64-w64-mingw32/8.1.0/../../../../x86_64-w64-mingw32/lib/../lib/libadvapi32.a(diufs00146.o)
                              Common__PipeServer.cpp.obj (__imp_CreateWellKnownSid)
C:/mingw64/bin/../lib/gcc/x86_64-w64-mingw32/8.1.0/../../../../x86_64-w64-mingw32/lib/../lib/libadvapi32.a(diufh.o)
                              C:/mingw64/bin/../lib/gcc/x86_64-w64-mingw32/8.1.0/../../../../x86_64-w64-mingw32/lib/../lib/libadvapi32.a(diufs00741.o) (_head_lib64_libadvapi32_a)
C:/mingw64/bin/../lib/gcc/x86_64-w64-mingw32/8.1.0/../../../../x86_64-w64-mingw32/lib/../lib/libadvapi32.a(diuft.o)
                              C:/mingw64/bin/../lib/gcc/x86_64-w64-mingw32/8.1.0/../../../../x86_64-w64-mingw32/lib/../lib/libadvapi32.a(diufh.o) (__lib64_libadvapi32_a_iname)
C:/mingw64/bin/../lib/gcc/x86_64-w64-mingw32/8.1.0/../../../../x86_64-w64-mingw32/lib/../lib/libuser32.a(dyqes00864.o)
                              StreamCtrlDlg.cpp.obj (__imp_ShowWindow)
C:/mingw64/bin/../lib/gcc/x86_64-w64-mingw32/8.1.0/../../../../x86_64-w64-mingw32/lib/../lib/libuser32.a(dyqes00852.o)
                              StreamCtrlDlg.cpp.obj (__imp_SetWindowTextW)
C:/mingw64/bin/../lib/gcc/x86_64-w64-mingw32/8.1.0/../../../../x86_64-w64-mingw32/lib/../lib/libuser32.a(dyqes00847.o)
                              EpgTimerPlugIn.cpp.obj (__imp_SetWindowPos)
C:/mingw64/bin/../lib/gcc/x86_64-w64-mingw32/8.1.0/../../../../x86_64-w64-mingw32/lib/../lib/libuser32.a(dyqes00844.o)
                              StreamCtrlDlg.cpp.obj (__imp_SetWindowLongPtrW)
C:/mingw64/bin/../lib/gcc/x86_64-w64-mingw32/8.1.0/../../../../x86_64-w64-mingw32/lib/../lib/libuser32.a(dyqes00831.o)
                              StreamCtrlDlg.cpp.obj (__imp_SetTimer)
C:/mingw64/bin/../lib/gcc/x86_64-w64-mingw32/8.1.0/../../../../x86_64-w64-mingw32/lib/../lib/libuser32.a(dyqes00778.o)
                              StreamCtrlDlg.cpp.obj (__imp_SetDlgItemTextW)
C:/mingw64/bin/../lib/gcc/x86_64-w64-mingw32/8.1.0/../../../../x86_64-w64-mingw32/lib/../lib/libuser32.a(dyqes00753.o)
                              StreamCtrlDlg.cpp.obj (__imp_SendMessageW)
C:/mingw64/bin/../lib/gcc/x86_64-w64-mingw32/8.1.0/../../../../x86_64-w64-mingw32/lib/../lib/libuser32.a(dyqes00752.o)
                              EpgTimerPlugIn.cpp.obj (__imp_SendMessageTimeoutW)
C:/mingw64/bin/../lib/gcc/x86_64-w64-mingw32/8.1.0/../../../../x86_64-w64-mingw32/lib/../lib/libuser32.a(dyqes00744.o)
                              StreamCtrlDlg.cpp.obj (__imp_SendDlgItemMessageW)
C:/mingw64/bin/../lib/gcc/x86_64-w64-mingw32/8.1.0/../../../../x86_64-w64-mingw32/lib/../lib/libuser32.a(dyqes00738.o)
                              StreamCtrlDlg.cpp.obj (__imp_ScreenToClient)
C:/mingw64/bin/../lib/gcc/x86_64-w64-mingw32/8.1.0/../../../../x86_64-w64-mingw32/lib/../lib/libuser32.a(dyqes00654.o)
                              EpgTimerPlugIn.cpp.obj (__imp_PostMessageW)
C:/mingw64/bin/../lib/gcc/x86_64-w64-mingw32/8.1.0/../../../../x86_64-w64-mingw32/lib/../lib/libuser32.a(dyqes00623.o)
                              StreamCtrlDlg.cpp.obj (__imp_MonitorFromRect)
C:/mingw64/bin/../lib/gcc/x86_64-w64-mingw32/8.1.0/../../../../x86_64-w64-mingw32/lib/../lib/libuser32.a(dyqes00567.o)
                              StreamCtrlDlg.cpp.obj (__imp_KillTimer)
C:/mingw64/bin/../lib/gcc/x86_64-w64-mingw32/8.1.0/../../../../x86_64-w64-mingw32/lib/../lib/libuser32.a(dyqes00477.o)
                              EpgTimerPlugIn.cpp.obj (__imp_GetWindowRect)
C:/mingw64/bin/../lib/gcc/x86_64-w64-mingw32/8.1.0/../../../../x86_64-w64-mingw32/lib/../lib/libuser32.a(dyqes00476.o)
                              EpgTimerPlugIn.cpp.obj (__imp_GetWindowPlacement)
C:/mingw64/bin/../lib/gcc/x86_64-w64-mingw32/8.1.0/../../../../x86_64-w64-mingw32/lib/../lib/libuser32.a(dyqes00470.o)
                              StreamCtrlDlg.cpp.obj (__imp_GetWindowLongPtrW)
C:/mingw64/bin/../lib/gcc/x86_64-w64-mingw32/8.1.0/../../../../x86_64-w64-mingw32/lib/../lib/libuser32.a(dyqes00385.o)
                              StreamCtrlDlg.cpp.obj (__imp_GetMonitorInfoW)
C:/mingw64/bin/../lib/gcc/x86_64-w64-mingw32/8.1.0/../../../../x86_64-w64-mingw32/lib/../lib/libuser32.a(dyqes00326.o)
                              StreamCtrlDlg.cpp.obj (__imp_GetDlgItem)
C:/mingw64/bin/../lib/gcc/x86_64-w64-mingw32/8.1.0/../../../../x86_64-w64-mingw32/lib/../lib/libuser32.a(dyqes00317.o)
                              EpgTimerPlugIn.cpp.obj (__imp_GetCursorPos)
C:/mingw64/bin/../lib/gcc/x86_64-w64-mingw32/8.1.0/../../../../x86_64-w64-mingw32/lib/../lib/libuser32.a(dyqes00303.o)
                              StreamCtrlDlg.cpp.obj (__imp_GetClientRect)
C:/mingw64/bin/../lib/gcc/x86_64-w64-mingw32/8.1.0/../../../../x86_64-w64-mingw32/lib/../lib/libuser32.a(dyqes00235.o)
                              StreamCtrlDlg.cpp.obj (__imp_EnableWindow)
C:/mingw64/bin/../lib/gcc/x86_64-w64-mingw32/8.1.0/../../../../x86_64-w64-mingw32/lib/../lib/libuser32.a(dyqes00176.o)
                              StreamCtrlDlg.cpp.obj (__imp_DestroyWindow)
C:/mingw64/bin/../lib/gcc/x86_64-w64-mingw32/8.1.0/../../../../x86_64-w64-mingw32/lib/../lib/libuser32.a(dyqes00104.o)
                              StreamCtrlDlg.cpp.obj (__imp_CreateDialogParamW)
C:/mingw64/bin/../lib/gcc/x86_64-w64-mingw32/8.1.0/../../../../x86_64-w64-mingw32/lib/../lib/libuser32.a(dyqeh.o)
                              C:/mingw64/bin/../lib/gcc/x86_64-w64-mingw32/8.1.0/../../../../x86_64-w64-mingw32/lib/../lib/libuser32.a(dyqes00864.o) (_head_lib64_libuser32_a)
C:/mingw64/bin/../lib/gcc/x86_64-w64-mingw32/8.1.0/../../../../x86_64-w64-mingw32/lib/../lib/libuser32.a(dyqet.o)
                              C:/mingw64/bin/../lib/gcc/x86_64-w64-mingw32/8.1.0/../../../../x86_64-w64-mingw32/lib/../lib/libuser32.a(dyqeh.o) (__lib64_libuser32_a_iname)
C:/mingw64/bin/../lib/gcc/x86_64-w64-mingw32/8.1.0/../../../../x86_64-w64-mingw32/lib/../lib/libkernel32.a(dqifs01516.o)
                              Common__PathUtil.cpp.obj (__imp_WritePrivateProfileStringW)
C:/mingw64/bin/../lib/gcc/x86_64-w64-mingw32/8.1.0/../../../../x86_64-w64-mingw32/lib/../lib/libkernel32.a(dqifs01510.o)
                              Common__PipeServer.cpp.obj (__imp_WriteFile)
C:/mingw64/bin/../lib/gcc/x86_64-w64-mingw32/8.1.0/../../../../x86_64-w64-mingw32/lib/../lib/libkernel32.a(dqifs01490.o)
                              Common__StringUtil.cpp.obj (__imp_WideCharToMultiByte)
C:/mingw64/bin/../lib/gcc/x86_64-w64-mingw32/8.1.0/../../../../x86_64-w64-mingw32/lib/../lib/libkernel32.a(dqifs01453.o)
                              Common__PipeServer.cpp.obj (__imp_WaitForSingleObject)
C:/mingw64/bin/../lib/gcc/x86_64-w64-mingw32/8.1.0/../../../../x86_64-w64-mingw32/lib/../lib/libkernel32.a(dqifs01451.o)
                              Common__PipeServer.cpp.obj (__imp_WaitForMultipleObjects)
C:/mingw64/bin/../lib/gcc/x86_64-w64-mingw32/8.1.0/../../../../x86_64-w64-mingw32/lib/../lib/libkernel32.a(dqifs01445.o)
                              C:/mingw64/bin/../lib/gcc/x86_64-w64-mingw32/8.1.0/../../../../x86_64-w64-mingw32/lib/../lib/libmingw32.a(lib64_libmingw32_a-pseudo-reloc.o) (__imp_VirtualQuery)
C:/mingw64/bin/../lib/gcc/x86_64-w64-mingw32/8.1.0/../../../../x86_64-w64-mingw32/lib/../lib/libkernel32.a(dqifs01443.o)
                              C:/mingw64/bin/../lib/gcc/x86_64-w64-mingw32/8.1.0/../../../../x86_64-w64-mingw32/lib/../lib/libmingw32.a(lib64_libmingw32_a-pseudo-reloc.o) (__imp_VirtualProtect)
C:/mingw64/bin/../lib/gcc/x86_64-w64-mingw32/8.1.0/../../../../x86_64-w64-mingw32/lib/../lib/libkernel32.a(dqifs01409.o)
                              C:/mingw64/bin/../lib/gcc/x86_64-w64-mingw32/8.1.0/../../../../x86_64-w64-mingw32/lib/../lib/libmingw32.a(lib64_libmingw32_a-gs_support.o) (__imp_UnhandledExceptionFilter)
C:/mingw64/bin/../lib/gcc/x86_64-w64-mingw32/8.1.0/../../../../x86_64-w64-mingw32/lib/../lib/libkernel32.a(dqifs01396.o)
                              C:/mingw64/bin/../lib/gcc/x86_64-w64-mingw32/8.1.0/libgcc.a(gthr-win32.o) (__imp_TlsSetValue)
C:/mingw64/bin/../lib/gcc/x86_64-w64-mingw32/8.1.0/../../../../x86_64-w64-mingw32/lib/../lib/libkernel32.a(dqifs01395.o)
                              C:/mingw64/bin/../lib/gcc/x86_64-w64-mingw32/8.1.0/../../../../x86_64-w64-mingw32/lib/../lib/libmingw32.a(lib64_libmingw32_a-tlsthrd.o) (__imp_TlsGetValue)
C:/mingw64/bin/../lib/gcc/x86_64-w64-mingw32/8.1.0/../../../../x86_64-w64-mingw32/lib/../lib/libkernel32.a(dqifs01394.o)
                              C:/mingw64/bin/../lib/gcc/x86_64-w64-mingw32/8.1.0/libgcc.a(gthr-win32.o) (__imp_TlsFree)
C:/mingw64/bin/../lib/gcc/x86_64-w64-mingw32/8.1.0/../../../../x86_64-w64-mingw32/lib/../lib/libkernel32.a(dqifs01393.o)
                              C:/mingw64/bin/../lib/gcc/x86_64-w64-mingw32/8.1.0/libgcc.a(gthr-win32.o) (__imp_TlsAlloc)
C:/mingw64/bin/../lib/gcc/x86_64-w64-mingw32/8.1.0/../../../../x86_64-w64-mingw32/lib/../lib/libkernel32.a(dqifs01375.o)
                              C:/mingw64/bin/../lib/gcc/x86_64-w64-mingw32/8.1.0/../../../../x86_64-w64-mingw32/lib/../lib/libmingw32.a(lib64_libmingw32_a-gs_support.o) (__imp_TerminateProcess)
C:/mingw64/bin/../lib/gcc/x86_64-w64-mingw32/8.1.0/../../../../x86_64-w64-mingw32/lib/../lib/libkernel32.a(dqifs01360.o)
                              C:/mingw64/bin/../lib/gcc/x86_64-w64-mingw32/8.1.0/../../../../x86_64-w64-mingw32/lib/../lib/dllcrt2.o (__imp_Sleep)
C:/mingw64/bin/../lib/gcc/x86_64-w64-mingw32/8.1.0/../../../../x86_64-w64-mingw32/lib/../lib/libkernel32.a(dqifs01346.o)
                              C:/mingw64/bin/../lib/gcc/x86_64-w64-mingw32/8.1.0/../../../../x86_64-w64-mingw32/lib/../lib/libmingw32.a(lib64_libmingw32_a-gs_support.o) (__imp_SetUnhandledExceptionFilter)
C:/mingw64/bin/../lib/gcc/x86_64-w64-mingw32/8.1.0/../../../../x86_64-w64-mingw32/lib/../lib/libkernel32.a(dqifs01290.o)
                              C:/mingw64/bin/../lib/gcc/x86_64-w64-mingw32/8.1.0/libgcc.a(gthr-win32.o) (__imp_SetLastError)
C:/mingw64/bin/../lib/gcc/x86_64-w64-mingw32/8.1.0/../../../../x86_64-w64-mingw32/lib/../lib/libkernel32.a(dqifs01263.o)
                              Common__PipeServer.cpp.obj (__imp_SetEvent)
C:/mingw64/bin/../lib/gcc/x86_64-w64-mingw32/8.1.0/../../../../x86_64-w64-mingw32/lib/../lib/libkernel32.a(dqifs01194.o)
                              C:/mingw64/bin/../lib/gcc/x86_64-w64-mingw32/8.1.0/../../../../x86_64-w64-mingw32/lib/../lib/libmingw32.a(lib64_libmingw32_a-gs_support.o) (__imp_RtlVirtualUnwind)
C:/mingw64/bin/../lib/gcc/x86_64-w64-mingw32/8.1.0/../../../../x86_64-w64-mingw32/lib/../lib/libkernel32.a(dqifs01193.o)
                              C:/mingw64/bin/../lib/gcc/x86_64-w64-mingw32/8.1.0/libgcc_eh.a(unwind-seh.o) (__imp_RtlUnwindEx)
C:/mingw64/bin/../lib/gcc/x86_64-w64-mingw32/8.1.0/../../../../x86_64-w64-mingw32/lib/../lib/libkernel32.a(dqifs01187.o)
                              C:/mingw64/bin/../lib/gcc/x86_64-w64-mingw32/8.1.0/../../../../x86_64-w64-mingw32/lib/../lib/libmingw32.a(lib64_libmingw32_a-gs_support.o) (__imp_RtlLookupFunctionEntry)
C:/mingw64/bin/../lib/gcc/x86_64-w64-mingw32/8.1.0/../../../../x86_64-w64-mingw32/lib/../lib/libkernel32.a(dqifs01180.o)
                              C:/mingw64/bin/../lib/gcc/x86_64-w64-mingw32/8.1.0/../../../../x86_64-w64-mingw32/lib/../lib/libmingw32.a(lib64_libmingw32_a-gs_support.o) (__imp_RtlCaptureContext)
C:/mingw64/bin/../lib/gcc/x86_64-w64-mingw32/8.1.0/../../../../x86_64-w64-mingw32/lib/../lib/libkernel32.a(dqifs01179.o)
                              C:/mingw64/bin/../lib/gcc/x86_64-w64-mingw32/8.1.0/../../../../x86_64-w64-mingw32/lib/../lib/libmingw32.a(lib64_libmingw32_a-crt_handler.o) (__imp_RtlAddFunctionTable)
C:/mingw64/bin/../lib/gcc/x86_64-w64-mingw32/8.1.0/../../../../x86_64-w64-mingw32/lib/../lib/libkernel32.a(dqifs01172.o)
                              Common__PipeServer.cpp.obj (__imp_ResetEvent)
C:/mingw64/bin/../lib/gcc/x86_64-w64-mingw32/8.1.0/../../../../x86_64-w64-mingw32/lib/../lib/libkernel32.a(dqifs01154.o)
                              C:/mingw64/bin/../lib/gcc/x86_64-w64-mingw32/8.1.0/libgcc.a(gthr-win32.o) (__imp_ReleaseSemaphore)
C:/mingw64/bin/../lib/gcc/x86_64-w64-mingw32/8.1.0/../../../../x86_64-w64-mingw32/lib/../lib/libkernel32.a(dqifs01128.o)
                              Common__PipeServer.cpp.obj (__imp_ReadFile)
C:/mingw64/bin/../lib/gcc/x86_64-w64-mingw32/8.1.0/../../../../x86_64-w64-mingw32/lib/../lib/libkernel32.a(dqifs01112.o)
                              C:/mingw64/bin/../lib/gcc/x86_64-w64-mingw32/8.1.0/libgcc_eh.a(unwind-seh.o) (__imp_RaiseException)
C:/mingw64/bin/../lib/gcc/x86_64-w64-mingw32/8.1.0/../../../../x86_64-w64-mingw32/lib/../lib/libkernel32.a(dqifs01093.o)
                              C:/mingw64/bin/../lib/gcc/x86_64-w64-mingw32/8.1.0/../../../../x86_64-w64-mingw32/lib/../lib/libmingw32.a(lib64_libmingw32_a-gs_support.o) (__imp_QueryPerformanceCounter)
C:/mingw64/bin/../lib/gcc/x86_64-w64-mingw32/8.1.0/../../../../x86_64-w64-mingw32/lib/../lib/libkernel32.a(dqifs01042.o)
                              Common__PathUtil.cpp.obj (__imp_OutputDebugStringW)
C:/mingw64/bin/../lib/gcc/x86_64-w64-mingw32/8.1.0/../../../../x86_64-w64-mingw32/lib/../lib/libkernel32.a(dqifs01020.o)
                              Common__SendCtrlCmd.cpp.obj (__imp_OpenEventW)
C:/mingw64/bin/../lib/gcc/x86_64-w64-mingw32/8.1.0/../../../../x86_64-w64-mingw32/lib/../lib/libkernel32.a(dqifs00999.o)
                              Common__StringUtil.cpp.obj (__imp_MultiByteToWideChar)
C:/mingw64/bin/../lib/gcc/x86_64-w64-mingw32/8.1.0/../../../../x86_64-w64-mingw32/lib/../lib/libkernel32.a(dqifs00967.o)
                              Common__PipeServer.cpp.obj (__imp_LocalFree)
C:/mingw64/bin/../lib/gcc/x86_64-w64-mingw32/8.1.0/../../../../x86_64-w64-mingw32/lib/../lib/libkernel32.a(dqifs00951.o)
                              EpgTimerPlugIn.cpp.obj (__imp_LeaveCriticalSection)
C:/mingw64/bin/../lib/gcc/x86_64-w64-mingw32/8.1.0/../../../../x86_64-w64-mingw32/lib/../lib/libkernel32.a(dqifs00863.o)
                              EpgTimerPlugIn.cpp.obj (__imp_InitializeCriticalSection)
C:/mingw64/bin/../lib/gcc/x86_64-w64-mingw32/8.1.0/../../../../x86_64-w64-mingw32/lib/../lib/libkernel32.a(dqifs00801.o)
                              Common__PathUtil.cpp.obj (__imp_GetVolumePathNameW)
C:/mingw64/bin/../lib/gcc/x86_64-w64-mingw32/8.1.0/../../../../x86_64-w64-mingw32/lib/../lib/libkernel32.a(dqifs00799.o)
                              Common__PathUtil.cpp.obj (__imp_GetVolumeNameForVolumeMountPointW)
C:/mingw64/bin/../lib/gcc/x86_64-w64-mingw32/8.1.0/../../../../x86_64-w64-mingw32/lib/../lib/libkernel32.a(dqifs00774.o)
                              C:/mingw64/bin/../lib/gcc/x86_64-w64-mingw32/8.1.0/../../../../x86_64-w64-mingw32/lib/../lib/libmingw32.a(lib64_libmingw32_a-gs_support.o) (__imp_GetTickCount)
C:/mingw64/bin/../lib/gcc/x86_64-w64-mingw32/8.1.0/../../../../x86_64-w64-mingw32/lib/../lib/libkernel32.a(dqifs00746.o)
                              C:/mingw64/bin/../lib/gcc/x86_64-w64-mingw32/8.1.0/../../../../x86_64-w64-mingw32/lib/../lib/libmingw32.a(lib64_libmingw32_a-gs_support.o) (__imp_GetSystemTimeAsFileTime)
C:/mingw64/bin/../lib/gcc/x86_64-w64-mingw32/8.1.0/../../../../x86_64-w64-mingw32/lib/../lib/libkernel32.a(dqifs00689.o)
                              C:/mingw64/bin/../lib/gcc/x86_64-w64-mingw32/8.1.0/../../../../x86_64-w64-mingw32/lib/../lib/libmsvcrt.a(lib64_libmsvcrt_os_a-vsprintf_s.o) (__imp_GetProcAddress)
C:/mingw64/bin/../lib/gcc/x86_64-w64-mingw32/8.1.0/../../../../x86_64-w64-mingw32/lib/../lib/libkernel32.a(dqifs00686.o)
                              Common__PathUtil.cpp.obj (__imp_GetPrivateProfileStringW)
C:/mingw64/bin/../lib/gcc/x86_64-w64-mingw32/8.1.0/../../../../x86_64-w64-mingw32/lib/../lib/libkernel32.a(dqifs00680.o)
                              Common__PathUtil.cpp.obj (__imp_GetPrivateProfileIntW)
C:/mingw64/bin/../lib/gcc/x86_64-w64-mingw32/8.1.0/../../../../x86_64-w64-mingw32/lib/../lib/libkernel32.a(dqifs00633.o)
                              C:/mingw64/bin/../lib/gcc/x86_64-w64-mingw32/8.1.0/../../../../x86_64-w64-mingw32/lib/../lib/libmsvcrt.a(lib64_libmsvcrt_os_a-vsprintf_s.o) (__imp_GetModuleHandleW)
C:/mingw64/bin/../lib/gcc/x86_64-w64-mingw32/8.1.0/../../../../x86_64-w64-mingw32/lib/../lib/libkernel32.a(dqifs00629.o)
                              Common__PathUtil.cpp.obj (__imp_GetModuleFileNameW)
C:/mingw64/bin/../lib/gcc/x86_64-w64-mingw32/8.1.0/../../../../x86_64-w64-mingw32/lib/../lib/libkernel32.a(dqifs00609.o)
                              Common__PathUtil.cpp.obj (__imp_GetLastError)
C:/mingw64/bin/../lib/gcc/x86_64-w64-mingw32/8.1.0/../../../../x86_64-w64-mingw32/lib/../lib/libkernel32.a(dqifs00583.o)
                              Common__PathUtil.cpp.obj (__imp_GetFileAttributesW)
C:/mingw64/bin/../lib/gcc/x86_64-w64-mingw32/8.1.0/../../../../x86_64-w64-mingw32/lib/../lib/libkernel32.a(dqifs00554.o)
                              Common__PathUtil.cpp.obj (__imp_GetDiskFreeSpaceExW)
C:/mingw64/bin/../lib/gcc/x86_64-w64-mingw32/8.1.0/../../../../x86_64-w64-mingw32/lib/../lib/libkernel32.a(dqifs00540.o)
                              C:/mingw64/bin/../lib/gcc/x86_64-w64-mingw32/8.1.0/../../../../x86_64-w64-mingw32/lib/../lib/libmingw32.a(lib64_libmingw32_a-gs_support.o) (__imp_GetCurrentThreadId)
C:/mingw64/bin/../lib/gcc/x86_64-w64-mingw32/8.1.0/../../../../x86_64-w64-mingw32/lib/../lib/libkernel32.a(dqifs00536.o)
                              EpgTimerPlugIn.cpp.obj (__imp_GetCurrentProcessId)
C:/mingw64/bin/../lib/gcc/x86_64-w64-mingw32/8.1.0/../../../../x86_64-w64-mingw32/lib/../lib/libkernel32.a(dqifs00535.o)
                              EpgTimerPlugIn.cpp.obj (__imp_GetCurrentProcess)
C:/mingw64/bin/../lib/gcc/x86_64-w64-mingw32/8.1.0/../../../../x86_64-w64-mingw32/lib/../lib/libkernel32.a(dqifs00415.o)
                              Common__PipeServer.cpp.obj (__imp_FlushFileBuffers)
C:/mingw64/bin/../lib/gcc/x86_64-w64-mingw32/8.1.0/../../../../x86_64-w64-mingw32/lib/../lib/libkernel32.a(dqifs00396.o)
                              Common__PathUtil.cpp.obj (__imp_FindNextFileW)
C:/mingw64/bin/../lib/gcc/x86_64-w64-mingw32/8.1.0/../../../../x86_64-w64-mingw32/lib/../lib/libkernel32.a(dqifs00384.o)
                              Common__PathUtil.cpp.obj (__imp_FindFirstFileW)
C:/mingw64/bin/../lib/gcc/x86_64-w64-mingw32/8.1.0/../../../../x86_64-w64-mingw32/lib/../lib/libkernel32.a(dqifs00373.o)
                              Common__PathUtil.cpp.obj (__imp_FindClose)
C:/mingw64/bin/../lib/gcc/x86_64-w64-mingw32/8.1.0/../../../../x86_64-w64-mingw32/lib/../lib/libkernel32.a(dqifs00304.o)
                              EpgTimerPlugIn.cpp.obj (__imp_EnterCriticalSection)
C:/mingw64/bin/../lib/gcc/x86_64-w64-mingw32/8.1.0/../../../../x86_64-w64-mingw32/lib/../lib/libkernel32.a(dqifs00289.o)
                              Common__PipeServer.cpp.obj (__imp_DisconnectNamedPipe)
C:/mingw64/bin/../lib/gcc/x86_64-w64-mingw32/8.1.0/../../../../x86_64-w64-mingw32/lib/../lib/libkernel32.a(dqifs00268.o)
                              EpgTimerPlugIn.cpp.obj (__imp_DeleteCriticalSection)
C:/mingw64/bin/../lib/gcc/x86_64-w64-mingw32/8.1.0/../../../../x86_64-w64-mingw32/lib/../lib/libkernel32.a(dqifs00231.o)
                              C:/mingw64/bin/../lib/gcc/x86_64-w64-mingw32/8.1.0/libgcc.a(gthr-win32.o) (__imp_CreateSemaphoreW)
C:/mingw64/bin/../lib/gcc/x86_64-w64-mingw32/8.1.0/../../../../x86_64-w64-mingw32/lib/../lib/libkernel32.a(dqifs00216.o)
                              Common__PipeServer.cpp.obj (__imp_CreateNamedPipeW)
C:/mingw64/bin/../lib/gcc/x86_64-w64-mingw32/8.1.0/../../../../x86_64-w64-mingw32/lib/../lib/libkernel32.a(dqifs00199.o)
                              Common__PathUtil.cpp.obj (__imp_CreateFileW)
C:/mingw64/bin/../lib/gcc/x86_64-w64-mingw32/8.1.0/../../../../x86_64-w64-mingw32/lib/../lib/libkernel32.a(dqifs00187.o)
                              Common__PipeServer.cpp.obj (__imp_CreateEventW)
C:/mingw64/bin/../lib/gcc/x86_64-w64-mingw32/8.1.0/../../../../x86_64-w64-mingw32/lib/../lib/libkernel32.a(dqifs00183.o)
                              Common__PathUtil.cpp.obj (__imp_CreateDirectoryW)
C:/mingw64/bin/../lib/gcc/x86_64-w64-mingw32/8.1.0/../../../../x86_64-w64-mingw32/lib/../lib/libkernel32.a(dqifs00151.o)
                              Common__PipeServer.cpp.obj (__imp_ConnectNamedPipe)
C:/mingw64/bin/../lib/gcc/x86_64-w64-mingw32/8.1.0/../../../../x86_64-w64-mingw32/lib/../lib/libkernel32.a(dqifs00130.o)
                              Common__PathUtil.cpp.obj (__imp_CloseHandle)
C:/mingw64/bin/../lib/gcc/x86_64-w64-mingw32/8.1.0/../../../../x86_64-w64-mingw32/lib/../lib/libkernel32.a(dqifs00109.o)
                              Common__PipeServer.cpp.obj (__imp_CancelIo)
C:/mingw64/bin/../lib/gcc/x86_64-w64-mingw32/8.1.0/../../../../x86_64-w64-mingw32/lib/../lib/libkernel32.a(dqifh.o)
                              C:/mingw64/bin/../lib/gcc/x86_64-w64-mingw32/8.1.0/../../../../x86_64-w64-mingw32/lib/../lib/libkernel32.a(dqifs01516.o) (_head_lib64_libkernel32_a)
C:/mingw64/bin/../lib/gcc/x86_64-w64-mingw32/8.1.0/../../../../x86_64-w64-mingw32/lib/../lib/libkernel32.a(dqift.o)
                              C:/mingw64/bin/../lib/gcc/x86_64-w64-mingw32/8.1.0/../../../../x86_64-w64-mingw32/lib/../lib/libkernel32.a(dqifh.o) (__lib64_libkernel32_a_iname)
C:/mingw64/bin/../lib/gcc/x86_64-w64-mingw32/8.1.0/../../../../x86_64-w64-mingw32/lib/../lib/libmingw32.a(lib64_libmingw32_a-tlsmthread.o)
                              C:/mingw64/bin/../lib/gcc/x86_64-w64-mingw32/8.1.0/libgcc.a(gthr-win32.o) (__mingwthr_key_dtor)
C:/mingw64/bin/../lib/gcc/x86_64-w64-mingw32/8.1.0/../../../../x86_64-w64-mingw32/lib/../lib/libmingwex.a(lib64_libmingwex_a-vsnprintf.o)
                              C:/mingw64/bin/../lib/gcc/x86_64-w64-mingw32/8.1.0/../../../../x86_64-w64-mingw32/lib/../lib/libmsvcrt.a(lib64_libmsvcrt_os_a-vsprintf_s.o) (__ms_vsnprintf)
C:/mingw64/bin/../lib/gcc/x86_64-w64-mingw32/8.1.0/../../../../x86_64-w64-mingw32/lib/../lib/libmsvcrt.a(duags00852.o)
                              C:/mingw64/bin/../lib/gcc/x86_64-w64-mingw32/8.1.0/../../../../x86_64-w64-mingw32/lib/../lib/libmingwex.a(lib64_libmingwex_a-vsnprintf.o) (_vsnprintf)

Allocating common symbols
Common symbol       size              file

__native_startup_state
                    0x4               C:/mingw64/bin/../lib/gcc/x86_64-w64-mingw32/8.1.0/../../../../x86_64-w64-mingw32/lib/../lib/libmingw32.a(lib64_libmingw32_a-natstart.o)
__native_startup_lock
                    0x8               C:/mingw64/bin/../lib/gcc/x86_64-w64-mingw32/8.1.0/../../../../x86_64-w64-mingw32/lib/../lib/libmingw32.a(lib64_libmingw32_a-natstart.o)

Discarded input sections

 .text$_ZNSt11char_traitsIwE7compareEPKwS2_y
                0x0000000000000000       0x50 Common__PathUtil.cpp.obj
 .text$_ZNSt11char_traitsIwE6lengthEPKw
                0x0000000000000000       0x10 Common__PathUtil.cpp.obj
 .text$_Z10swprintf_sILy32EEiRAT__wPKwz
                0x0000000000000000       0x30 Common__PathUtil.cpp.obj
 .text$_ZNSt7__cxx1112basic_stringIwSt11char_traitsIwESaIwEE10_M_disposeEv
                0x0000000000000000       0x20 Common__PathUtil.cpp.obj
 .text$_ZNSt7__cxx1112basic_stringIwSt11char_traitsIwESaIwEE7_S_moveEPwPKwy
                0x0000000000000000       0x20 Common__PathUtil.cpp.obj
 .text$_ZNSt7__cxx1112basic_stringIwSt11char_traitsIwESaIwEE7_S_copyEPwPKwy
                0x0000000000000000       0x30 Common__PathUtil.cpp.obj
 .text$_ZNSt7__cxx1112basic_stringIwSt11char_traitsIwESaIwEE9_M_mutateEyyPKwy
                0x0000000000000000       0xd0 Common__PathUtil.cpp.obj
 .text$_ZNSt7__cxx1112basic_stringIwSt11char_traitsIwESaIwEE10_M_replaceEyyPKwy
                0x0000000000000000      0x1a0 Common__PathUtil.cpp.obj
 .rdata$_ZTSSt9exception
                0x0000000000000000       0x10 Common__PathUtil.cpp.obj
 .rdata$_ZTISt9exception
                0x0000000000000000       0x10 Common__PathUtil.cpp.obj
 .rdata$_ZTSSt13runtime_error
                0x0000000000000000       0x20 Common__PathUtil.cpp.obj
 .rdata$_ZTISt13runtime_error
                0x0000000000000000       0x20 Common__PathUtil.cpp.obj
 .rdata$.refptr._ZNSt13runtime_errorD1Ev
                0x0000000000000000       0x10 Common__PathUtil.cpp.obj
 .text$_ZNSt11char_traitsIwE7compareEPKwS2_y
                0x0000000000000000       0x50 Common__PipeServer.cpp.obj
 .text$_ZNSt11char_traitsIwE6lengthEPKw
                0x0000000000000000       0x10 Common__PipeServer.cpp.obj
 .text$_ZNSt7__cxx1112basic_stringIwSt11char_traitsIwESaIwEE10_M_disposeEv
                0x0000000000000000       0x20 Common__PipeServer.cpp.obj
 .text$_ZNSt7__cxx1112basic_stringIwSt11char_traitsIwESaIwEE7_S_copyEPwPKwy
                0x0000000000000000       0x30 Common__PipeServer.cpp.obj
 .text$_ZNSt7__cxx1112basic_stringIwSt11char_traitsIwESaIwEE7_S_moveEPwPKwy
                0x0000000000000000       0x20 Common__PipeServer.cpp.obj
 .text$_ZNSt7__cxx1112basic_stringIwSt11char_traitsIwESaIwEE9_M_mutateEyyPKwy
                0x0000000000000000       0xd0 Common__PipeServer.cpp.obj
 .text$_ZNSt7__cxx1112basic_stringIwSt11char_traitsIwESaIwEE9_M_appendEPKwy
                0x0000000000000000       0x70 Common__PipeServer.cpp.obj
 .text$_ZNSt7__cxx1112basic_stringIwSt11char_traitsIwESaIwEE10_M_replaceEyyPKwy
                0x0000000000000000      0x1a0 Common__PipeServer.cpp.obj
 .text$_ZNSt7__cxx1112basic_stringIwSt11char_traitsIwESaIwEE12_M_constructIPwEEvT_S7_St20forward_iterator_tag
                0x0000000000000000       0x80 Common__PipeServer.cpp.obj
 .rdata$_ZTSSt9exception
                0x0000000000000000       0x10 Common__PipeServer.cpp.obj
 .rdata$_ZTISt9exception
                0x0000000000000000       0x10 Common__PipeServer.cpp.obj
 .rdata$_ZTSSt13runtime_error
                0x0000000000000000       0x20 Common__PipeServer.cpp.obj
 .rdata$_ZTISt13runtime_error
                0x0000000000000000       0x20 Common__PipeServer.cpp.obj
 .rdata$.refptr._ZNSt13runtime_errorD1Ev
                0x0000000000000000       0x10 Common__PipeServer.cpp.obj
 .text$_ZNSt11char_traitsIwE7compareEPKwS2_y
                0x0000000000000000       0x50 Common__SendCtrlCmd.cpp.obj
 .text$_ZNSt11char_traitsIwE6lengthEPKw
                0x0000000000000000       0x10 Common__SendCtrlCmd.cpp.obj
 .text$_Z26AddDebugLogFormatNoNewlinePKwz
                0x0000000000000000       0x70 Common__SendCtrlCmd.cpp.obj
 .text$_ZNSt7__cxx1112basic_stringIwSt11char_traitsIwESaIwEE10_M_disposeEv
                0x0000000000000000       0x20 Common__SendCtrlCmd.cpp.obj
 .text$_ZNKSt7__cxx1112basic_stringIwSt11char_traitsIwESaIwEE4findEPKwyy
                0x0000000000000000       0xc0 Common__SendCtrlCmd.cpp.obj
 .text$_ZNKSt7__cxx1112basic_stringIwSt11char_traitsIwESaIwEE4findEPKwy
                0x0000000000000000       0x40 Common__SendCtrlCmd.cpp.obj
 .text$_ZNSt7__cxx1112basic_stringIwSt11char_traitsIwESaIwEE7_S_copyEPwPKwy
                0x0000000000000000       0x30 Common__SendCtrlCmd.cpp.obj
 .text$_ZNSt7__cxx1112basic_stringIwSt11char_traitsIwESaIwEE7_S_moveEPwPKwy
                0x0000000000000000       0x20 Common__SendCtrlCmd.cpp.obj
 .text$_ZNSt7__cxx1112basic_stringIwSt11char_traitsIwESaIwEE9_M_mutateEyyPKwy
                0x0000000000000000       0xd0 Common__SendCtrlCmd.cpp.obj
 .text$_ZNSt7__cxx1112basic_stringIwSt11char_traitsIwESaIwEE10_M_replaceEyyPKwy
                0x0000000000000000      0x1a0 Common__SendCtrlCmd.cpp.obj
 .text$_ZNSt7__cxx1112basic_stringIwSt11char_traitsIwESaIwEE7replaceEyyPKw
                0x0000000000000000       0x70 Common__SendCtrlCmd.cpp.obj
 .text$_ZNSt7__cxx1112basic_stringIwSt11char_traitsIwESaIwEE9_M_appendEPKwy
                0x0000000000000000       0x70 Common__SendCtrlCmd.cpp.obj
 .text$_ZStplIwSt11char_traitsIwESaIwEENSt7__cxx1112basic_stringIT_T0_T1_EEPKS5_RKS8_
                0x0000000000000000       0xe0 Common__SendCtrlCmd.cpp.obj
 .text$_ZNSt11char_traitsIwE7compareEPKwS2_y
                0x0000000000000000       0x50 Common__StringUtil.cpp.obj
 .text$_ZNSt7__cxx1112basic_stringIwSt11char_traitsIwESaIwEE10_M_disposeEv
                0x0000000000000000       0x20 Common__StringUtil.cpp.obj
 .text$_ZNKSt7__cxx1112basic_stringIwSt11char_traitsIwESaIwEE4findEPKwyy
                0x0000000000000000       0xc0 Common__StringUtil.cpp.obj
 .text$_ZNSt7__cxx1112basic_stringIwSt11char_traitsIwESaIwEE7_S_moveEPwPKwy
                0x0000000000000000       0x20 Common__StringUtil.cpp.obj
 .text$_ZNSt7__cxx1112basic_stringIwSt11char_traitsIwESaIwEE7_S_copyEPwPKwy
                0x0000000000000000       0x30 Common__StringUtil.cpp.obj
 .text$_ZNSt7__cxx1112basic_stringIwSt11char_traitsIwESaIwEE10_M_replaceEyyPKwy
                0x0000000000000000      0x220 Common__StringUtil.cpp.obj
 .text$_Z26AddDebugLogFormatNoNewlinePKwz
                0x0000000000000000       0x70 EpgTimerPlugIn.cpp.obj
 .text$_ZNSt7__cxx1112basic_stringIwSt11char_traitsIwESaIwEE10_M_disposeEv
                0x0000000000000000       0x20 EpgTimerPlugIn.cpp.obj
 .text$_ZNSt7__cxx1112basic_stringIwSt11char_traitsIwESaIwEE12_M_constructIPwEEvT_S7_St20forward_iterator_tag
                0x0000000000000000       0x90 EpgTimerPlugIn.cpp.obj
 .drectve       0x0000000000000000       0x64 EpgTimerPlugIn.cpp.obj
 .text$_ZNSt7__cxx1112basic_stringIwSt11char_traitsIwESaIwEE10_M_disposeEv
                0x0000000000000000       0x20 StreamCtrlDlg.cpp.obj
 .text$_ZNSt7__cxx1112basic_stringIwSt11char_traitsIwESaIwEE7_S_copyEPwPKwy
                0x0000000000000000       0x30 StreamCtrlDlg.cpp.obj
 .text$_ZNSt7__cxx1112basic_stringIwSt11char_traitsIwESaIwEE9_M_mutateEyyPKwy
                0x0000000000000000      0x100 StreamCtrlDlg.cpp.obj
 .text$_ZNSt7__cxx1112basic_stringIwSt11char_traitsIwESaIwEE9_M_appendEPKwy
                0x0000000000000000       0x70 StreamCtrlDlg.cpp.obj
 .rdata$_ZTSSt9exception
                0x0000000000000000       0x10 C:/mingw64/bin/../lib/gcc/x86_64-w64-mingw32/8.1.0\libstdc++.a(eh_alloc.o)
 .rdata$_ZTISt9exception
                0x0000000000000000       0x10 C:/mingw64/bin/../lib/gcc/x86_64-w64-mingw32/8.1.0\libstdc++.a(eh_alloc.o)
 .rdata$_ZTSSt9exception
                0x0000000000000000       0x10 C:/mingw64/bin/../lib/gcc/x86_64-w64-mingw32/8.1.0\libstdc++.a(eh_exception.o)
 .rdata$_ZTISt9exception
                0x0000000000000000       0x10 C:/mingw64/bin/../lib/gcc/x86_64-w64-mingw32/8.1.0\libstdc++.a(eh_exception.o)
 .rdata$_ZTSN10__cxxabiv115__forced_unwindE
                0x0000000000000000       0x20 C:/mingw64/bin/../lib/gcc/x86_64-w64-mingw32/8.1.0\libstdc++.a(eh_personality.o)
 .rdata$_ZTIN10__cxxabiv115__forced_unwindE
                0x0000000000000000       0x10 C:/mingw64/bin/../lib/gcc/x86_64-w64-mingw32/8.1.0\libstdc++.a(eh_personality.o)
 .rdata$_ZTSSt9exception
                0x0000000000000000       0x10 C:/mingw64/bin/../lib/gcc/x86_64-w64-mingw32/8.1.0\libstdc++.a(eh_personality.o)
 .rdata$_ZTISt9exception
                0x0000000000000000       0x10 C:/mingw64/bin/../lib/gcc/x86_64-w64-mingw32/8.1.0\libstdc++.a(eh_personality.o)
 .rdata$_ZTSN10__cxxabiv119__foreign_exceptionE
                0x0000000000000000       0x40 C:/mingw64/bin/../lib/gcc/x86_64-w64-mingw32/8.1.0\libstdc++.a(eh_personality.o)
 .rdata$_ZTIN10__cxxabiv119__foreign_exceptionE
                0x0000000000000000       0x10 C:/mingw64/bin/../lib/gcc/x86_64-w64-mingw32/8.1.0\libstdc++.a(eh_personality.o)
 .rdata$_ZTSSt13bad_exception
                0x0000000000000000       0x20 C:/mingw64/bin/../lib/gcc/x86_64-w64-mingw32/8.1.0\libstdc++.a(eh_personality.o)
 .rdata$_ZTISt13bad_exception
                0x0000000000000000       0x20 C:/mingw64/bin/../lib/gcc/x86_64-w64-mingw32/8.1.0\libstdc++.a(eh_personality.o)
 .rdata$_ZTSSt9exception
                0x0000000000000000       0x10 C:/mingw64/bin/../lib/gcc/x86_64-w64-mingw32/8.1.0\libstdc++.a(new_op.o)
 .rdata$_ZTISt9exception
                0x0000000000000000       0x10 C:/mingw64/bin/../lib/gcc/x86_64-w64-mingw32/8.1.0\libstdc++.a(new_op.o)
 .rdata$_ZTSSt9type_info
                0x0000000000000000       0x10 C:/mingw64/bin/../lib/gcc/x86_64-w64-mingw32/8.1.0\libstdc++.a(si_class_type_info.o)
 .rdata$_ZTISt9type_info
                0x0000000000000000       0x10 C:/mingw64/bin/../lib/gcc/x86_64-w64-mingw32/8.1.0\libstdc++.a(si_class_type_info.o)
 .rdata$_ZTSN10__cxxabiv117__class_type_infoE
                0x0000000000000000       0x40 C:/mingw64/bin/../lib/gcc/x86_64-w64-mingw32/8.1.0\libstdc++.a(si_class_type_info.o)
 .rdata$_ZTIN10__cxxabiv117__class_type_infoE
                0x0000000000000000       0x20 C:/mingw64/bin/../lib/gcc/x86_64-w64-mingw32/8.1.0\libstdc++.a(si_class_type_info.o)
 .rdata$_ZTSSt9type_info
                0x0000000000000000       0x10 C:/mingw64/bin/../lib/gcc/x86_64-w64-mingw32/8.1.0\libstdc++.a(tinfo.o)
 .rdata$_ZTISt9type_info
                0x0000000000000000       0x10 C:/mingw64/bin/../lib/gcc/x86_64-w64-mingw32/8.1.0\libstdc++.a(tinfo.o)
 .rdata$_ZTSSt9exception
                0x0000000000000000       0x10 C:/mingw64/bin/../lib/gcc/x86_64-w64-mingw32/8.1.0\libstdc++.a(vterminate.o)
 .rdata$_ZTISt9exception
                0x0000000000000000       0x10 C:/mingw64/bin/../lib/gcc/x86_64-w64-mingw32/8.1.0\libstdc++.a(vterminate.o)
 .rdata$_ZTSSt9exception
                0x0000000000000000       0x10 C:/mingw64/bin/../lib/gcc/x86_64-w64-mingw32/8.1.0\libstdc++.a(stdexcept.o)
 .rdata$_ZTISt9exception
                0x0000000000000000       0x10 C:/mingw64/bin/../lib/gcc/x86_64-w64-mingw32/8.1.0\libstdc++.a(stdexcept.o)
 .rdata$_ZTSSt13runtime_error
                0x0000000000000000       0x20 C:/mingw64/bin/../lib/gcc/x86_64-w64-mingw32/8.1.0\libstdc++.a(stdexcept.o)
 .rdata$_ZTISt13runtime_error
                0x0000000000000000       0x20 C:/mingw64/bin/../lib/gcc/x86_64-w64-mingw32/8.1.0\libstdc++.a(stdexcept.o)
 .rdata$.refptr._CRT_MT
                0x0000000000000000       0x10 C:/mingw64/bin/../lib/gcc/x86_64-w64-mingw32/8.1.0\libstdc++.a(stdexcept.o)
 .rdata$.refptr._CRT_MT
                0x0000000000000000       0x10 C:/mingw64/bin/../lib/gcc/x86_64-w64-mingw32/8.1.0\libstdc++.a(cow-stdexcept.o)
 .rdata$.refptr._CRT_MT
                0x0000000000000000       0x10 C:/mingw64/bin/../lib/gcc/x86_64-w64-mingw32/8.1.0\libstdc++.a(cow-string-inst.o)
 .rdata$_ZTSSt9exception
                0x0000000000000000       0x10 C:/mingw64/bin/../lib/gcc/x86_64-w64-mingw32/8.1.0\libstdc++.a(functexcept.o)
 .rdata$_ZTISt9exception
                0x0000000000000000       0x10 C:/mingw64/bin/../lib/gcc/x86_64-w64-mingw32/8.1.0\libstdc++.a(functexcept.o)
 .rdata$_ZTSSt13bad_exception
                0x0000000000000000       0x20 C:/mingw64/bin/../lib/gcc/x86_64-w64-mingw32/8.1.0\libstdc++.a(functexcept.o)
 .rdata$_ZTISt13bad_exception
                0x0000000000000000       0x20 C:/mingw64/bin/../lib/gcc/x86_64-w64-mingw32/8.1.0\libstdc++.a(functexcept.o)
 .rdata$_ZTSSt9bad_alloc
                0x0000000000000000       0x10 C:/mingw64/bin/../lib/gcc/x86_64-w64-mingw32/8.1.0\libstdc++.a(functexcept.o)
 .rdata$_ZTISt9bad_alloc
                0x0000000000000000       0x20 C:/mingw64/bin/../lib/gcc/x86_64-w64-mingw32/8.1.0\libstdc++.a(functexcept.o)
 .rdata$_ZTSSt11logic_error
                0x0000000000000000       0x10 C:/mingw64/bin/../lib/gcc/x86_64-w64-mingw32/8.1.0\libstdc++.a(functexcept.o)
 .rdata$_ZTISt11logic_error
                0x0000000000000000       0x20 C:/mingw64/bin/../lib/gcc/x86_64-w64-mingw32/8.1.0\libstdc++.a(functexcept.o)
 .rdata$_ZTSSt12domain_error
                0x0000000000000000       0x20 C:/mingw64/bin/../lib/gcc/x86_64-w64-mingw32/8.1.0\libstdc++.a(functexcept.o)
 .rdata$_ZTISt12domain_error
                0x0000000000000000       0x20 C:/mingw64/bin/../lib/gcc/x86_64-w64-mingw32/8.1.0\libstdc++.a(functexcept.o)
 .rdata$_ZTSSt16invalid_argument
                0x0000000000000000       0x20 C:/mingw64/bin/../lib/gcc/x86_64-w64-mingw32/8.1.0\libstdc++.a(functexcept.o)
 .rdata$_ZTISt16invalid_argument
                0x0000000000000000       0x20 C:/mingw64/bin/../lib/gcc/x86_64-w64-mingw32/8.1.0\libstdc++.a(functexcept.o)
 .rdata$_ZTSSt12length_error
                0x0000000000000000       0x20 C:/mingw64/bin/../lib/gcc/x86_64-w64-mingw32/8.1.0\libstdc++.a(functexcept.o)
 .rdata$_ZTISt12length_error
                0x0000000000000000       0x20 C:/mingw64/bin/../lib/gcc/x86_64-w64-mingw32/8.1.0\libstdc++.a(functexcept.o)
 .rdata$_ZTSSt12out_of_range
                0x0000000000000000       0x20 C:/mingw64/bin/../lib/gcc/x86_64-w64-mingw32/8.1.0\libstdc++.a(functexcept.o)
 .rdata$_ZTISt12out_of_range
                0x0000000000000000       0x20 C:/mingw64/bin/../lib/gcc/x86_64-w64-mingw32/8.1.0\libstdc++.a(functexcept.o)
 .rdata$_ZTSSt13runtime_error
                0x0000000000000000       0x20 C:/mingw64/bin/../lib/gcc/x86_64-w64-mingw32/8.1.0\libstdc++.a(functexcept.o)
 .rdata$_ZTISt13runtime_error
                0x0000000000000000       0x20 C:/mingw64/bin/../lib/gcc/x86_64-w64-mingw32/8.1.0\libstdc++.a(functexcept.o)
 .rdata$_ZTSSt11range_error
                0x0000000000000000       0x10 C:/mingw64/bin/../lib/gcc/x86_64-w64-mingw32/8.1.0\libstdc++.a(functexcept.o)
 .rdata$_ZTISt11range_error
                0x0000000000000000       0x20 C:/mingw64/bin/../lib/gcc/x86_64-w64-mingw32/8.1.0\libstdc++.a(functexcept.o)
 .rdata$_ZTSSt14overflow_error
                0x0000000000000000       0x20 C:/mingw64/bin/../lib/gcc/x86_64-w64-mingw32/8.1.0\libstdc++.a(functexcept.o)
 .rdata$_ZTISt14overflow_error
                0x0000000000000000       0x20 C:/mingw64/bin/../lib/gcc/x86_64-w64-mingw32/8.1.0\libstdc++.a(functexcept.o)
 .rdata$_ZTSSt15underflow_error
                0x0000000000000000       0x20 C:/mingw64/bin/../lib/gcc/x86_64-w64-mingw32/8.1.0\libstdc++.a(functexcept.o)
 .rdata$_ZTISt15underflow_error
                0x0000000000000000       0x20 C:/mingw64/bin/../lib/gcc/x86_64-w64-mingw32/8.1.0\libstdc++.a(functexcept.o)
 .rdata$.refptr._ZNSt13runtime_errorD1Ev
                0x0000000000000000       0x10 C:/mingw64/bin/../lib/gcc/x86_64-w64-mingw32/8.1.0\libstdc++.a(functexcept.o)
 .rdata$.refptr._ZNSt9bad_allocD1Ev
                0x0000000000000000       0x10 C:/mingw64/bin/../lib/gcc/x86_64-w64-mingw32/8.1.0\libstdc++.a(functexcept.o)
 .rdata$.refptr._ZTVSt9bad_alloc
                0x0000000000000000       0x10 C:/mingw64/bin/../lib/gcc/x86_64-w64-mingw32/8.1.0\libstdc++.a(functexcept.o)
 .rdata$.refptr._ZNSt13bad_exceptionD1Ev
                0x0000000000000000       0x10 C:/mingw64/bin/../lib/gcc/x86_64-w64-mingw32/8.1.0\libstdc++.a(functexcept.o)
 .rdata$.refptr._ZTVSt13bad_exception
                0x0000000000000000       0x10 C:/mingw64/bin/../lib/gcc/x86_64-w64-mingw32/8.1.0\libstdc++.a(functexcept.o)
 .rdata$_ZTSSt9exception
                0x0000000000000000       0x10 C:/mingw64/bin/../lib/gcc/x86_64-w64-mingw32/8.1.0\libstdc++.a(functional.o)
 .rdata$_ZTISt9exception
                0x0000000000000000       0x10 C:/mingw64/bin/../lib/gcc/x86_64-w64-mingw32/8.1.0\libstdc++.a(functional.o)
 .text$_ZNSt7__cxx1112basic_stringIcSt11char_traitsIcESaIcEE7_S_copyEPcPKcy
                0x0000000000000000       0x20 C:/mingw64/bin/../lib/gcc/x86_64-w64-mingw32/8.1.0\libstdc++.a(string-inst.o)
 .text$_ZNSt7__cxx1112basic_stringIcSt11char_traitsIcESaIcEE7_S_moveEPcPKcy
                0x0000000000000000       0x20 C:/mingw64/bin/../lib/gcc/x86_64-w64-mingw32/8.1.0\libstdc++.a(string-inst.o)
 .text$_ZNSt7__cxx1112basic_stringIcSt11char_traitsIcESaIcEE9_M_mutateEyyPKcy
                0x0000000000000000      0x140 C:/mingw64/bin/../lib/gcc/x86_64-w64-mingw32/8.1.0\libstdc++.a(string-inst.o)
 .text$_ZNSt7__cxx1112basic_stringIcSt11char_traitsIcESaIcEE10_M_replaceEyyPKcy
                0x0000000000000000      0x2a0 C:/mingw64/bin/../lib/gcc/x86_64-w64-mingw32/8.1.0\libstdc++.a(string-inst.o)
 .rdata$_ZTSSt9exception
                0x0000000000000000       0x10 C:/mingw64/bin/../lib/gcc/x86_64-w64-mingw32/8.1.0\libstdc++.a(bad_alloc.o)
 .rdata$_ZTISt9exception
                0x0000000000000000       0x10 C:/mingw64/bin/../lib/gcc/x86_64-w64-mingw32/8.1.0\libstdc++.a(bad_alloc.o)
 .rdata$_ZTSSt9bad_alloc
                0x0000000000000000       0x10 C:/mingw64/bin/../lib/gcc/x86_64-w64-mingw32/8.1.0\libstdc++.a(bad_alloc.o)
 .rdata$_ZTISt9bad_alloc
                0x0000000000000000       0x20 C:/mingw64/bin/../lib/gcc/x86_64-w64-mingw32/8.1.0\libstdc++.a(bad_alloc.o)
 .rdata$_ZTSSt9exception
                0x0000000000000000       0x10 C:/mingw64/bin/../lib/gcc/x86_64-w64-mingw32/8.1.0\libstdc++.a(bad_cast.o)
 .rdata$_ZTISt9exception
                0x0000000000000000       0x10 C:/mingw64/bin/../lib/gcc/x86_64-w64-mingw32/8.1.0\libstdc++.a(bad_cast.o)
 .rdata$_ZTSSt8bad_cast
                0x0000000000000000       0x10 C:/mingw64/bin/../lib/gcc/x86_64-w64-mingw32/8.1.0\libstdc++.a(bad_cast.o)
 .rdata$_ZTISt8bad_cast
                0x0000000000000000       0x20 C:/mingw64/bin/../lib/gcc/x86_64-w64-mingw32/8.1.0\libstdc++.a(bad_cast.o)
 .rdata$_ZTSSt9exception
                0x0000000000000000       0x10 C:/mingw64/bin/../lib/gcc/x86_64-w64-mingw32/8.1.0\libstdc++.a(bad_typeid.o)
 .rdata$_ZTISt9exception
                0x0000000000000000       0x10 C:/mingw64/bin/../lib/gcc/x86_64-w64-mingw32/8.1.0\libstdc++.a(bad_typeid.o)
 .rdata$_ZTSSt10bad_typeid
                0x0000000000000000       0x10 C:/mingw64/bin/../lib/gcc/x86_64-w64-mingw32/8.1.0\libstdc++.a(bad_typeid.o)
 .rdata$_ZTISt10bad_typeid
                0x0000000000000000       0x20 C:/mingw64/bin/../lib/gcc/x86_64-w64-mingw32/8.1.0\libstdc++.a(bad_typeid.o)
 .drectve       0x0000000000000000       0x4c C:/mingw64/bin/../lib/gcc/x86_64-w64-mingw32/8.1.0/../../../../x86_64-w64-mingw32/lib/../lib/libmingw32.a(lib64_libmingw32_a-natstart.o)
 .rdata$.refptr._CRT_MT
                0x0000000000000000       0x10 C:/mingw64/bin/../lib/gcc/x86_64-w64-mingw32/8.1.0/../../../../x86_64-w64-mingw32/lib/../lib/libmingw32.a(lib64_libmingw32_a-tlssup.o)
 .rdata$.refptr.__image_base__
                0x0000000000000000       0x10 C:/mingw64/bin/../lib/gcc/x86_64-w64-mingw32/8.1.0/../../../../x86_64-w64-mingw32/lib/../lib/libmingw32.a(lib64_libmingw32_a-pesect.o)
 .debug_line    0x0000000000000000       0x7b C:/mingw64/bin/../lib/gcc/x86_64-w64-mingw32/8.1.0/libgcc.a(_chkstk_ms.o)
 .debug_info    0x0000000000000000       0x2e C:/mingw64/bin/../lib/gcc/x86_64-w64-mingw32/8.1.0/libgcc.a(_chkstk_ms.o)
 .debug_abbrev  0x0000000000000000       0x14 C:/mingw64/bin/../lib/gcc/x86_64-w64-mingw32/8.1.0/libgcc.a(_chkstk_ms.o)
 .debug_aranges
                0x0000000000000000       0x30 C:/mingw64/bin/../lib/gcc/x86_64-w64-mingw32/8.1.0/libgcc.a(_chkstk_ms.o)
 .debug_str     0x0000000000000000       0x9b C:/mingw64/bin/../lib/gcc/x86_64-w64-mingw32/8.1.0/libgcc.a(_chkstk_ms.o)
 .debug_frame   0x0000000000000000       0x48 C:/mingw64/bin/../lib/gcc/x86_64-w64-mingw32/8.1.0/libgcc.a(_chkstk_ms.o)
 .drectve       0x0000000000000000       0x3c C:/mingw64/bin/../lib/gcc/x86_64-w64-mingw32/8.1.0/libgcc.a(_ctors.o)
 .debug_info    0x0000000000000000     0x1eda C:/mingw64/bin/../lib/gcc/x86_64-w64-mingw32/8.1.0/libgcc.a(_ctors.o)
 .debug_abbrev  0x0000000000000000      0x135 C:/mingw64/bin/../lib/gcc/x86_64-w64-mingw32/8.1.0/libgcc.a(_ctors.o)
 .debug_aranges
                0x0000000000000000       0x20 C:/mingw64/bin/../lib/gcc/x86_64-w64-mingw32/8.1.0/libgcc.a(_ctors.o)
 .debug_line    0x0000000000000000      0x1a7 C:/mingw64/bin/../lib/gcc/x86_64-w64-mingw32/8.1.0/libgcc.a(_ctors.o)
 .debug_str     0x0000000000000000        0x0 C:/mingw64/bin/../lib/gcc/x86_64-w64-mingw32/8.1.0/libgcc.a(_ctors.o)
 .debug_info    0x0000000000000000     0x5636 C:/mingw64/bin/../lib/gcc/x86_64-w64-mingw32/8.1.0/libgcc.a(gthr-win32.o)
 .debug_abbrev  0x0000000000000000      0x385 C:/mingw64/bin/../lib/gcc/x86_64-w64-mingw32/8.1.0/libgcc.a(gthr-win32.o)
 .debug_loc     0x0000000000000000      0xc70 C:/mingw64/bin/../lib/gcc/x86_64-w64-mingw32/8.1.0/libgcc.a(gthr-win32.o)
 .debug_aranges
                0x0000000000000000       0x30 C:/mingw64/bin/../lib/gcc/x86_64-w64-mingw32/8.1.0/libgcc.a(gthr-win32.o)
 .debug_ranges  0x0000000000000000       0x70 C:/mingw64/bin/../lib/gcc/x86_64-w64-mingw32/8.1.0/libgcc.a(gthr-win32.o)
 .debug_line    0x0000000000000000      0x6c1 C:/mingw64/bin/../lib/gcc/x86_64-w64-mingw32/8.1.0/libgcc.a(gthr-win32.o)
 .debug_str     0x0000000000000000       0xb3 C:/mingw64/bin/../lib/gcc/x86_64-w64-mingw32/8.1.0/libgcc.a(gthr-win32.o)
 .debug_frame   0x0000000000000000      0x2d0 C:/mingw64/bin/../lib/gcc/x86_64-w64-mingw32/8.1.0/libgcc.a(gthr-win32.o)
 .debug_info    0x0000000000000000     0x733b C:/mingw64/bin/../lib/gcc/x86_64-w64-mingw32/8.1.0/libgcc_eh.a(unwind-seh.o)
 .debug_abbrev  0x0000000000000000      0x47e C:/mingw64/bin/../lib/gcc/x86_64-w64-mingw32/8.1.0/libgcc_eh.a(unwind-seh.o)
 .debug_loc     0x0000000000000000      0xb63 C:/mingw64/bin/../lib/gcc/x86_64-w64-mingw32/8.1.0/libgcc_eh.a(unwind-seh.o)
 .debug_aranges
                0x0000000000000000       0x30 C:/mingw64/bin/../lib/gcc/x86_64-w64-mingw32/8.1.0/libgcc_eh.a(unwind-seh.o)
 .debug_line    0x0000000000000000      0x758 C:/mingw64/bin/../lib/gcc/x86_64-w64-mingw32/8.1.0/libgcc_eh.a(unwind-seh.o)
 .debug_str     0x0000000000000000       0xa6 C:/mingw64/bin/../lib/gcc/x86_64-w64-mingw32/8.1.0/libgcc_eh.a(unwind-seh.o)
 .debug_frame   0x0000000000000000      0x2e8 C:/mingw64/bin/../lib/gcc/x86_64-w64-mingw32/8.1.0/libgcc_eh.a(unwind-seh.o)
 .debug_info    0x0000000000000000     0x7418 C:/mingw64/bin/../lib/gcc/x86_64-w64-mingw32/8.1.0/libgcc_eh.a(emutls.o)
 .debug_abbrev  0x0000000000000000      0x4cf C:/mingw64/bin/../lib/gcc/x86_64-w64-mingw32/8.1.0/libgcc_eh.a(emutls.o)
 .debug_loc     0x0000000000000000      0xb42 C:/mingw64/bin/../lib/gcc/x86_64-w64-mingw32/8.1.0/libgcc_eh.a(emutls.o)
 .debug_aranges
                0x0000000000000000       0x30 C:/mingw64/bin/../lib/gcc/x86_64-w64-mingw32/8.1.0/libgcc_eh.a(emutls.o)
 .debug_ranges  0x0000000000000000      0x170 C:/mingw64/bin/../lib/gcc/x86_64-w64-mingw32/8.1.0/libgcc_eh.a(emutls.o)
 .debug_line    0x0000000000000000      0x82c C:/mingw64/bin/../lib/gcc/x86_64-w64-mingw32/8.1.0/libgcc_eh.a(emutls.o)
 .debug_str     0x0000000000000000       0xa4 C:/mingw64/bin/../lib/gcc/x86_64-w64-mingw32/8.1.0/libgcc_eh.a(emutls.o)
 .rdata$.refptr._CRT_MT
                0x0000000000000000       0x10 C:/mingw64/bin/../lib/gcc/x86_64-w64-mingw32/8.1.0/libgcc_eh.a(emutls.o)
 .debug_frame   0x0000000000000000      0x140 C:/mingw64/bin/../lib/gcc/x86_64-w64-mingw32/8.1.0/libgcc_eh.a(emutls.o)

Memory Configuration

Name             Origin             Length             Attributes
*default*        0x0000000000000000 0xffffffffffffffff

Linker script and memory map

                0x0000000068f40000                __image_base__ = 0x68f40000
                0x0000000000000000                __dll__ = 0x0
                0x0000000068f40000                __ImageBase = 0x68f40000
                0x0000000000001000                __section_alignment__ = 0x1000
                0x0000000000000200                __file_alignment__ = 0x200
                0x0000000000000004                __major_os_version__ = 0x4
                0x0000000000000000                __minor_os_version__ = 0x0
                0x0000000000000000                __major_image_version__ = 0x0
                0x0000000000000000                __minor_image_version__ = 0x0
                0x0000000000000005                __major_subsystem_version__ = 0x5
                0x0000000000000002                __minor_subsystem_version__ = 0x2
                0x0000000000000003                __subsystem__ = 0x3
                0x0000000000200000                __size_of_stack_reserve__ = 0x200000
                0x0000000000001000                __size_of_stack_commit__ = 0x1000
                0x0000000000100000                __size_of_heap_reserve__ = 0x100000
                0x0000000000001000                __size_of_heap_commit__ = 0x1000
                0x0000000000000000                __loader_flags__ = 0x0
                0x0000000000000140                __dll_characteristics__ = 0x140
LOAD C:/mingw64/bin/../lib/gcc/x86_64-w64-mingw32/8.1.0/../../../../x86_64-w64-mingw32/lib/../lib/dllcrt2.o
LOAD C:/mingw64/bin/../lib/gcc/x86_64-w64-mingw32/8.1.0/crtbegin.o
LOAD Common__CtrlCmdUtil.cpp.obj
LOAD Common__PathUtil.cpp.obj
LOAD Common__PipeServer.cpp.obj
LOAD Common__SendCtrlCmd.cpp.obj
LOAD Common__StringUtil.cpp.obj
LOAD EpgTimerPlugIn.cpp.obj
LOAD stdafx.cpp.obj
LOAD StreamCtrlDlg.cpp.obj
LOAD EpgTimerPlugIn.rc.obj
LOAD C:/mingw64/bin/../lib/gcc/x86_64-w64-mingw32/8.1.0/../../../../x86_64-w64-mingw32/lib/../lib/libws2_32.a
LOAD C:/mingw64/bin/../lib/gcc/x86_64-w64-mingw32/8.1.0\libstdc++.a
LOAD C:/mingw64/bin/../lib/gcc/x86_64-w64-mingw32/8.1.0/../../../../x86_64-w64-mingw32/lib/../lib/libmingw32.a
LOAD C:/mingw64/bin/../lib/gcc/x86_64-w64-mingw32/8.1.0/libgcc.a
LOAD C:/mingw64/bin/../lib/gcc/x86_64-w64-mingw32/8.1.0/libgcc_eh.a
LOAD C:/mingw64/bin/../lib/gcc/x86_64-w64-mingw32/8.1.0/../../../../x86_64-w64-mingw32/lib/../lib/libmoldname.a
LOAD C:/mingw64/bin/../lib/gcc/x86_64-w64-mingw32/8.1.0/../../../../x86_64-w64-mingw32/lib/../lib/libmingwex.a
LOAD C:/mingw64/bin/../lib/gcc/x86_64-w64-mingw32/8.1.0/../../../../x86_64-w64-mingw32/lib/../lib/libmsvcrt.a
LOAD C:/mingw64/bin/../lib/gcc/x86_64-w64-mingw32/8.1.0/../../../../x86_64-w64-mingw32/lib/../lib/libadvapi32.a
LOAD C:/mingw64/bin/../lib/gcc/x86_64-w64-mingw32/8.1.0/../../../../x86_64-w64-mingw32/lib/../lib/libshell32.a
LOAD C:/mingw64/bin/../lib/gcc/x86_64-w64-mingw32/8.1.0/../../../../x86_64-w64-mingw32/lib/../lib/libuser32.a
LOAD C:/mingw64/bin/../lib/gcc/x86_64-w64-mingw32/8.1.0/../../../../x86_64-w64-mingw32/lib/../lib/libkernel32.a
LOAD C:/mingw64/bin/../lib/gcc/x86_64-w64-mingw32/8.1.0/../../../../x86_64-w64-mingw32/lib/../lib/libiconv.a
LOAD C:/mingw64/bin/../lib/gcc/x86_64-w64-mingw32/8.1.0/../../../../x86_64-w64-mingw32/lib/../lib/libmingw32.a
LOAD C:/mingw64/bin/../lib/gcc/x86_64-w64-mingw32/8.1.0/libgcc.a
LOAD C:/mingw64/bin/../lib/gcc/x86_64-w64-mingw32/8.1.0/libgcc_eh.a
LOAD C:/mingw64/bin/../lib/gcc/x86_64-w64-mingw32/8.1.0/../../../../x86_64-w64-mingw32/lib/../lib/libmoldname.a
LOAD C:/mingw64/bin/../lib/gcc/x86_64-w64-mingw32/8.1.0/../../../../x86_64-w64-mingw32/lib/../lib/libmingwex.a
LOAD C:/mingw64/bin/../lib/gcc/x86_64-w64-mingw32/8.1.0/../../../../x86_64-w64-mingw32/lib/../lib/libmsvcrt.a
LOAD C:/mingw64/bin/../lib/gcc/x86_64-w64-mingw32/8.1.0/crtend.o
                0x0000000000000368                . = SIZEOF_HEADERS
                0x0000000000001000                . = ALIGN (__section_alignment__)

.text           0x0000000068f41000    0x24000
 *(.init)
 *(.text)
 .text          0x0000000068f41000      0x390 C:/mingw64/bin/../lib/gcc/x86_64-w64-mingw32/8.1.0/../../../../x86_64-w64-mingw32/lib/../lib/dllcrt2.o
                0x0000000068f41010                _CRT_INIT
                0x0000000068f41330                DllMainCRTStartup
                0x0000000068f41380                atexit
 .text          0x0000000068f41390       0x20 C:/mingw64/bin/../lib/gcc/x86_64-w64-mingw32/8.1.0/crtbegin.o
                0x0000000068f41390                __gcc_register_frame
                0x0000000068f413a0                __gcc_deregister_frame
 .text          0x0000000068f413b0     0x5050 Common__CtrlCmdUtil.cpp.obj
                0x0000000068f41503                CtrlCmdUtilImpl_::ReadStructIntro(unsigned char const**, unsigned char const**)
                0x0000000068f4155f                CtrlCmdUtilImpl_::ReadVectorIntro(unsigned char const**, unsigned char const**, unsigned long*)
                0x0000000068f415cf                CtrlCmdUtilImpl_::WriteVALUE(unsigned short, unsigned char*, unsigned long, std::__cxx11::basic_string<wchar_t, std::char_traits<wchar_t>, std::allocator<wchar_t> > const&, bool)
                0x0000000068f41611                CtrlCmdUtilImpl_::WriteVALUE(unsigned short, unsigned char*, unsigned long, FILE_DATA const&)
                0x0000000068f41696                CtrlCmdUtilImpl_::WriteVALUE(unsigned short, unsigned char*, unsigned long, EPGDB_SERVICE_INFO const&)
                0x0000000068f41760                CtrlCmdUtilImpl_::WriteVALUE(unsigned short, unsigned char*, unsigned long, EPGDB_SHORT_EVENT_INFO const&)
                0x0000000068f417ad                CtrlCmdUtilImpl_::WriteVALUE(unsigned short, unsigned char*, unsigned long, EPGDB_EXTENDED_EVENT_INFO const&)
                0x0000000068f417dc                CtrlCmdUtilImpl_::WriteVALUE(unsigned short, unsigned char*, unsigned long, EPG_CONTENT const&)
                0x0000000068f4181d                CtrlCmdUtilImpl_::ReadVALUE(unsigned short, unsigned char const**, unsigned char const*, EPG_CONTENT*)
                0x0000000068f4188c                CtrlCmdUtilImpl_::WriteVALUE(unsigned short, unsigned char*, unsigned long, EPGDB_COMPONENT_INFO const&)
                0x0000000068f418e4                CtrlCmdUtilImpl_::WriteVALUE(unsigned short, unsigned char*, unsigned long, EPGDB_AUDIO_COMPONENT_INFO_DATA const&)
                0x0000000068f4197e                CtrlCmdUtilImpl_::WriteVALUE(unsigned short, unsigned char*, unsigned long, EPGDB_AUDIO_COMPONENT_INFO const&)
                0x0000000068f41a29                CtrlCmdUtilImpl_::WriteVALUE(unsigned short, unsigned char*, unsigned long, EPG_EVENT_DATA const&)
                0x0000000068f41a72                CtrlCmdUtilImpl_::ReadVALUE(unsigned short, unsigned char const**, unsigned char const*, EPG_EVENT_DATA*)
                0x0000000068f41aeb                CtrlCmdUtilImpl_::WriteVALUE(unsigned short, unsigned char*, unsigned long, EPGDB_EVENTGROUP_INFO const&, unsigned char)
                0x0000000068f41b80                CtrlCmdUtilImpl_::WriteVALUE(unsigned short, unsigned char*, unsigned long, EPGDB_SEARCH_DATE_INFO const&)
                0x0000000068f41bdf                CtrlCmdUtilImpl_::ReadVALUE(unsigned short, unsigned char const**, unsigned char const*, EPGDB_SEARCH_DATE_INFO*)
                0x0000000068f41c84                CtrlCmdUtilImpl_::WriteVALUE(unsigned short, unsigned char*, unsigned long, SET_CH_INFO const&)
                0x0000000068f41cea                CtrlCmdUtilImpl_::ReadVALUE(unsigned short, unsigned char const**, unsigned char const*, SET_CH_INFO*)
                0x0000000068f41d9c                CtrlCmdUtilImpl_::WriteVALUE(unsigned short, unsigned char*, unsigned long, SET_CTRL_MODE const&)
                0x0000000068f41de9                CtrlCmdUtilImpl_::ReadVALUE(unsigned short, unsigned char const**, unsigned char const*, SET_CTRL_MODE*)
                0x0000000068f41e82                CtrlCmdUtilImpl_::WriteVALUE(unsigned short, unsigned char*, unsigned long, REC_FILE_SET_INFO const&)
                0x0000000068f41efb                CtrlCmdUtilImpl_::WriteVALUE(unsigned short, unsigned char*, unsigned long, SET_CTRL_REC_STOP_PARAM const&)
                0x0000000068f41f26                CtrlCmdUtilImpl_::ReadVALUE(unsigned short, unsigned char const**, unsigned char const*, SET_CTRL_REC_STOP_PARAM*)
                0x0000000068f41f7b                CtrlCmdUtilImpl_::WriteVALUE(unsigned short, unsigned char*, unsigned long, SET_CTRL_REC_STOP_RES_PARAM const&)
                0x0000000068f41fdb                CtrlCmdUtilImpl_::WriteVALUE(unsigned short, unsigned char*, unsigned long, SEARCH_EPG_INFO_PARAM const&)
                0x0000000068f4202f                CtrlCmdUtilImpl_::ReadVALUE(unsigned short, unsigned char const**, unsigned char const*, SEARCH_EPG_INFO_PARAM*)
                0x0000000068f420bd                CtrlCmdUtilImpl_::WriteVALUE(unsigned short, unsigned char*, unsigned long, GET_EPG_PF_INFO_PARAM const&)
                0x0000000068f42104                CtrlCmdUtilImpl_::ReadVALUE(unsigned short, unsigned char const**, unsigned char const*, GET_EPG_PF_INFO_PARAM*)
                0x0000000068f42180                CtrlCmdUtilImpl_::WriteVALUE(unsigned short, unsigned char*, unsigned long, TUNER_RESERVE_INFO const&)
                0x0000000068f42222                CtrlCmdUtilImpl_::WriteVALUE(unsigned short, unsigned char*, unsigned long, TVTEST_CH_CHG_INFO const&)
                0x0000000068f42274                CtrlCmdUtilImpl_::WriteVALUE(unsigned short, unsigned char*, unsigned long, NWPLAY_PLAY_INFO const&)
                0x0000000068f422cb                CtrlCmdUtilImpl_::ReadVALUE(unsigned short, unsigned char const**, unsigned char const*, NWPLAY_PLAY_INFO*)
                0x0000000068f42373                CtrlCmdUtilImpl_::WriteVALUE(unsigned short, unsigned char*, unsigned long, NWPLAY_POS_CMD const&)
                0x0000000068f423ab                CtrlCmdUtilImpl_::ReadVALUE(unsigned short, unsigned char const**, unsigned char const*, NWPLAY_POS_CMD*)
                0x0000000068f42426                CtrlCmdUtilImpl_::WriteVALUE(unsigned short, unsigned char*, unsigned long, NWPLAY_TIMESHIFT_INFO const&)
                0x0000000068f42468                CtrlCmdUtilImpl_::WriteVALUE(unsigned short, unsigned char*, unsigned long, NOTIFY_SRV_INFO const&)
                0x0000000068f42504                CCmdStream::SetParam(unsigned long)
                0x0000000068f4252a                CCmdStream::Resize(unsigned long)
                0x0000000068f4267a                CtrlCmdUtilImpl_::WriteVALUE(unsigned short, unsigned char*, unsigned long, EPGDB_CONTEN_INFO const&)
                0x0000000068f426a4                CtrlCmdUtilImpl_::WriteVALUE(unsigned short, unsigned char*, unsigned long, EPGDB_EVENT_INFO const&)
                0x0000000068f428cc                CtrlCmdUtilImpl_::WriteVALUE(unsigned short, unsigned char*, unsigned long, EPGDB_SERVICE_EVENT_INFO const&)
                0x0000000068f4299c                CtrlCmdUtilImpl_::WriteVALUE(unsigned short, unsigned char*, unsigned long, EPGDB_SERVICE_EVENT_INFO_PTR const&)
                0x0000000068f42a8d                CtrlCmdUtilImpl_::WriteVALUE(unsigned short, unsigned char*, unsigned long, EPGDB_SEARCH_KEY_INFO const&)
                0x0000000068f42c8c                CtrlCmdUtilImpl_::ReadVALUE(unsigned short, unsigned char const**, unsigned char const*, EPGDB_EVENTGROUP_INFO*, unsigned char*)
                0x0000000068f42cee                CtrlCmdUtilImpl_::WriteVALUE(unsigned short, unsigned char*, unsigned long, REC_SETTING_DATA const&)
                0x0000000068f42df6                CtrlCmdUtilImpl_::WriteVALUE(unsigned short, unsigned char*, unsigned long, EPG_AUTO_ADD_DATA const&)
                0x0000000068f42e7f                CtrlCmdUtilImpl_::WriteVALUE(unsigned short, unsigned char*, unsigned long, MANUAL_AUTO_ADD_DATA const&)
                0x0000000068f42f3f                CtrlCmdUtilImpl_::WriteVALUE(unsigned short, unsigned char*, unsigned long, SET_CTRL_REC_PARAM const&)
                0x0000000068f4302c                CtrlCmdUtilImpl_::WriteVALUE(unsigned short, unsigned char*, unsigned long, RESERVE_DATA const&)
                0x0000000068f43279                CtrlCmdUtilImpl_::WriteVALUE(unsigned short, unsigned char*, unsigned long, REC_FILE_INFO const&)
                0x0000000068f43569                DeprecatedNewWriteVALUE(RESERVE_DATA const&, CCmdStream&, unsigned char*)
                0x0000000068f437a3                DeprecatedNewWriteVALUE(EPGDB_EVENT_INFO const&, CCmdStream&, unsigned char*)
                0x0000000068f43c26                CtrlCmdUtilImpl_::ReadVALUE(unsigned short, unsigned char const**, unsigned char const*, std::__cxx11::basic_string<wchar_t, std::char_traits<wchar_t>, std::allocator<wchar_t> >*, bool)
                0x0000000068f43dd1                CtrlCmdUtilImpl_::ReadVALUE(unsigned short, unsigned char const**, unsigned char const*, EPGDB_SERVICE_INFO*)
                0x0000000068f43f18                CtrlCmdUtilImpl_::ReadVALUE(unsigned short, unsigned char const**, unsigned char const*, EPGDB_SHORT_EVENT_INFO*)
                0x0000000068f43f8d                CtrlCmdUtilImpl_::ReadVALUE(unsigned short, unsigned char const**, unsigned char const*, EPGDB_EXTENDED_EVENT_INFO*)
                0x0000000068f43fdf                CtrlCmdUtilImpl_::ReadVALUE(unsigned short, unsigned char const**, unsigned char const*, EPGDB_COMPONENT_INFO*)
                0x0000000068f44071                CtrlCmdUtilImpl_::ReadVALUE(unsigned short, unsigned char const**, unsigned char const*, EPGDB_AUDIO_COMPONENT_INFO_DATA*)
                0x0000000068f44190                CtrlCmdUtilImpl_::ReadVALUE(unsigned short, unsigned char const**, unsigned char const*, REC_FILE_SET_INFO*)
                0x0000000068f44243                CtrlCmdUtilImpl_::ReadVALUE(unsigned short, unsigned char const**, unsigned char const*, SET_CTRL_REC_STOP_RES_PARAM*)
                0x0000000068f442e4                CtrlCmdUtilImpl_::ReadVALUE(unsigned short, unsigned char const**, unsigned char const*, REC_FILE_INFO*)
                0x0000000068f445d6                CtrlCmdUtilImpl_::ReadVALUE(unsigned short, unsigned char const**, unsigned char const*, TVTEST_STREAMING_INFO*)
                0x0000000068f446b9                CtrlCmdUtilImpl_::ReadVALUE(unsigned short, unsigned char const**, unsigned char const*, NOTIFY_SRV_INFO*)
                0x0000000068f44849                DeprecatedReadVALUE(RESERVE_DATA*, unsigned char const*, unsigned long)
                0x0000000068f44cae                CtrlCmdUtilImpl_::ReadVALUE(unsigned short, unsigned char const**, unsigned char const*, EPGDB_AUDIO_COMPONENT_INFO*)
                0x0000000068f44cf8                CtrlCmdUtilImpl_::ReadVALUE(unsigned short, unsigned char const**, unsigned char const*, REC_SETTING_DATA*)
                0x0000000068f44ed9                CtrlCmdUtilImpl_::ReadVALUE(unsigned short, unsigned char const**, unsigned char const*, MANUAL_AUTO_ADD_DATA*)
                0x0000000068f45004                CtrlCmdUtilImpl_::ReadVALUE(unsigned short, unsigned char const**, unsigned char const*, RESERVE_DATA*)
                0x0000000068f452ad                CtrlCmdUtilImpl_::ReadVALUE(unsigned short, unsigned char const**, unsigned char const*, SET_CTRL_REC_PARAM*)
                0x0000000068f453dd                CtrlCmdUtilImpl_::ReadVALUE(unsigned short, unsigned char const**, unsigned char const*, EPGDB_CONTEN_INFO*)
                0x0000000068f45427                CtrlCmdUtilImpl_::ReadVALUE(unsigned short, unsigned char const**, unsigned char const*, EPGDB_EVENT_INFO*)
                0x0000000068f45834                CtrlCmdUtilImpl_::ReadVALUE(unsigned short, unsigned char const**, unsigned char const*, EPGDB_SERVICE_EVENT_INFO*)
                0x0000000068f4589c                CtrlCmdUtilImpl_::ReadVALUE(unsigned short, unsigned char const**, unsigned char const*, EPGDB_SEARCH_KEY_INFO*)
                0x0000000068f45c22                CtrlCmdUtilImpl_::ReadVALUE(unsigned short, unsigned char const**, unsigned char const*, EPG_AUTO_ADD_DATA*)
                0x0000000068f45cbf                CtrlCmdUtilImpl_::ReadVALUE(unsigned short, unsigned char const**, unsigned char const*, SEARCH_PG_PARAM*)
                0x0000000068f45d41                DeprecatedReadVALUE(EPG_AUTO_ADD_DATA*, unsigned char const*, unsigned long)
 .text          0x0000000068f46400     0x1a00 Common__PathUtil.cpp.obj
                0x0000000068f46452                filesystem_::path::first_element(std::__cxx11::basic_string<wchar_t, std::char_traits<wchar_t>, std::allocator<wchar_t> > const&, unsigned long long&, unsigned long long&)
                0x0000000068f46539                UtilOpenFile(std::__cxx11::basic_string<wchar_t, std::char_traits<wchar_t>, std::allocator<wchar_t> > const&, int)
                0x0000000068f4668a                UtilComparePath(wchar_t const*, wchar_t const*)
                0x0000000068f4668f                UtilPathEndsWith(wchar_t const*, wchar_t const*)
                0x0000000068f466d4                TouchFileAsUnicode(filesystem_::path const&)
                0x0000000068f46722                UtilFileExists(filesystem_::path const&, bool*)
                0x0000000068f46768                UtilCreateDirectory(filesystem_::path const&)
                0x0000000068f46782                filesystem_::path::filename_pos(std::__cxx11::basic_string<wchar_t, std::char_traits<wchar_t>, std::allocator<wchar_t> > const&)
                0x0000000068f46898                filesystem_::path::is_root_separator(std::__cxx11::basic_string<wchar_t, std::char_traits<wchar_t>, std::allocator<wchar_t> > const&, unsigned long long)
                0x0000000068f4693c                filesystem_::path::root_directory_start(std::__cxx11::basic_string<wchar_t, std::char_traits<wchar_t>, std::allocator<wchar_t> > const&, unsigned long long)
                0x0000000068f46a7c                filesystem_::path::m_parent_path_end() const
                0x0000000068f46b0a                WritePrivateProfileInt(wchar_t const*, wchar_t const*, int, wchar_t const*)
                0x0000000068f46b52                filesystem_::path::m_erase_redundant_separator(unsigned long long)
                0x0000000068f46b82                filesystem_::path::remove_filename()
                0x0000000068f46bad                CheckFileName(std::__cxx11::basic_string<wchar_t, std::char_traits<wchar_t>, std::allocator<wchar_t> >&, bool)
                0x0000000068f46d2a                filesystem_::path::filename() const
                0x0000000068f46d94                filesystem_::path::stem() const
                0x0000000068f46e0a                filesystem_::path::root_name() const
                0x0000000068f46ef0                filesystem_::path::root_directory() const
                0x0000000068f46f84                GetModulePath(HINSTANCE__*)
                0x0000000068f4706e                filesystem_::path::parent_path() const
                0x0000000068f47101                UtilCreateDirectories(filesystem_::path const&)
                0x0000000068f471b5                UtilGetStorageID[abi:cxx11](filesystem_::path const&)
                0x0000000068f47227                UtilGetStorageFreeBytes(filesystem_::path const&)
                0x0000000068f47287                GetPrivateProfileToString[abi:cxx11](wchar_t const*, wchar_t const*, wchar_t const*, wchar_t const*)
                0x0000000068f47532                filesystem_::path::m_append_separator_if_needed()
                0x0000000068f47580                filesystem_::path::append(wchar_t const*)
                0x0000000068f475be                filesystem_::path::replace_extension(filesystem_::path const&)
                0x0000000068f476ac                GetModuleIniPath(HINSTANCE__*)
                0x0000000068f47776                filesystem_::path::append(std::__cxx11::basic_string<wchar_t, std::char_traits<wchar_t>, std::allocator<wchar_t> > const&)
                0x0000000068f477b7                GetCommonIniPath()
                0x0000000068f4783e                GetDefSettingPath()
                0x0000000068f478c3                GetSettingPath()
                0x0000000068f47990                GetRecFolderPath(int)
                0x0000000068f47cd5                EnumFindFile(filesystem_::path const&, std::function<bool (UTIL_FIND_DATA&)> const&)
 .text          0x0000000068f47e00      0xc70 Common__PipeServer.cpp.obj
                0x0000000068f47e24                CPipeServer::ServerThread(CPipeServer*)
                0x0000000068f4825a                CPipeServer::CPipeServer()
                0x0000000068f4825a                CPipeServer::CPipeServer()
                0x0000000068f48314                CPipeServer::StopServer(bool)
                0x0000000068f48422                CPipeServer::~CPipeServer()
                0x0000000068f48422                CPipeServer::~CPipeServer()
                0x0000000068f48454                CPipeServer::GrantAccessToKernelObject(void*, wchar_t*, bool, unsigned long)
                0x0000000068f48560                CPipeServer::GrantServerAccessToKernelObject(void*, unsigned long)
                0x0000000068f48596                CPipeServer::StartServer(std::__cxx11::basic_string<wchar_t, std::char_traits<wchar_t>, std::allocator<wchar_t> > const&, std::function<void (CCmdStream&, CCmdStream&)> const&, bool, bool)
 .text          0x0000000068f48a70      0x950 Common__SendCtrlCmd.cpp.obj
                0x0000000068f48aec                CSendCtrlCmd::SetSendMode(int)
                0x0000000068f48b22                CSendCtrlCmd::SetPipeSetting(wchar_t const*, unsigned long)
                0x0000000068f48b38                CSendCtrlCmd::SetConnectTimeOut(unsigned long)
                0x0000000068f48e7e                CSendCtrlCmd::~CSendCtrlCmd()
                0x0000000068f48e7e                CSendCtrlCmd::~CSendCtrlCmd()
                0x0000000068f48ea4                CSendCtrlCmd::SetNWSetting(std::__cxx11::basic_string<wchar_t, std::char_traits<wchar_t>, std::allocator<wchar_t> > const&, unsigned long)
                0x0000000068f48f38                CSendCtrlCmd::SetPipeSetting(wchar_t const*)
                0x0000000068f48f42                CSendCtrlCmd::CSendCtrlCmd()
                0x0000000068f48f42                CSendCtrlCmd::CSendCtrlCmd()
                0x0000000068f48fd6                CSendCtrlCmd::PipeExists()
                0x0000000068f49088                CSendCtrlCmd::SendCmdStream(CCmdStream const&, CCmdStream*)
 .text          0x0000000068f493c0      0x9d0 Common__StringUtil.cpp.obj
                0x0000000068f49420                CompareNoCase(char const*, char const*)
                0x0000000068f4946a                CompareNoCase(wchar_t const*, wchar_t const*)
                0x0000000068f494b8                AtoW(char const*, unsigned long long, std::vector<wchar_t, std::allocator<wchar_t> >&, UTIL_CONV_CODE)
                0x0000000068f49775                WtoA(wchar_t const*, unsigned long long, std::vector<char, std::allocator<char> >&, UTIL_CONV_CODE)
                0x0000000068f499b7                Format(std::__cxx11::basic_string<wchar_t, std::char_traits<wchar_t>, std::allocator<wchar_t> >&, wchar_t const*, ...)
                0x0000000068f49abe                AtoW(std::__cxx11::basic_string<char, std::char_traits<char>, std::allocator<char> > const&, std::__cxx11::basic_string<wchar_t, std::char_traits<wchar_t>, std::allocator<wchar_t> >&, UTIL_CONV_CODE)
                0x0000000068f49b41                Separate(std::__cxx11::basic_string<wchar_t, std::char_traits<wchar_t>, std::allocator<wchar_t> > const&, wchar_t const*, std::__cxx11::basic_string<wchar_t, std::char_traits<wchar_t>, std::allocator<wchar_t> >&, std::__cxx11::basic_string<wchar_t, std::char_traits<wchar_t>, std::allocator<wchar_t> >&)
                0x0000000068f49c3c                Replace(std::__cxx11::basic_string<wchar_t, std::char_traits<wchar_t>, std::allocator<wchar_t> >&, std::__cxx11::basic_string<wchar_t, std::char_traits<wchar_t>, std::allocator<wchar_t> > const&, std::__cxx11::basic_string<wchar_t, std::char_traits<wchar_t>, std::allocator<wchar_t> > const&)
                0x0000000068f49d0d                WtoA(std::__cxx11::basic_string<wchar_t, std::char_traits<wchar_t>, std::allocator<wchar_t> > const&, std::__cxx11::basic_string<char, std::char_traits<char>, std::allocator<char> >&, UTIL_CONV_CODE)
 .text          0x0000000068f49d90     0x11a0 EpgTimerPlugIn.cpp.obj
                0x0000000068f49d90                CEpgTimerPlugIn::GetPluginInfo(TVTest::PluginInfo*)
                0x0000000068f49de6                CEpgTimerPlugIn::Initialize()
                0x0000000068f49f2a                TVTGetVersion
                0x0000000068f49f38                TVTGetPluginInfo
                0x0000000068f49f54                TVTInitialize
                0x0000000068f49f9b                TVTFinalize
                0x0000000068f49fd6                CEpgTimerPlugIn::ResetStreamingCtrlView()
                0x0000000068f4a1b6                CEpgTimerPlugIn::WindowMsgeCallback(HWND__*, unsigned int, unsigned long long, long long, long long*, void*)
                0x0000000068f4a2ba                CEpgTimerPlugIn::EnablePlugin(int)
                0x0000000068f4a492                CEpgTimerPlugIn::Finalize()
                0x0000000068f4a514                CEpgTimerPlugIn::EventCallback(unsigned int, long long, long long, void*)
                0x0000000068f4a59e                CEpgTimerPlugIn::CEpgTimerPlugIn()
                0x0000000068f4a59e                CEpgTimerPlugIn::CEpgTimerPlugIn()
                0x0000000068f4a6e6                CreatePluginClass()
                0x0000000068f4a724                DllMain
                0x0000000068f4a780                CEpgTimerPlugIn::CtrlCmdCallbackInvoked()
                0x0000000068f4acd6                CEpgTimerPlugIn::StreamCtrlDlgCallback(HWND__*, unsigned int, unsigned long long, long long, void*)
 .text          0x0000000068f4af30        0x0 stdafx.cpp.obj
 .text          0x0000000068f4af30      0xd90 StreamCtrlDlg.cpp.obj
                0x0000000068f4af3e                CStreamCtrlDlg::CStreamCtrlDlg()
                0x0000000068f4af3e                CStreamCtrlDlg::CStreamCtrlDlg()
                0x0000000068f4af7e                CStreamCtrlDlg::~CStreamCtrlDlg()
                0x0000000068f4af7e                CStreamCtrlDlg::~CStreamCtrlDlg()
                0x0000000068f4af88                CStreamCtrlDlg::SetMessageCallback(long long (*)(HWND__*, unsigned int, unsigned long long, long long, void*), void*)
                0x0000000068f4af92                CStreamCtrlDlg::CreateStreamCtrlDialog(HINSTANCE__*, HWND__*)
                0x0000000068f4afd4                CStreamCtrlDlg::CloseStreamCtrlDialog()
                0x0000000068f4b01a                CStreamCtrlDlg::StopTimer()
                0x0000000068f4b054                CStreamCtrlDlg::ShowCtrlDlg(unsigned long)
                0x0000000068f4b066                CStreamCtrlDlg::StartFullScreenMouseChk()
                0x0000000068f4b084                CStreamCtrlDlg::StopFullScreenMouseChk()
                0x0000000068f4b09a                CStreamCtrlDlg::SetNWModeSend()
                0x0000000068f4b30e                CStreamCtrlDlg::SetCtrl(TVTEST_STREAMING_INFO const&)
                0x0000000068f4b4e0                CStreamCtrlDlg::DlgProc(HWND__*, unsigned int, unsigned long long, long long)
 .text          0x0000000068f4bcc0        0x8 C:/mingw64/bin/../lib/gcc/x86_64-w64-mingw32/8.1.0/../../../../x86_64-w64-mingw32/lib/../lib/libws2_32.a(dozfs00195.o)
                0x0000000068f4bcc0                socket
 .text          0x0000000068f4bcc8        0x8 C:/mingw64/bin/../lib/gcc/x86_64-w64-mingw32/8.1.0/../../../../x86_64-w64-mingw32/lib/../lib/libws2_32.a(dozfs00193.o)
                0x0000000068f4bcc8                setsockopt
 .text          0x0000000068f4bcd0        0x8 C:/mingw64/bin/../lib/gcc/x86_64-w64-mingw32/8.1.0/../../../../x86_64-w64-mingw32/lib/../lib/libws2_32.a(dozfs00191.o)
                0x0000000068f4bcd0                send
 .text          0x0000000068f4bcd8        0x8 C:/mingw64/bin/../lib/gcc/x86_64-w64-mingw32/8.1.0/../../../../x86_64-w64-mingw32/lib/../lib/libws2_32.a(dozfs00190.o)
                0x0000000068f4bcd8                select
 .text          0x0000000068f4bce0        0x8 C:/mingw64/bin/../lib/gcc/x86_64-w64-mingw32/8.1.0/../../../../x86_64-w64-mingw32/lib/../lib/libws2_32.a(dozfs00188.o)
                0x0000000068f4bce0                recv
 .text          0x0000000068f4bce8        0x8 C:/mingw64/bin/../lib/gcc/x86_64-w64-mingw32/8.1.0/../../../../x86_64-w64-mingw32/lib/../lib/libws2_32.a(dozfs00184.o)
                0x0000000068f4bce8                ioctlsocket
 .text          0x0000000068f4bcf0        0x8 C:/mingw64/bin/../lib/gcc/x86_64-w64-mingw32/8.1.0/../../../../x86_64-w64-mingw32/lib/../lib/libws2_32.a(dozfs00166.o)
                0x0000000068f4bcf0                getaddrinfo
 .text          0x0000000068f4bcf8        0x8 C:/mingw64/bin/../lib/gcc/x86_64-w64-mingw32/8.1.0/../../../../x86_64-w64-mingw32/lib/../lib/libws2_32.a(dozfs00165.o)
                0x0000000068f4bcf8                freeaddrinfo
 .text          0x0000000068f4bd00        0x8 C:/mingw64/bin/../lib/gcc/x86_64-w64-mingw32/8.1.0/../../../../x86_64-w64-mingw32/lib/../lib/libws2_32.a(dozfs00164.o)
                0x0000000068f4bd00                connect
 .text          0x0000000068f4bd08        0x8 C:/mingw64/bin/../lib/gcc/x86_64-w64-mingw32/8.1.0/../../../../x86_64-w64-mingw32/lib/../lib/libws2_32.a(dozfs00163.o)
                0x0000000068f4bd08                closesocket
 .text          0x0000000068f4bd10        0x8 C:/mingw64/bin/../lib/gcc/x86_64-w64-mingw32/8.1.0/../../../../x86_64-w64-mingw32/lib/../lib/libws2_32.a(dozfs00088.o)
                0x0000000068f4bd10                WSAStartup
 .text          0x0000000068f4bd18        0x8 C:/mingw64/bin/../lib/gcc/x86_64-w64-mingw32/8.1.0/../../../../x86_64-w64-mingw32/lib/../lib/libws2_32.a(dozfs00047.o)
                0x0000000068f4bd18                WSAGetLastError
 .text          0x0000000068f4bd20        0x8 C:/mingw64/bin/../lib/gcc/x86_64-w64-mingw32/8.1.0/../../../../x86_64-w64-mingw32/lib/../lib/libws2_32.a(dozfs00030.o)
                0x0000000068f4bd20                WSACleanup
 *fill*         0x0000000068f4bd28        0x8 
 .text          0x0000000068f4bd30        0x0 C:/mingw64/bin/../lib/gcc/x86_64-w64-mingw32/8.1.0/../../../../x86_64-w64-mingw32/lib/../lib/libws2_32.a(dozfh.o)
 .text          0x0000000068f4bd30        0x0 C:/mingw64/bin/../lib/gcc/x86_64-w64-mingw32/8.1.0/../../../../x86_64-w64-mingw32/lib/../lib/libws2_32.a(dozft.o)
 .text          0x0000000068f4bd30        0x0 C:/mingw64/bin/../lib/gcc/x86_64-w64-mingw32/8.1.0\libstdc++.a(class_type_info.o)
 .text          0x0000000068f4bd30        0x0 C:/mingw64/bin/../lib/gcc/x86_64-w64-mingw32/8.1.0\libstdc++.a(del_op.o)
 .text          0x0000000068f4bd30        0x0 C:/mingw64/bin/../lib/gcc/x86_64-w64-mingw32/8.1.0\libstdc++.a(del_ops.o)
 .text          0x0000000068f4bd30        0x0 C:/mingw64/bin/../lib/gcc/x86_64-w64-mingw32/8.1.0\libstdc++.a(eh_alloc.o)
 .text          0x0000000068f4bd30        0x0 C:/mingw64/bin/../lib/gcc/x86_64-w64-mingw32/8.1.0\libstdc++.a(eh_catch.o)
 .text          0x0000000068f4bd30        0x0 C:/mingw64/bin/../lib/gcc/x86_64-w64-mingw32/8.1.0\libstdc++.a(eh_exception.o)
 .text          0x0000000068f4bd30        0x0 C:/mingw64/bin/../lib/gcc/x86_64-w64-mingw32/8.1.0\libstdc++.a(eh_globals.o)
 .text          0x0000000068f4bd30        0x0 C:/mingw64/bin/../lib/gcc/x86_64-w64-mingw32/8.1.0\libstdc++.a(eh_personality.o)
 .text          0x0000000068f4bd30        0x0 C:/mingw64/bin/../lib/gcc/x86_64-w64-mingw32/8.1.0\libstdc++.a(eh_terminate.o)
 .text          0x0000000068f4bd30        0x0 C:/mingw64/bin/../lib/gcc/x86_64-w64-mingw32/8.1.0\libstdc++.a(eh_term_handler.o)
 .text          0x0000000068f4bd30        0x0 C:/mingw64/bin/../lib/gcc/x86_64-w64-mingw32/8.1.0\libstdc++.a(eh_throw.o)
 .text          0x0000000068f4bd30        0x0 C:/mingw64/bin/../lib/gcc/x86_64-w64-mingw32/8.1.0\libstdc++.a(eh_unex_handler.o)
 .text          0x0000000068f4bd30        0x0 C:/mingw64/bin/../lib/gcc/x86_64-w64-mingw32/8.1.0\libstdc++.a(new_op.o)
 .text          0x0000000068f4bd30        0x0 C:/mingw64/bin/../lib/gcc/x86_64-w64-mingw32/8.1.0\libstdc++.a(pure.o)
 .text          0x0000000068f4bd30        0x0 C:/mingw64/bin/../lib/gcc/x86_64-w64-mingw32/8.1.0\libstdc++.a(si_class_type_info.o)
 .text          0x0000000068f4bd30        0x0 C:/mingw64/bin/../lib/gcc/x86_64-w64-mingw32/8.1.0\libstdc++.a(tinfo.o)
 .text          0x0000000068f4bd30        0x0 C:/mingw64/bin/../lib/gcc/x86_64-w64-mingw32/8.1.0\libstdc++.a(vterminate.o)
 .text          0x0000000068f4bd30        0x0 C:/mingw64/bin/../lib/gcc/x86_64-w64-mingw32/8.1.0\libstdc++.a(stdexcept.o)
 .text          0x0000000068f4bd30        0x0 C:/mingw64/bin/../lib/gcc/x86_64-w64-mingw32/8.1.0\libstdc++.a(cow-stdexcept.o)
 .text          0x0000000068f4bd30        0x0 C:/mingw64/bin/../lib/gcc/x86_64-w64-mingw32/8.1.0\libstdc++.a(cow-string-inst.o)
 .text          0x0000000068f4bd30        0x0 C:/mingw64/bin/../lib/gcc/x86_64-w64-mingw32/8.1.0\libstdc++.a(functexcept.o)
 .text          0x0000000068f4bd30        0x0 C:/mingw64/bin/../lib/gcc/x86_64-w64-mingw32/8.1.0\libstdc++.a(functional.o)
 .text          0x0000000068f4bd30        0x0 C:/mingw64/bin/../lib/gcc/x86_64-w64-mingw32/8.1.0\libstdc++.a(snprintf_lite.o)
 .text          0x0000000068f4bd30        0x0 C:/mingw64/bin/../lib/gcc/x86_64-w64-mingw32/8.1.0\libstdc++.a(sso_string.o)
 .text          0x0000000068f4bd30        0x0 C:/mingw64/bin/../lib/gcc/x86_64-w64-mingw32/8.1.0\libstdc++.a(string-inst.o)
 .text          0x0000000068f4bd30        0x0 C:/mingw64/bin/../lib/gcc/x86_64-w64-mingw32/8.1.0\libstdc++.a(bad_alloc.o)
 .text          0x0000000068f4bd30        0x0 C:/mingw64/bin/../lib/gcc/x86_64-w64-mingw32/8.1.0\libstdc++.a(bad_cast.o)
 .text          0x0000000068f4bd30        0x0 C:/mingw64/bin/../lib/gcc/x86_64-w64-mingw32/8.1.0\libstdc++.a(bad_typeid.o)
 .text          0x0000000068f4bd30     0x96f0 C:/mingw64/bin/../lib/gcc/x86_64-w64-mingw32/8.1.0\libstdc++.a(cp-demangle.o)
                0x0000000068f55290                __cxa_demangle
                0x0000000068f553f0                __gcclibcxx_demangle_callback
 .text          0x0000000068f55420        0x0 C:/mingw64/bin/../lib/gcc/x86_64-w64-mingw32/8.1.0\libstdc++.a(eh_call.o)
 .text          0x0000000068f55420        0x0 C:/mingw64/bin/../lib/gcc/x86_64-w64-mingw32/8.1.0\libstdc++.a(eh_type.o)
 .text          0x0000000068f55420        0x0 C:/mingw64/bin/../lib/gcc/x86_64-w64-mingw32/8.1.0\libstdc++.a(new_handler.o)
 .text          0x0000000068f55420       0xd0 C:/mingw64/bin/../lib/gcc/x86_64-w64-mingw32/8.1.0/../../../../x86_64-w64-mingw32/lib/../lib/libmingw32.a(lib64_libmingw32_a-gccmain.o)
                0x0000000068f55420                __do_global_dtors
                0x0000000068f55460                __do_global_ctors
                0x0000000068f554d0                __main
 .text          0x0000000068f554f0        0x0 C:/mingw64/bin/../lib/gcc/x86_64-w64-mingw32/8.1.0/../../../../x86_64-w64-mingw32/lib/../lib/libmingw32.a(lib64_libmingw32_a-natstart.o)
 .text          0x0000000068f554f0      0x1e0 C:/mingw64/bin/../lib/gcc/x86_64-w64-mingw32/8.1.0/../../../../x86_64-w64-mingw32/lib/../lib/libmingw32.a(lib64_libmingw32_a-gs_support.o)
                0x0000000068f554f0                __security_init_cookie
                0x0000000068f555d0                __report_gsfailure
 .text          0x0000000068f556d0       0xc0 C:/mingw64/bin/../lib/gcc/x86_64-w64-mingw32/8.1.0/../../../../x86_64-w64-mingw32/lib/../lib/libmingw32.a(lib64_libmingw32_a-tlssup.o)
                0x0000000068f55700                __dyn_tls_init
                0x0000000068f55780                __tlregdtor
 .text          0x0000000068f55790        0x0 C:/mingw64/bin/../lib/gcc/x86_64-w64-mingw32/8.1.0/../../../../x86_64-w64-mingw32/lib/../lib/libmingw32.a(lib64_libmingw32_a-cinitexe.o)
 .text          0x0000000068f55790       0x20 C:/mingw64/bin/../lib/gcc/x86_64-w64-mingw32/8.1.0/../../../../x86_64-w64-mingw32/lib/../lib/libmingw32.a(lib64_libmingw32_a-mingw_helpers.o)
                0x0000000068f55790                _decode_pointer
                0x0000000068f557a0                _encode_pointer
 .text          0x0000000068f557b0      0x490 C:/mingw64/bin/../lib/gcc/x86_64-w64-mingw32/8.1.0/../../../../x86_64-w64-mingw32/lib/../lib/libmingw32.a(lib64_libmingw32_a-pseudo-reloc.o)
                0x0000000068f55980                _pei386_runtime_relocator
 .text          0x0000000068f55c40      0x480 C:/mingw64/bin/../lib/gcc/x86_64-w64-mingw32/8.1.0/../../../../x86_64-w64-mingw32/lib/../lib/libmingw32.a(lib64_libmingw32_a-crt_handler.o)
                0x0000000068f55c40                __mingw_SEH_error_handler
                0x0000000068f55de0                __mingw_init_ehandler
                0x0000000068f55ed0                _gnu_exception_handler
 .text          0x0000000068f560c0      0x270 C:/mingw64/bin/../lib/gcc/x86_64-w64-mingw32/8.1.0/../../../../x86_64-w64-mingw32/lib/../lib/libmingw32.a(lib64_libmingw32_a-tlsthrd.o)
                0x0000000068f56130                ___w64_mingwthr_add_key_dtor
                0x0000000068f561b0                ___w64_mingwthr_remove_key_dtor
                0x0000000068f56250                __mingw_TLScallback
 .text          0x0000000068f56330        0x0 C:/mingw64/bin/../lib/gcc/x86_64-w64-mingw32/8.1.0/../../../../x86_64-w64-mingw32/lib/../lib/libmingw32.a(lib64_libmingw32_a-tlsmcrt.o)
 .text          0x0000000068f56330        0x0 C:/mingw64/bin/../lib/gcc/x86_64-w64-mingw32/8.1.0/../../../../x86_64-w64-mingw32/lib/../lib/libmingw32.a(lib64_libmingw32_a-pseudo-reloc-list.o)
 .text          0x0000000068f56330      0x3e0 C:/mingw64/bin/../lib/gcc/x86_64-w64-mingw32/8.1.0/../../../../x86_64-w64-mingw32/lib/../lib/libmingw32.a(lib64_libmingw32_a-pesect.o)
                0x0000000068f56350                _ValidateImageBase
                0x0000000068f56370                _FindPESection
                0x0000000068f563c0                _FindPESectionByName
                0x0000000068f56450                __mingw_GetSectionForAddress
                0x0000000068f564d0                __mingw_GetSectionCount
                0x0000000068f56510                _FindPESectionExec
                0x0000000068f56580                _GetPEImageBase
                0x0000000068f565c0                _IsNonwritableInCurrentImage
                0x0000000068f56660                __mingw_enum_import_library_names
 .text          0x0000000068f56710       0x10 C:/mingw64/bin/../lib/gcc/x86_64-w64-mingw32/8.1.0/../../../../x86_64-w64-mingw32/lib/../lib/libmingw32.a(lib64_libmingw32_a-CRT_fp10.o)
                0x0000000068f56710                fpreset
                0x0000000068f56710                _fpreset
 .text          0x0000000068f56720       0x40 C:/mingw64/bin/../lib/gcc/x86_64-w64-mingw32/8.1.0/libgcc.a(_chkstk_ms.o)
                0x0000000068f56720                ___chkstk_ms
 .text          0x0000000068f56760        0x0 C:/mingw64/bin/../lib/gcc/x86_64-w64-mingw32/8.1.0/libgcc.a(_ctors.o)
 .text          0x0000000068f56760      0x3b0 C:/mingw64/bin/../lib/gcc/x86_64-w64-mingw32/8.1.0/libgcc.a(gthr-win32.o)
                0x0000000068f56760                __gthr_win32_once
                0x0000000068f567e0                __gthr_win32_key_create
                0x0000000068f56820                __gthr_win32_key_delete
                0x0000000068f56840                __gthr_win32_getspecific
                0x0000000068f56870                __gthr_win32_setspecific
                0x0000000068f56890                __gthr_win32_mutex_init_function
                0x0000000068f568c0                __gthr_win32_mutex_destroy
                0x0000000068f568d0                __gthr_win32_mutex_lock
                0x0000000068f56920                __gthr_win32_mutex_trylock
                0x0000000068f56940                __gthr_win32_mutex_unlock
                0x0000000068f56980                __gthr_win32_recursive_mutex_init_function
                0x0000000068f569c0                __gthr_win32_recursive_mutex_lock
                0x0000000068f56a40                __gthr_win32_recursive_mutex_trylock
                0x0000000068f56a90                __gthr_win32_recursive_mutex_unlock
                0x0000000068f56af0                __gthr_win32_recursive_mutex_destroy
 .text          0x0000000068f56b10      0x630 C:/mingw64/bin/../lib/gcc/x86_64-w64-mingw32/8.1.0/libgcc_eh.a(unwind-seh.o)
                0x0000000068f56b70                _Unwind_GetGR
                0x0000000068f56b90                _Unwind_SetGR
                0x0000000068f56bb0                _Unwind_GetCFA
                0x0000000068f56bc0                _Unwind_GetIP
                0x0000000068f56bd0                _Unwind_GetIPInfo
                0x0000000068f56be0                _Unwind_SetIP
                0x0000000068f56bf0                _Unwind_GetLanguageSpecificData
                0x0000000068f56c00                _Unwind_GetRegionStart
                0x0000000068f56c10                _Unwind_FindEnclosingFunction
                0x0000000068f56c40                _Unwind_GetDataRelBase
                0x0000000068f56c50                _Unwind_GetTextRelBase
                0x0000000068f56c60                _GCC_specific_handler
                0x0000000068f56e70                _Unwind_RaiseException
                0x0000000068f56ec0                _Unwind_Resume
                0x0000000068f56f70                _Unwind_Resume_or_Rethrow
                0x0000000068f56f90                _Unwind_ForcedUnwind
                0x0000000068f56fc0                _Unwind_DeleteException
                0x0000000068f56fe0                _Unwind_Backtrace
 .text          0x0000000068f57140      0x3b0 C:/mingw64/bin/../lib/gcc/x86_64-w64-mingw32/8.1.0/libgcc_eh.a(emutls.o)
                0x0000000068f57280                __emutls_get_address
                0x0000000068f574c0                __emutls_register_common
 .text          0x0000000068f574f0       0x10 C:/mingw64/bin/../lib/gcc/x86_64-w64-mingw32/8.1.0/../../../../x86_64-w64-mingw32/lib/../lib/libmingwex.a(lib64_libmingwex_a-dllentry.o)
                0x0000000068f574f0                DllEntryPoint
 .text          0x0000000068f57500        0x8 C:/mingw64/bin/../lib/gcc/x86_64-w64-mingw32/8.1.0/../../../../x86_64-w64-mingw32/lib/../lib/libmsvcrt.a(duags01264.o)
                0x0000000068f57500                wcslen
 .text          0x0000000068f57508        0x8 C:/mingw64/bin/../lib/gcc/x86_64-w64-mingw32/8.1.0/../../../../x86_64-w64-mingw32/lib/../lib/libmsvcrt.a(duags01257.o)
                0x0000000068f57508                wcschr
 .text          0x0000000068f57510        0x8 C:/mingw64/bin/../lib/gcc/x86_64-w64-mingw32/8.1.0/../../../../x86_64-w64-mingw32/lib/../lib/libmsvcrt.a(duags01251.o)
                0x0000000068f57510                vswprintf_s
 .text          0x0000000068f57518        0x8 C:/mingw64/bin/../lib/gcc/x86_64-w64-mingw32/8.1.0/../../../../x86_64-w64-mingw32/lib/../lib/libmsvcrt.a(duags01243.o)
                0x0000000068f57518                vfprintf
 .text          0x0000000068f57520        0x8 C:/mingw64/bin/../lib/gcc/x86_64-w64-mingw32/8.1.0/../../../../x86_64-w64-mingw32/lib/../lib/libmsvcrt.a(duags01223.o)
                0x0000000068f57520                strtoul
 .text          0x0000000068f57528        0x8 C:/mingw64/bin/../lib/gcc/x86_64-w64-mingw32/8.1.0/../../../../x86_64-w64-mingw32/lib/../lib/libmsvcrt.a(duags01211.o)
                0x0000000068f57528                strncmp
 .text          0x0000000068f57530        0x8 C:/mingw64/bin/../lib/gcc/x86_64-w64-mingw32/8.1.0/../../../../x86_64-w64-mingw32/lib/../lib/libmsvcrt.a(duags01208.o)
                0x0000000068f57530                strlen
 .text          0x0000000068f57538        0x8 C:/mingw64/bin/../lib/gcc/x86_64-w64-mingw32/8.1.0/../../../../x86_64-w64-mingw32/lib/../lib/libmsvcrt.a(duags01201.o)
                0x0000000068f57538                strcmp
 .text          0x0000000068f57540        0x8 C:/mingw64/bin/../lib/gcc/x86_64-w64-mingw32/8.1.0/../../../../x86_64-w64-mingw32/lib/../lib/libmsvcrt.a(duags01192.o)
                0x0000000068f57540                sprintf
 .text          0x0000000068f57548        0x8 C:/mingw64/bin/../lib/gcc/x86_64-w64-mingw32/8.1.0/../../../../x86_64-w64-mingw32/lib/../lib/libmsvcrt.a(duags01187.o)
                0x0000000068f57548                signal
 .text          0x0000000068f57550        0x8 C:/mingw64/bin/../lib/gcc/x86_64-w64-mingw32/8.1.0/../../../../x86_64-w64-mingw32/lib/../lib/libmsvcrt.a(duags01186.o)
                0x0000000068f57550                setvbuf
 .text          0x0000000068f57558        0x8 C:/mingw64/bin/../lib/gcc/x86_64-w64-mingw32/8.1.0/../../../../x86_64-w64-mingw32/lib/../lib/libmsvcrt.a(duags01177.o)
                0x0000000068f57558                realloc
 .text          0x0000000068f57560        0x8 C:/mingw64/bin/../lib/gcc/x86_64-w64-mingw32/8.1.0/../../../../x86_64-w64-mingw32/lib/../lib/libmsvcrt.a(duags01159.o)
                0x0000000068f57560                memset
 .text          0x0000000068f57568        0x8 C:/mingw64/bin/../lib/gcc/x86_64-w64-mingw32/8.1.0/../../../../x86_64-w64-mingw32/lib/../lib/libmsvcrt.a(duags01158.o)
                0x0000000068f57568                memmove
 .text          0x0000000068f57570        0x8 C:/mingw64/bin/../lib/gcc/x86_64-w64-mingw32/8.1.0/../../../../x86_64-w64-mingw32/lib/../lib/libmsvcrt.a(duags01157.o)
                0x0000000068f57570                memcpy
 .text          0x0000000068f57578        0x8 C:/mingw64/bin/../lib/gcc/x86_64-w64-mingw32/8.1.0/../../../../x86_64-w64-mingw32/lib/../lib/libmsvcrt.a(duags01156.o)
                0x0000000068f57578                memcmp
 .text          0x0000000068f57580        0x8 C:/mingw64/bin/../lib/gcc/x86_64-w64-mingw32/8.1.0/../../../../x86_64-w64-mingw32/lib/../lib/libmsvcrt.a(duags01155.o)
                0x0000000068f57580                memchr
 .text          0x0000000068f57588        0x8 C:/mingw64/bin/../lib/gcc/x86_64-w64-mingw32/8.1.0/../../../../x86_64-w64-mingw32/lib/../lib/libmsvcrt.a(duags01149.o)
                0x0000000068f57588                malloc
 .text          0x0000000068f57590        0x8 C:/mingw64/bin/../lib/gcc/x86_64-w64-mingw32/8.1.0/../../../../x86_64-w64-mingw32/lib/../lib/libmsvcrt.a(duags01101.o)
                0x0000000068f57590                fwrite
 .text          0x0000000068f57598        0x8 C:/mingw64/bin/../lib/gcc/x86_64-w64-mingw32/8.1.0/../../../../x86_64-w64-mingw32/lib/../lib/libmsvcrt.a(duags01089.o)
                0x0000000068f57598                free
 .text          0x0000000068f575a0        0x8 C:/mingw64/bin/../lib/gcc/x86_64-w64-mingw32/8.1.0/../../../../x86_64-w64-mingw32/lib/../lib/libmsvcrt.a(duags01086.o)
                0x0000000068f575a0                fputwc
 .text          0x0000000068f575a8        0x8 C:/mingw64/bin/../lib/gcc/x86_64-w64-mingw32/8.1.0/../../../../x86_64-w64-mingw32/lib/../lib/libmsvcrt.a(duags01085.o)
                0x0000000068f575a8                fputs
 .text          0x0000000068f575b0        0x8 C:/mingw64/bin/../lib/gcc/x86_64-w64-mingw32/8.1.0/../../../../x86_64-w64-mingw32/lib/../lib/libmsvcrt.a(duags01084.o)
                0x0000000068f575b0                fputc
 .text          0x0000000068f575b8        0x8 C:/mingw64/bin/../lib/gcc/x86_64-w64-mingw32/8.1.0/../../../../x86_64-w64-mingw32/lib/../lib/libmsvcrt.a(duags01080.o)
                0x0000000068f575b8                fopen
 .text          0x0000000068f575c0        0x8 C:/mingw64/bin/../lib/gcc/x86_64-w64-mingw32/8.1.0/../../../../x86_64-w64-mingw32/lib/../lib/libmsvcrt.a(duags01067.o)
                0x0000000068f575c0                fclose
 .text          0x0000000068f575c8        0x8 C:/mingw64/bin/../lib/gcc/x86_64-w64-mingw32/8.1.0/../../../../x86_64-w64-mingw32/lib/../lib/libmsvcrt.a(duags01050.o)
                0x0000000068f575c8                calloc
 .text          0x0000000068f575d0        0x8 C:/mingw64/bin/../lib/gcc/x86_64-w64-mingw32/8.1.0/../../../../x86_64-w64-mingw32/lib/../lib/libmsvcrt.a(duags01032.o)
                0x0000000068f575d0                abort
 .text          0x0000000068f575d8        0x8 C:/mingw64/bin/../lib/gcc/x86_64-w64-mingw32/8.1.0/../../../../x86_64-w64-mingw32/lib/../lib/libmsvcrt.a(duags00986.o)
                0x0000000068f575d8                write
 .text          0x0000000068f575e0        0x8 C:/mingw64/bin/../lib/gcc/x86_64-w64-mingw32/8.1.0/../../../../x86_64-w64-mingw32/lib/../lib/libmsvcrt.a(duags00945.o)
                0x0000000068f575e0                _wfdopen
 .text          0x0000000068f575e8        0x8 C:/mingw64/bin/../lib/gcc/x86_64-w64-mingw32/8.1.0/../../../../x86_64-w64-mingw32/lib/../lib/libmsvcrt.a(duags00861.o)
                0x0000000068f575e8                _vsnwprintf_s
 .text          0x0000000068f575f0        0x8 C:/mingw64/bin/../lib/gcc/x86_64-w64-mingw32/8.1.0/../../../../x86_64-w64-mingw32/lib/../lib/libmsvcrt.a(duags00617.o)
                0x0000000068f575f0                _open_osfhandle
 .text          0x0000000068f575f8        0x8 C:/mingw64/bin/../lib/gcc/x86_64-w64-mingw32/8.1.0/../../../../x86_64-w64-mingw32/lib/../lib/libmsvcrt.a(duags00332.o)
                0x0000000068f575f8                _initterm
 .text          0x0000000068f57600        0x8 C:/mingw64/bin/../lib/gcc/x86_64-w64-mingw32/8.1.0/../../../../x86_64-w64-mingw32/lib/../lib/libmsvcrt.a(duags00155.o)
                0x0000000068f57600                _close
 .text          0x0000000068f57608        0x8 C:/mingw64/bin/../lib/gcc/x86_64-w64-mingw32/8.1.0/../../../../x86_64-w64-mingw32/lib/../lib/libmsvcrt.a(duags00137.o)
                0x0000000068f57608                _beginthreadex
 .text          0x0000000068f57610        0x8 C:/mingw64/bin/../lib/gcc/x86_64-w64-mingw32/8.1.0/../../../../x86_64-w64-mingw32/lib/../lib/libmsvcrt.a(duags00122.o)
                0x0000000068f57610                _amsg_exit
 *fill*         0x0000000068f57618        0x8 
 .text          0x0000000068f57620      0x170 C:/mingw64/bin/../lib/gcc/x86_64-w64-mingw32/8.1.0/../../../../x86_64-w64-mingw32/lib/../lib/libmsvcrt.a(lib64_libmsvcrt_os_a-onexit_table.o)
                0x0000000068f57620                _initialize_onexit_table
                0x0000000068f57650                _register_onexit_function
                0x0000000068f57720                _execute_onexit_table
 .text          0x0000000068f57790       0x20 C:/mingw64/bin/../lib/gcc/x86_64-w64-mingw32/8.1.0/../../../../x86_64-w64-mingw32/lib/../lib/libmsvcrt.a(lib64_libmsvcrt_os_a-acrt_iob_func.o)
                0x0000000068f57790                __acrt_iob_func
 .text          0x0000000068f577b0       0xb0 C:/mingw64/bin/../lib/gcc/x86_64-w64-mingw32/8.1.0/../../../../x86_64-w64-mingw32/lib/../lib/libmsvcrt.a(lib64_libmsvcrt_os_a-vsprintf_s.o)
                0x0000000068f57850                vsprintf_s
 .text          0x0000000068f57860        0x0 C:/mingw64/bin/../lib/gcc/x86_64-w64-mingw32/8.1.0/../../../../x86_64-w64-mingw32/lib/../lib/libmsvcrt.a(duagh.o)
 .text          0x0000000068f57860        0x8 C:/mingw64/bin/../lib/gcc/x86_64-w64-mingw32/8.1.0/../../../../x86_64-w64-mingw32/lib/../lib/libmsvcrt.a(duags00821.o)
                0x0000000068f57860                _unlock
 .text          0x0000000068f57868        0x8 C:/mingw64/bin/../lib/gcc/x86_64-w64-mingw32/8.1.0/../../../../x86_64-w64-mingw32/lib/../lib/libmsvcrt.a(duags00441.o)
                0x0000000068f57868                _lock
 .text          0x0000000068f57870        0x8 C:/mingw64/bin/../lib/gcc/x86_64-w64-mingw32/8.1.0/../../../../x86_64-w64-mingw32/lib/../lib/libmsvcrt.a(duags00083.o)
                0x0000000068f57870                __iob_func
 *fill*         0x0000000068f57878        0x8 
 .text          0x0000000068f57880        0x0 C:/mingw64/bin/../lib/gcc/x86_64-w64-mingw32/8.1.0/../../../../x86_64-w64-mingw32/lib/../lib/libmsvcrt.a(duagt.o)
 .text          0x0000000068f57880        0x8 C:/mingw64/bin/../lib/gcc/x86_64-w64-mingw32/8.1.0/../../../../x86_64-w64-mingw32/lib/../lib/libadvapi32.a(diufs00741.o)
                0x0000000068f57880                SetSecurityInfo
 .text          0x0000000068f57888        0x8 C:/mingw64/bin/../lib/gcc/x86_64-w64-mingw32/8.1.0/../../../../x86_64-w64-mingw32/lib/../lib/libadvapi32.a(diufs00720.o)
                0x0000000068f57888                SetEntriesInAclW
 .text          0x0000000068f57890        0x8 C:/mingw64/bin/../lib/gcc/x86_64-w64-mingw32/8.1.0/../../../../x86_64-w64-mingw32/lib/../lib/libadvapi32.a(diufs00354.o)
                0x0000000068f57890                GetSecurityInfo
 .text          0x0000000068f57898        0x8 C:/mingw64/bin/../lib/gcc/x86_64-w64-mingw32/8.1.0/../../../../x86_64-w64-mingw32/lib/../lib/libadvapi32.a(diufs00146.o)
                0x0000000068f57898                CreateWellKnownSid
 .text          0x0000000068f578a0        0x0 C:/mingw64/bin/../lib/gcc/x86_64-w64-mingw32/8.1.0/../../../../x86_64-w64-mingw32/lib/../lib/libadvapi32.a(diufh.o)
 .text          0x0000000068f578a0        0x0 C:/mingw64/bin/../lib/gcc/x86_64-w64-mingw32/8.1.0/../../../../x86_64-w64-mingw32/lib/../lib/libadvapi32.a(diuft.o)
 .text          0x0000000068f578a0        0x8 C:/mingw64/bin/../lib/gcc/x86_64-w64-mingw32/8.1.0/../../../../x86_64-w64-mingw32/lib/../lib/libuser32.a(dyqes00864.o)
                0x0000000068f578a0                ShowWindow
 .text          0x0000000068f578a8        0x8 C:/mingw64/bin/../lib/gcc/x86_64-w64-mingw32/8.1.0/../../../../x86_64-w64-mingw32/lib/../lib/libuser32.a(dyqes00852.o)
                0x0000000068f578a8                SetWindowTextW
 .text          0x0000000068f578b0        0x8 C:/mingw64/bin/../lib/gcc/x86_64-w64-mingw32/8.1.0/../../../../x86_64-w64-mingw32/lib/../lib/libuser32.a(dyqes00847.o)
                0x0000000068f578b0                SetWindowPos
 .text          0x0000000068f578b8        0x8 C:/mingw64/bin/../lib/gcc/x86_64-w64-mingw32/8.1.0/../../../../x86_64-w64-mingw32/lib/../lib/libuser32.a(dyqes00844.o)
                0x0000000068f578b8                SetWindowLongPtrW
 .text          0x0000000068f578c0        0x8 C:/mingw64/bin/../lib/gcc/x86_64-w64-mingw32/8.1.0/../../../../x86_64-w64-mingw32/lib/../lib/libuser32.a(dyqes00831.o)
                0x0000000068f578c0                SetTimer
 .text          0x0000000068f578c8        0x8 C:/mingw64/bin/../lib/gcc/x86_64-w64-mingw32/8.1.0/../../../../x86_64-w64-mingw32/lib/../lib/libuser32.a(dyqes00778.o)
                0x0000000068f578c8                SetDlgItemTextW
 .text          0x0000000068f578d0        0x8 C:/mingw64/bin/../lib/gcc/x86_64-w64-mingw32/8.1.0/../../../../x86_64-w64-mingw32/lib/../lib/libuser32.a(dyqes00753.o)
                0x0000000068f578d0                SendMessageW
 .text          0x0000000068f578d8        0x8 C:/mingw64/bin/../lib/gcc/x86_64-w64-mingw32/8.1.0/../../../../x86_64-w64-mingw32/lib/../lib/libuser32.a(dyqes00752.o)
                0x0000000068f578d8                SendMessageTimeoutW
 .text          0x0000000068f578e0        0x8 C:/mingw64/bin/../lib/gcc/x86_64-w64-mingw32/8.1.0/../../../../x86_64-w64-mingw32/lib/../lib/libuser32.a(dyqes00744.o)
                0x0000000068f578e0                SendDlgItemMessageW
 .text          0x0000000068f578e8        0x8 C:/mingw64/bin/../lib/gcc/x86_64-w64-mingw32/8.1.0/../../../../x86_64-w64-mingw32/lib/../lib/libuser32.a(dyqes00738.o)
                0x0000000068f578e8                ScreenToClient
 .text          0x0000000068f578f0        0x8 C:/mingw64/bin/../lib/gcc/x86_64-w64-mingw32/8.1.0/../../../../x86_64-w64-mingw32/lib/../lib/libuser32.a(dyqes00654.o)
                0x0000000068f578f0                PostMessageW
 .text          0x0000000068f578f8        0x8 C:/mingw64/bin/../lib/gcc/x86_64-w64-mingw32/8.1.0/../../../../x86_64-w64-mingw32/lib/../lib/libuser32.a(dyqes00623.o)
                0x0000000068f578f8                MonitorFromRect
 .text          0x0000000068f57900        0x8 C:/mingw64/bin/../lib/gcc/x86_64-w64-mingw32/8.1.0/../../../../x86_64-w64-mingw32/lib/../lib/libuser32.a(dyqes00567.o)
                0x0000000068f57900                KillTimer
 .text          0x0000000068f57908        0x8 C:/mingw64/bin/../lib/gcc/x86_64-w64-mingw32/8.1.0/../../../../x86_64-w64-mingw32/lib/../lib/libuser32.a(dyqes00477.o)
                0x0000000068f57908                GetWindowRect
 .text          0x0000000068f57910        0x8 C:/mingw64/bin/../lib/gcc/x86_64-w64-mingw32/8.1.0/../../../../x86_64-w64-mingw32/lib/../lib/libuser32.a(dyqes00476.o)
                0x0000000068f57910                GetWindowPlacement
 .text          0x0000000068f57918        0x8 C:/mingw64/bin/../lib/gcc/x86_64-w64-mingw32/8.1.0/../../../../x86_64-w64-mingw32/lib/../lib/libuser32.a(dyqes00470.o)
                0x0000000068f57918                GetWindowLongPtrW
 .text          0x0000000068f57920        0x8 C:/mingw64/bin/../lib/gcc/x86_64-w64-mingw32/8.1.0/../../../../x86_64-w64-mingw32/lib/../lib/libuser32.a(dyqes00385.o)
                0x0000000068f57920                GetMonitorInfoW
 .text          0x0000000068f57928        0x8 C:/mingw64/bin/../lib/gcc/x86_64-w64-mingw32/8.1.0/../../../../x86_64-w64-mingw32/lib/../lib/libuser32.a(dyqes00326.o)
                0x0000000068f57928                GetDlgItem
 .text          0x0000000068f57930        0x8 C:/mingw64/bin/../lib/gcc/x86_64-w64-mingw32/8.1.0/../../../../x86_64-w64-mingw32/lib/../lib/libuser32.a(dyqes00317.o)
                0x0000000068f57930                GetCursorPos
 .text          0x0000000068f57938        0x8 C:/mingw64/bin/../lib/gcc/x86_64-w64-mingw32/8.1.0/../../../../x86_64-w64-mingw32/lib/../lib/libuser32.a(dyqes00303.o)
                0x0000000068f57938                GetClientRect
 .text          0x0000000068f57940        0x8 C:/mingw64/bin/../lib/gcc/x86_64-w64-mingw32/8.1.0/../../../../x86_64-w64-mingw32/lib/../lib/libuser32.a(dyqes00235.o)
                0x0000000068f57940                EnableWindow
 .text          0x0000000068f57948        0x8 C:/mingw64/bin/../lib/gcc/x86_64-w64-mingw32/8.1.0/../../../../x86_64-w64-mingw32/lib/../lib/libuser32.a(dyqes00176.o)
                0x0000000068f57948                DestroyWindow
 .text          0x0000000068f57950        0x8 C:/mingw64/bin/../lib/gcc/x86_64-w64-mingw32/8.1.0/../../../../x86_64-w64-mingw32/lib/../lib/libuser32.a(dyqes00104.o)
                0x0000000068f57950                CreateDialogParamW
 *fill*         0x0000000068f57958        0x8 
 .text          0x0000000068f57960        0x0 C:/mingw64/bin/../lib/gcc/x86_64-w64-mingw32/8.1.0/../../../../x86_64-w64-mingw32/lib/../lib/libuser32.a(dyqeh.o)
 .text          0x0000000068f57960        0x0 C:/mingw64/bin/../lib/gcc/x86_64-w64-mingw32/8.1.0/../../../../x86_64-w64-mingw32/lib/../lib/libuser32.a(dyqet.o)
 .text          0x0000000068f57960        0x8 C:/mingw64/bin/../lib/gcc/x86_64-w64-mingw32/8.1.0/../../../../x86_64-w64-mingw32/lib/../lib/libkernel32.a(dqifs01516.o)
                0x0000000068f57960                WritePrivateProfileStringW
 .text          0x0000000068f57968        0x8 C:/mingw64/bin/../lib/gcc/x86_64-w64-mingw32/8.1.0/../../../../x86_64-w64-mingw32/lib/../lib/libkernel32.a(dqifs01510.o)
                0x0000000068f57968                WriteFile
 .text          0x0000000068f57970        0x8 C:/mingw64/bin/../lib/gcc/x86_64-w64-mingw32/8.1.0/../../../../x86_64-w64-mingw32/lib/../lib/libkernel32.a(dqifs01490.o)
                0x0000000068f57970                WideCharToMultiByte
 .text          0x0000000068f57978        0x8 C:/mingw64/bin/../lib/gcc/x86_64-w64-mingw32/8.1.0/../../../../x86_64-w64-mingw32/lib/../lib/libkernel32.a(dqifs01453.o)
                0x0000000068f57978                WaitForSingleObject
 .text          0x0000000068f57980        0x8 C:/mingw64/bin/../lib/gcc/x86_64-w64-mingw32/8.1.0/../../../../x86_64-w64-mingw32/lib/../lib/libkernel32.a(dqifs01451.o)
                0x0000000068f57980                WaitForMultipleObjects
 .text          0x0000000068f57988        0x8 C:/mingw64/bin/../lib/gcc/x86_64-w64-mingw32/8.1.0/../../../../x86_64-w64-mingw32/lib/../lib/libkernel32.a(dqifs01445.o)
                0x0000000068f57988                VirtualQuery
 .text          0x0000000068f57990        0x8 C:/mingw64/bin/../lib/gcc/x86_64-w64-mingw32/8.1.0/../../../../x86_64-w64-mingw32/lib/../lib/libkernel32.a(dqifs01443.o)
                0x0000000068f57990                VirtualProtect
 .text          0x0000000068f57998        0x8 C:/mingw64/bin/../lib/gcc/x86_64-w64-mingw32/8.1.0/../../../../x86_64-w64-mingw32/lib/../lib/libkernel32.a(dqifs01409.o)
                0x0000000068f57998                UnhandledExceptionFilter
 .text          0x0000000068f579a0        0x8 C:/mingw64/bin/../lib/gcc/x86_64-w64-mingw32/8.1.0/../../../../x86_64-w64-mingw32/lib/../lib/libkernel32.a(dqifs01396.o)
                0x0000000068f579a0                TlsSetValue
 .text          0x0000000068f579a8        0x8 C:/mingw64/bin/../lib/gcc/x86_64-w64-mingw32/8.1.0/../../../../x86_64-w64-mingw32/lib/../lib/libkernel32.a(dqifs01395.o)
                0x0000000068f579a8                TlsGetValue
 .text          0x0000000068f579b0        0x8 C:/mingw64/bin/../lib/gcc/x86_64-w64-mingw32/8.1.0/../../../../x86_64-w64-mingw32/lib/../lib/libkernel32.a(dqifs01394.o)
                0x0000000068f579b0                TlsFree
 .text          0x0000000068f579b8        0x8 C:/mingw64/bin/../lib/gcc/x86_64-w64-mingw32/8.1.0/../../../../x86_64-w64-mingw32/lib/../lib/libkernel32.a(dqifs01393.o)
                0x0000000068f579b8                TlsAlloc
 .text          0x0000000068f579c0        0x8 C:/mingw64/bin/../lib/gcc/x86_64-w64-mingw32/8.1.0/../../../../x86_64-w64-mingw32/lib/../lib/libkernel32.a(dqifs01375.o)
                0x0000000068f579c0                TerminateProcess
 .text          0x0000000068f579c8        0x8 C:/mingw64/bin/../lib/gcc/x86_64-w64-mingw32/8.1.0/../../../../x86_64-w64-mingw32/lib/../lib/libkernel32.a(dqifs01360.o)
                0x0000000068f579c8                Sleep
 .text          0x0000000068f579d0        0x8 C:/mingw64/bin/../lib/gcc/x86_64-w64-mingw32/8.1.0/../../../../x86_64-w64-mingw32/lib/../lib/libkernel32.a(dqifs01346.o)
                0x0000000068f579d0                SetUnhandledExceptionFilter
 .text          0x0000000068f579d8        0x8 C:/mingw64/bin/../lib/gcc/x86_64-w64-mingw32/8.1.0/../../../../x86_64-w64-mingw32/lib/../lib/libkernel32.a(dqifs01290.o)
                0x0000000068f579d8                SetLastError
 .text          0x0000000068f579e0        0x8 C:/mingw64/bin/../lib/gcc/x86_64-w64-mingw32/8.1.0/../../../../x86_64-w64-mingw32/lib/../lib/libkernel32.a(dqifs01263.o)
                0x0000000068f579e0                SetEvent
 .text          0x0000000068f579e8        0x8 C:/mingw64/bin/../lib/gcc/x86_64-w64-mingw32/8.1.0/../../../../x86_64-w64-mingw32/lib/../lib/libkernel32.a(dqifs01194.o)
                0x0000000068f579e8                RtlVirtualUnwind
 .text          0x0000000068f579f0        0x8 C:/mingw64/bin/../lib/gcc/x86_64-w64-mingw32/8.1.0/../../../../x86_64-w64-mingw32/lib/../lib/libkernel32.a(dqifs01193.o)
                0x0000000068f579f0                RtlUnwindEx
 .text          0x0000000068f579f8        0x8 C:/mingw64/bin/../lib/gcc/x86_64-w64-mingw32/8.1.0/../../../../x86_64-w64-mingw32/lib/../lib/libkernel32.a(dqifs01187.o)
                0x0000000068f579f8                RtlLookupFunctionEntry
 .text          0x0000000068f57a00        0x8 C:/mingw64/bin/../lib/gcc/x86_64-w64-mingw32/8.1.0/../../../../x86_64-w64-mingw32/lib/../lib/libkernel32.a(dqifs01180.o)
                0x0000000068f57a00                RtlCaptureContext
 .text          0x0000000068f57a08        0x8 C:/mingw64/bin/../lib/gcc/x86_64-w64-mingw32/8.1.0/../../../../x86_64-w64-mingw32/lib/../lib/libkernel32.a(dqifs01179.o)
                0x0000000068f57a08                RtlAddFunctionTable
 .text          0x0000000068f57a10        0x8 C:/mingw64/bin/../lib/gcc/x86_64-w64-mingw32/8.1.0/../../../../x86_64-w64-mingw32/lib/../lib/libkernel32.a(dqifs01172.o)
                0x0000000068f57a10                ResetEvent
 .text          0x0000000068f57a18        0x8 C:/mingw64/bin/../lib/gcc/x86_64-w64-mingw32/8.1.0/../../../../x86_64-w64-mingw32/lib/../lib/libkernel32.a(dqifs01154.o)
                0x0000000068f57a18                ReleaseSemaphore
 .text          0x0000000068f57a20        0x8 C:/mingw64/bin/../lib/gcc/x86_64-w64-mingw32/8.1.0/../../../../x86_64-w64-mingw32/lib/../lib/libkernel32.a(dqifs01128.o)
                0x0000000068f57a20                ReadFile
 .text          0x0000000068f57a28        0x8 C:/mingw64/bin/../lib/gcc/x86_64-w64-mingw32/8.1.0/../../../../x86_64-w64-mingw32/lib/../lib/libkernel32.a(dqifs01112.o)
                0x0000000068f57a28                RaiseException
 .text          0x0000000068f57a30        0x8 C:/mingw64/bin/../lib/gcc/x86_64-w64-mingw32/8.1.0/../../../../x86_64-w64-mingw32/lib/../lib/libkernel32.a(dqifs01093.o)
                0x0000000068f57a30                QueryPerformanceCounter
 .text          0x0000000068f57a38        0x8 C:/mingw64/bin/../lib/gcc/x86_64-w64-mingw32/8.1.0/../../../../x86_64-w64-mingw32/lib/../lib/libkernel32.a(dqifs01042.o)
                0x0000000068f57a38                OutputDebugStringW
 .text          0x0000000068f57a40        0x8 C:/mingw64/bin/../lib/gcc/x86_64-w64-mingw32/8.1.0/../../../../x86_64-w64-mingw32/lib/../lib/libkernel32.a(dqifs01020.o)
                0x0000000068f57a40                OpenEventW
 .text          0x0000000068f57a48        0x8 C:/mingw64/bin/../lib/gcc/x86_64-w64-mingw32/8.1.0/../../../../x86_64-w64-mingw32/lib/../lib/libkernel32.a(dqifs00999.o)
                0x0000000068f57a48                MultiByteToWideChar
 .text          0x0000000068f57a50        0x8 C:/mingw64/bin/../lib/gcc/x86_64-w64-mingw32/8.1.0/../../../../x86_64-w64-mingw32/lib/../lib/libkernel32.a(dqifs00967.o)
                0x0000000068f57a50                LocalFree
 .text          0x0000000068f57a58        0x8 C:/mingw64/bin/../lib/gcc/x86_64-w64-mingw32/8.1.0/../../../../x86_64-w64-mingw32/lib/../lib/libkernel32.a(dqifs00951.o)
                0x0000000068f57a58                LeaveCriticalSection
 .text          0x0000000068f57a60        0x8 C:/mingw64/bin/../lib/gcc/x86_64-w64-mingw32/8.1.0/../../../../x86_64-w64-mingw32/lib/../lib/libkernel32.a(dqifs00863.o)
                0x0000000068f57a60                InitializeCriticalSection
 .text          0x0000000068f57a68        0x8 C:/mingw64/bin/../lib/gcc/x86_64-w64-mingw32/8.1.0/../../../../x86_64-w64-mingw32/lib/../lib/libkernel32.a(dqifs00801.o)
                0x0000000068f57a68                GetVolumePathNameW
 .text          0x0000000068f57a70        0x8 C:/mingw64/bin/../lib/gcc/x86_64-w64-mingw32/8.1.0/../../../../x86_64-w64-mingw32/lib/../lib/libkernel32.a(dqifs00799.o)
                0x0000000068f57a70                GetVolumeNameForVolumeMountPointW
 .text          0x0000000068f57a78        0x8 C:/mingw64/bin/../lib/gcc/x86_64-w64-mingw32/8.1.0/../../../../x86_64-w64-mingw32/lib/../lib/libkernel32.a(dqifs00774.o)
                0x0000000068f57a78                GetTickCount
 .text          0x0000000068f57a80        0x8 C:/mingw64/bin/../lib/gcc/x86_64-w64-mingw32/8.1.0/../../../../x86_64-w64-mingw32/lib/../lib/libkernel32.a(dqifs00746.o)
                0x0000000068f57a80                GetSystemTimeAsFileTime
 .text          0x0000000068f57a88        0x8 C:/mingw64/bin/../lib/gcc/x86_64-w64-mingw32/8.1.0/../../../../x86_64-w64-mingw32/lib/../lib/libkernel32.a(dqifs00689.o)
                0x0000000068f57a88                GetProcAddress
 .text          0x0000000068f57a90        0x8 C:/mingw64/bin/../lib/gcc/x86_64-w64-mingw32/8.1.0/../../../../x86_64-w64-mingw32/lib/../lib/libkernel32.a(dqifs00686.o)
                0x0000000068f57a90                GetPrivateProfileStringW
 .text          0x0000000068f57a98        0x8 C:/mingw64/bin/../lib/gcc/x86_64-w64-mingw32/8.1.0/../../../../x86_64-w64-mingw32/lib/../lib/libkernel32.a(dqifs00680.o)
                0x0000000068f57a98                GetPrivateProfileIntW
 .text          0x0000000068f57aa0        0x8 C:/mingw64/bin/../lib/gcc/x86_64-w64-mingw32/8.1.0/../../../../x86_64-w64-mingw32/lib/../lib/libkernel32.a(dqifs00633.o)
                0x0000000068f57aa0                GetModuleHandleW
 .text          0x0000000068f57aa8        0x8 C:/mingw64/bin/../lib/gcc/x86_64-w64-mingw32/8.1.0/../../../../x86_64-w64-mingw32/lib/../lib/libkernel32.a(dqifs00629.o)
                0x0000000068f57aa8                GetModuleFileNameW
 .text          0x0000000068f57ab0        0x8 C:/mingw64/bin/../lib/gcc/x86_64-w64-mingw32/8.1.0/../../../../x86_64-w64-mingw32/lib/../lib/libkernel32.a(dqifs00609.o)
                0x0000000068f57ab0                GetLastError
 .text          0x0000000068f57ab8        0x8 C:/mingw64/bin/../lib/gcc/x86_64-w64-mingw32/8.1.0/../../../../x86_64-w64-mingw32/lib/../lib/libkernel32.a(dqifs00583.o)
                0x0000000068f57ab8                GetFileAttributesW
 .text          0x0000000068f57ac0        0x8 C:/mingw64/bin/../lib/gcc/x86_64-w64-mingw32/8.1.0/../../../../x86_64-w64-mingw32/lib/../lib/libkernel32.a(dqifs00554.o)
                0x0000000068f57ac0                GetDiskFreeSpaceExW
 .text          0x0000000068f57ac8        0x8 C:/mingw64/bin/../lib/gcc/x86_64-w64-mingw32/8.1.0/../../../../x86_64-w64-mingw32/lib/../lib/libkernel32.a(dqifs00540.o)
                0x0000000068f57ac8                GetCurrentThreadId
 .text          0x0000000068f57ad0        0x8 C:/mingw64/bin/../lib/gcc/x86_64-w64-mingw32/8.1.0/../../../../x86_64-w64-mingw32/lib/../lib/libkernel32.a(dqifs00536.o)
                0x0000000068f57ad0                GetCurrentProcessId
 .text          0x0000000068f57ad8        0x8 C:/mingw64/bin/../lib/gcc/x86_64-w64-mingw32/8.1.0/../../../../x86_64-w64-mingw32/lib/../lib/libkernel32.a(dqifs00535.o)
                0x0000000068f57ad8                GetCurrentProcess
 .text          0x0000000068f57ae0        0x8 C:/mingw64/bin/../lib/gcc/x86_64-w64-mingw32/8.1.0/../../../../x86_64-w64-mingw32/lib/../lib/libkernel32.a(dqifs00415.o)
                0x0000000068f57ae0                FlushFileBuffers
 .text          0x0000000068f57ae8        0x8 C:/mingw64/bin/../lib/gcc/x86_64-w64-mingw32/8.1.0/../../../../x86_64-w64-mingw32/lib/../lib/libkernel32.a(dqifs00396.o)
                0x0000000068f57ae8                FindNextFileW
 .text          0x0000000068f57af0        0x8 C:/mingw64/bin/../lib/gcc/x86_64-w64-mingw32/8.1.0/../../../../x86_64-w64-mingw32/lib/../lib/libkernel32.a(dqifs00384.o)
                0x0000000068f57af0                FindFirstFileW
 .text          0x0000000068f57af8        0x8 C:/mingw64/bin/../lib/gcc/x86_64-w64-mingw32/8.1.0/../../../../x86_64-w64-mingw32/lib/../lib/libkernel32.a(dqifs00373.o)
                0x0000000068f57af8                FindClose
 .text          0x0000000068f57b00        0x8 C:/mingw64/bin/../lib/gcc/x86_64-w64-mingw32/8.1.0/../../../../x86_64-w64-mingw32/lib/../lib/libkernel32.a(dqifs00304.o)
                0x0000000068f57b00                EnterCriticalSection
 .text          0x0000000068f57b08        0x8 C:/mingw64/bin/../lib/gcc/x86_64-w64-mingw32/8.1.0/../../../../x86_64-w64-mingw32/lib/../lib/libkernel32.a(dqifs00289.o)
                0x0000000068f57b08                DisconnectNamedPipe
 .text          0x0000000068f57b10        0x8 C:/mingw64/bin/../lib/gcc/x86_64-w64-mingw32/8.1.0/../../../../x86_64-w64-mingw32/lib/../lib/libkernel32.a(dqifs00268.o)
                0x0000000068f57b10                DeleteCriticalSection
 .text          0x0000000068f57b18        0x8 C:/mingw64/bin/../lib/gcc/x86_64-w64-mingw32/8.1.0/../../../../x86_64-w64-mingw32/lib/../lib/libkernel32.a(dqifs00231.o)
                0x0000000068f57b18                CreateSemaphoreW
 .text          0x0000000068f57b20        0x8 C:/mingw64/bin/../lib/gcc/x86_64-w64-mingw32/8.1.0/../../../../x86_64-w64-mingw32/lib/../lib/libkernel32.a(dqifs00216.o)
                0x0000000068f57b20                CreateNamedPipeW
 .text          0x0000000068f57b28        0x8 C:/mingw64/bin/../lib/gcc/x86_64-w64-mingw32/8.1.0/../../../../x86_64-w64-mingw32/lib/../lib/libkernel32.a(dqifs00199.o)
                0x0000000068f57b28                CreateFileW
 .text          0x0000000068f57b30        0x8 C:/mingw64/bin/../lib/gcc/x86_64-w64-mingw32/8.1.0/../../../../x86_64-w64-mingw32/lib/../lib/libkernel32.a(dqifs00187.o)
                0x0000000068f57b30                CreateEventW
 .text          0x0000000068f57b38        0x8 C:/mingw64/bin/../lib/gcc/x86_64-w64-mingw32/8.1.0/../../../../x86_64-w64-mingw32/lib/../lib/libkernel32.a(dqifs00183.o)
                0x0000000068f57b38                CreateDirectoryW
 .text          0x0000000068f57b40        0x8 C:/mingw64/bin/../lib/gcc/x86_64-w64-mingw32/8.1.0/../../../../x86_64-w64-mingw32/lib/../lib/libkernel32.a(dqifs00151.o)
                0x0000000068f57b40                ConnectNamedPipe
 .text          0x0000000068f57b48        0x8 C:/mingw64/bin/../lib/gcc/x86_64-w64-mingw32/8.1.0/../../../../x86_64-w64-mingw32/lib/../lib/libkernel32.a(dqifs00130.o)
                0x0000000068f57b48                CloseHandle
 .text          0x0000000068f57b50        0x8 C:/mingw64/bin/../lib/gcc/x86_64-w64-mingw32/8.1.0/../../../../x86_64-w64-mingw32/lib/../lib/libkernel32.a(dqifs00109.o)
                0x0000000068f57b50                CancelIo
 *fill*         0x0000000068f57b58        0x8 
 .text          0x0000000068f57b60        0x0 C:/mingw64/bin/../lib/gcc/x86_64-w64-mingw32/8.1.0/../../../../x86_64-w64-mingw32/lib/../lib/libkernel32.a(dqifh.o)
 .text          0x0000000068f57b60        0x0 C:/mingw64/bin/../lib/gcc/x86_64-w64-mingw32/8.1.0/../../../../x86_64-w64-mingw32/lib/../lib/libkernel32.a(dqift.o)
 .text          0x0000000068f57b60       0x30 C:/mingw64/bin/../lib/gcc/x86_64-w64-mingw32/8.1.0/../../../../x86_64-w64-mingw32/lib/../lib/libmingw32.a(lib64_libmingw32_a-tlsmthread.o)
                0x0000000068f57b60                __mingwthr_remove_key_dtor
                0x0000000068f57b70                __mingwthr_key_dtor
 .text          0x0000000068f57b90       0x10 C:/mingw64/bin/../lib/gcc/x86_64-w64-mingw32/8.1.0/../../../../x86_64-w64-mingw32/lib/../lib/libmingwex.a(lib64_libmingwex_a-vsnprintf.o)
                0x0000000068f57b90                __ms_vsnprintf
 .text          0x0000000068f57ba0        0x8 C:/mingw64/bin/../lib/gcc/x86_64-w64-mingw32/8.1.0/../../../../x86_64-w64-mingw32/lib/../lib/libmsvcrt.a(duags00852.o)
                0x0000000068f57ba0                _vsnprintf
 *fill*         0x0000000068f57ba8        0x8 
 .text          0x0000000068f57bb0        0x0 C:/mingw64/bin/../lib/gcc/x86_64-w64-mingw32/8.1.0/crtend.o
 *(SORT_BY_NAME(.text$*))
 .text$_Z10swprintf_sILy32EEiRAT__wPKwz
                0x0000000068f57bb0       0x30 Common__CtrlCmdUtil.cpp.obj
                0x0000000068f57bb0                int swprintf_s<32ull>(wchar_t (&) [32ull], wchar_t const*, ...)
 .text$_Z26AddDebugLogFormatNoNewlinePKwz
                0x0000000068f57be0       0x70 Common__PipeServer.cpp.obj
                0x0000000068f57be0                AddDebugLogFormatNoNewline(wchar_t const*, ...)
 .text$_Z9sprintf_sILy16EEiRAT__cPKcz
                0x0000000068f57c50       0x30 Common__SendCtrlCmd.cpp.obj
                0x0000000068f57c50                int sprintf_s<16ull>(char (&) [16ull], char const*, ...)
 .text$_ZGTtNKSt13bad_exceptionD1Ev
                0x0000000068f57c80       0x10 C:/mingw64/bin/../lib/gcc/x86_64-w64-mingw32/8.1.0\libstdc++.a(eh_exception.o)
                0x0000000068f57c80                transaction clone for std::bad_exception::~bad_exception() const
 .text$_ZGTtNKSt9exceptionD1Ev
                0x0000000068f57c90       0x10 C:/mingw64/bin/../lib/gcc/x86_64-w64-mingw32/8.1.0\libstdc++.a(eh_exception.o)
                0x0000000068f57c90                transaction clone for std::exception::~exception() const
 .text$_ZL15get_ttype_entryP16lsda_header_infoy
                0x0000000068f57ca0       0x90 C:/mingw64/bin/../lib/gcc/x86_64-w64-mingw32/8.1.0\libstdc++.a(eh_personality.o)
 .text$_ZL16get_adjusted_ptrPKSt9type_infoS1_PPv
                0x0000000068f57d30       0x60 C:/mingw64/bin/../lib/gcc/x86_64-w64-mingw32/8.1.0\libstdc++.a(eh_personality.o)
 .text$_ZL17parse_lsda_headerP15_Unwind_ContextPKhP16lsda_header_info
                0x0000000068f57d90       0xf0 C:/mingw64/bin/../lib/gcc/x86_64-w64-mingw32/8.1.0\libstdc++.a(eh_personality.o)
 .text$_ZL20check_exception_specP16lsda_header_infoPKSt9type_infoPvx
                0x0000000068f57e80       0x80 C:/mingw64/bin/../lib/gcc/x86_64-w64-mingw32/8.1.0\libstdc++.a(eh_personality.o)
 .text$_ZL21base_of_encoded_valuehP15_Unwind_Context
                0x0000000068f57f00       0x70 C:/mingw64/bin/../lib/gcc/x86_64-w64-mingw32/8.1.0\libstdc++.a(eh_personality.o)
 .text$_ZL23__gxx_exception_cleanup19_Unwind_Reason_CodeP17_Unwind_Exception
                0x0000000068f57f70       0x40 C:/mingw64/bin/../lib/gcc/x86_64-w64-mingw32/8.1.0\libstdc++.a(eh_throw.o)
 .text$_ZL28read_encoded_value_with_basehyPKhPy
                0x0000000068f57fb0      0x160 C:/mingw64/bin/../lib/gcc/x86_64-w64-mingw32/8.1.0\libstdc++.a(eh_personality.o)
 .text$_ZN10CCmdStreamaSEOS_
                0x0000000068f58110       0x90 EpgTimerPlugIn.cpp.obj
                0x0000000068f58110                CCmdStream::operator=(CCmdStream&&)
 .text$_ZN10__cxxabiv111__terminateEPFvvE
                0x0000000068f581a0       0x40 C:/mingw64/bin/../lib/gcc/x86_64-w64-mingw32/8.1.0\libstdc++.a(eh_terminate.o)
                0x0000000068f581a0                __cxxabiv1::__terminate(void (*)())
 .text$_ZN10__cxxabiv112__unexpectedEPFvvE
                0x0000000068f581e0       0x10 C:/mingw64/bin/../lib/gcc/x86_64-w64-mingw32/8.1.0\libstdc++.a(eh_terminate.o)
                0x0000000068f581e0                __cxxabiv1::__unexpected(void (*)())
 .text$_ZN10__cxxabiv115__forced_unwindD0Ev
                0x0000000068f581f0       0x10 C:/mingw64/bin/../lib/gcc/x86_64-w64-mingw32/8.1.0\libstdc++.a(eh_exception.o)
                0x0000000068f581f0                __cxxabiv1::__forced_unwind::~__forced_unwind()
 .text$_ZN10__cxxabiv115__forced_unwindD2Ev
                0x0000000068f58200       0x10 C:/mingw64/bin/../lib/gcc/x86_64-w64-mingw32/8.1.0\libstdc++.a(eh_exception.o)
                0x0000000068f58200                __cxxabiv1::__forced_unwind::~__forced_unwind()
                0x0000000068f58200                __cxxabiv1::__forced_unwind::~__forced_unwind()
 .text$_ZN10__cxxabiv117__class_type_infoD0Ev
                0x0000000068f58210       0x30 C:/mingw64/bin/../lib/gcc/x86_64-w64-mingw32/8.1.0\libstdc++.a(class_type_info.o)
                0x0000000068f58210                __cxxabiv1::__class_type_info::~__class_type_info()
 .text$_ZN10__cxxabiv117__class_type_infoD2Ev
                0x0000000068f58240       0x10 C:/mingw64/bin/../lib/gcc/x86_64-w64-mingw32/8.1.0\libstdc++.a(class_type_info.o)
                0x0000000068f58240                __cxxabiv1::__class_type_info::~__class_type_info()
                0x0000000068f58240                __cxxabiv1::__class_type_info::~__class_type_info()
 .text$_ZN10__cxxabiv119__foreign_exceptionD0Ev
                0x0000000068f58250       0x10 C:/mingw64/bin/../lib/gcc/x86_64-w64-mingw32/8.1.0\libstdc++.a(eh_exception.o)
                0x0000000068f58250                __cxxabiv1::__foreign_exception::~__foreign_exception()
 .text$_ZN10__cxxabiv119__foreign_exceptionD2Ev
                0x0000000068f58260       0x10 C:/mingw64/bin/../lib/gcc/x86_64-w64-mingw32/8.1.0\libstdc++.a(eh_exception.o)
                0x0000000068f58260                __cxxabiv1::__foreign_exception::~__foreign_exception()
                0x0000000068f58260                __cxxabiv1::__foreign_exception::~__foreign_exception()
 .text$_ZN10__cxxabiv120__si_class_type_infoD0Ev
                0x0000000068f58270       0x30 C:/mingw64/bin/../lib/gcc/x86_64-w64-mingw32/8.1.0\libstdc++.a(si_class_type_info.o)
                0x0000000068f58270                __cxxabiv1::__si_class_type_info::~__si_class_type_info()
 .text$_ZN10__cxxabiv120__si_class_type_infoD2Ev
                0x0000000068f582a0       0x10 C:/mingw64/bin/../lib/gcc/x86_64-w64-mingw32/8.1.0\libstdc++.a(si_class_type_info.o)
                0x0000000068f582a0                __cxxabiv1::__si_class_type_info::~__si_class_type_info()
                0x0000000068f582a0                __cxxabiv1::__si_class_type_info::~__si_class_type_info()
 .text$_ZN10__cxxabiv1L21__gxx_personality_impEiiyP17_Unwind_ExceptionP15_Unwind_Context
                0x0000000068f582b0      0x5b0 C:/mingw64/bin/../lib/gcc/x86_64-w64-mingw32/8.1.0\libstdc++.a(eh_personality.o)
 .text$_ZN12CSendCtrlCmd11SendCmdDataI14NWPLAY_POS_CMDEEmmRKT_P10CCmdStream
                0x0000000068f58860       0xc0 StreamCtrlDlg.cpp.obj
                0x0000000068f58860                unsigned long CSendCtrlCmd::SendCmdData<NWPLAY_POS_CMD>(unsigned long, NWPLAY_POS_CMD const&, CCmdStream*)
 .text$_ZN12CSendCtrlCmd11SendCmdDataImEEmmRKT_P10CCmdStream
                0x0000000068f58920       0xb0 StreamCtrlDlg.cpp.obj
                0x0000000068f58920                unsigned long CSendCtrlCmd::SendCmdData<unsigned long>(unsigned long, unsigned long const&, CCmdStream*)
 .text$_ZN12CSendCtrlCmd14SendNwPlayStopEm
                0x0000000068f589d0       0x20 StreamCtrlDlg.cpp.obj
                0x0000000068f589d0                CSendCtrlCmd::SendNwPlayStop(unsigned long)
 .text$_ZN12CSendCtrlCmd15SendNwPlayStartEm
                0x0000000068f589f0       0x20 StreamCtrlDlg.cpp.obj
                0x0000000068f589f0                CSendCtrlCmd::SendNwPlayStart(unsigned long)
 .text$_ZN12CSendCtrlCmd16SendNwPlayGetPosEP14NWPLAY_POS_CMD
                0x0000000068f58a10       0xc0 StreamCtrlDlg.cpp.obj
                0x0000000068f58a10                CSendCtrlCmd::SendNwPlayGetPos(NWPLAY_POS_CMD*)
 .text$_ZN12CSendCtrlCmd21SendAndReceiveCmdDataI16NWPLAY_PLAY_INFOS1_EEmmRKT_PT0_
                0x0000000068f58ad0      0x150 StreamCtrlDlg.cpp.obj
                0x0000000068f58ad0                unsigned long CSendCtrlCmd::SendAndReceiveCmdData<NWPLAY_PLAY_INFO, NWPLAY_PLAY_INFO>(unsigned long, NWPLAY_PLAY_INFO const&, NWPLAY_PLAY_INFO*)
 .text$_ZN12_GLOBAL__N_14pool4freeEPv.constprop.2
                0x0000000068f58c20      0x170 C:/mingw64/bin/../lib/gcc/x86_64-w64-mingw32/8.1.0\libstdc++.a(eh_alloc.o)
 .text$_ZN12_GLOBAL__N_14pool8allocateEy.constprop.3
                0x0000000068f58d90      0x150 C:/mingw64/bin/../lib/gcc/x86_64-w64-mingw32/8.1.0\libstdc++.a(eh_alloc.o)
 .text$_ZN15CEpgTimerPlugInD0Ev
                0x0000000068f58ee0       0x20 EpgTimerPlugIn.cpp.obj
                0x0000000068f58ee0                CEpgTimerPlugIn::~CEpgTimerPlugIn()
 .text$_ZN15CEpgTimerPlugInD1Ev
                0x0000000068f58f00       0x10 EpgTimerPlugIn.cpp.obj
                0x0000000068f58f00                CEpgTimerPlugIn::~CEpgTimerPlugIn()
 .text$_ZN15CEpgTimerPlugInD4Ev
                0x0000000068f58f10       0x70 EpgTimerPlugIn.cpp.obj
 .text$_ZN16CtrlCmdUtilImpl_23CCUTIL_ReadVectorVALUE_I11EPG_CONTENTEEbtPPKhS3_PSt6vectorIT_SaIS6_EE
                0x0000000068f58f80      0x1e0 Common__CtrlCmdUtil.cpp.obj
                0x0000000068f58f80                bool CtrlCmdUtilImpl_::CCUTIL_ReadVectorVALUE_<EPG_CONTENT>(unsigned short, unsigned char const**, unsigned char const*, std::vector<EPG_CONTENT, std::allocator<EPG_CONTENT> >*)
 .text$_ZN16CtrlCmdUtilImpl_23CCUTIL_ReadVectorVALUE_I14EPG_EVENT_DATAEEbtPPKhS3_PSt6vectorIT_SaIS6_EE
                0x0000000068f59160      0x1e0 Common__CtrlCmdUtil.cpp.obj
                0x0000000068f59160                bool CtrlCmdUtilImpl_::CCUTIL_ReadVectorVALUE_<EPG_EVENT_DATA>(unsigned short, unsigned char const**, unsigned char const*, std::vector<EPG_EVENT_DATA, std::allocator<EPG_EVENT_DATA> >*)
 .text$_ZN16CtrlCmdUtilImpl_23CCUTIL_ReadVectorVALUE_I16EPGDB_EVENT_INFOEEbtPPKhS3_PSt6vectorIT_SaIS6_EE
                0x0000000068f59340      0x220 Common__CtrlCmdUtil.cpp.obj
                0x0000000068f59340                bool CtrlCmdUtilImpl_::CCUTIL_ReadVectorVALUE_<EPGDB_EVENT_INFO>(unsigned short, unsigned char const**, unsigned char const*, std::vector<EPGDB_EVENT_INFO, std::allocator<EPGDB_EVENT_INFO> >*)
 .text$_ZN16CtrlCmdUtilImpl_23CCUTIL_ReadVectorVALUE_I17REC_FILE_SET_INFOEEbtPPKhS3_PSt6vectorIT_SaIS6_EE
                0x0000000068f59560      0x230 Common__CtrlCmdUtil.cpp.obj
                0x0000000068f59560                bool CtrlCmdUtilImpl_::CCUTIL_ReadVectorVALUE_<REC_FILE_SET_INFO>(unsigned short, unsigned char const**, unsigned char const*, std::vector<REC_FILE_SET_INFO, std::allocator<REC_FILE_SET_INFO> >*)
 .text$_ZN16CtrlCmdUtilImpl_23CCUTIL_ReadVectorVALUE_I21EPGDB_SEARCH_KEY_INFOEEbtPPKhS3_PSt6vectorIT_SaIS6_EE
                0x0000000068f59790      0x220 Common__CtrlCmdUtil.cpp.obj
                0x0000000068f59790                bool CtrlCmdUtilImpl_::CCUTIL_ReadVectorVALUE_<EPGDB_SEARCH_KEY_INFO>(unsigned short, unsigned char const**, unsigned char const*, std::vector<EPGDB_SEARCH_KEY_INFO, std::allocator<EPGDB_SEARCH_KEY_INFO> >*)
 .text$_ZN16CtrlCmdUtilImpl_23CCUTIL_ReadVectorVALUE_I22EPGDB_SEARCH_DATE_INFOEEbtPPKhS3_PSt6vectorIT_SaIS6_EE
                0x0000000068f599b0      0x200 Common__CtrlCmdUtil.cpp.obj
                0x0000000068f599b0                bool CtrlCmdUtilImpl_::CCUTIL_ReadVectorVALUE_<EPGDB_SEARCH_DATE_INFO>(unsigned short, unsigned char const**, unsigned char const*, std::vector<EPGDB_SEARCH_DATE_INFO, std::allocator<EPGDB_SEARCH_DATE_INFO> >*)
 .text$_ZN16CtrlCmdUtilImpl_23CCUTIL_ReadVectorVALUE_I31EPGDB_AUDIO_COMPONENT_INFO_DATAEEbtPPKhS3_PSt6vectorIT_SaIS6_EE
                0x0000000068f59bb0      0x230 Common__CtrlCmdUtil.cpp.obj
                0x0000000068f59bb0                bool CtrlCmdUtilImpl_::CCUTIL_ReadVectorVALUE_<EPGDB_AUDIO_COMPONENT_INFO_DATA>(unsigned short, unsigned char const**, unsigned char const*, std::vector<EPGDB_AUDIO_COMPONENT_INFO_DATA, std::allocator<EPGDB_AUDIO_COMPONENT_INFO_DATA> >*)
 .text$_ZN16CtrlCmdUtilImpl_23CCUTIL_ReadVectorVALUE_INSt7__cxx1112basic_stringIwSt11char_traitsIwESaIwEEEEEbtPPKhS8_PSt6vectorIT_SaISB_EE
                0x0000000068f59de0      0x1f0 Common__CtrlCmdUtil.cpp.obj
                0x0000000068f59de0                bool CtrlCmdUtilImpl_::CCUTIL_ReadVectorVALUE_<std::__cxx11::basic_string<wchar_t, std::char_traits<wchar_t>, std::allocator<wchar_t> > >(unsigned short, unsigned char const**, unsigned char const*, std::vector<std::__cxx11::basic_string<wchar_t, std::char_traits<wchar_t>, std::allocator<wchar_t> >, std::allocator<std::__cxx11::basic_string<wchar_t, std::char_traits<wchar_t>, std::allocator<wchar_t> > > >*)
 .text$_ZN16CtrlCmdUtilImpl_23CCUTIL_ReadVectorVALUE_ItEEbtPPKhS2_PSt6vectorIT_SaIS5_EE
                0x0000000068f59fd0      0x1e0 Common__CtrlCmdUtil.cpp.obj
                0x0000000068f59fd0                bool CtrlCmdUtilImpl_::CCUTIL_ReadVectorVALUE_<unsigned short>(unsigned short, unsigned char const**, unsigned char const*, std::vector<unsigned short, std::allocator<unsigned short> >*)
 .text$_ZN16CtrlCmdUtilImpl_23CCUTIL_ReadVectorVALUE_IxEEbtPPKhS2_PSt6vectorIT_SaIS5_EE
                0x0000000068f5a1b0      0x1e0 Common__CtrlCmdUtil.cpp.obj
                0x0000000068f5a1b0                bool CtrlCmdUtilImpl_::CCUTIL_ReadVectorVALUE_<long long>(unsigned short, unsigned char const**, unsigned char const*, std::vector<long long, std::allocator<long long> >*)
 .text$_ZN16CtrlCmdUtilImpl_24CCUTIL_WriteVectorVALUE_I11EPG_CONTENTEEmtPhmRKSt6vectorIT_SaIS4_EE
                0x0000000068f5a390       0x80 Common__CtrlCmdUtil.cpp.obj
                0x0000000068f5a390                unsigned long CtrlCmdUtilImpl_::CCUTIL_WriteVectorVALUE_<EPG_CONTENT>(unsigned short, unsigned char*, unsigned long, std::vector<EPG_CONTENT, std::allocator<EPG_CONTENT> > const&)
 .text$_ZN16CtrlCmdUtilImpl_24CCUTIL_WriteVectorVALUE_I17REC_FILE_SET_INFOEEmtPhmRKSt6vectorIT_SaIS4_EE
                0x0000000068f5a410       0x80 Common__CtrlCmdUtil.cpp.obj
                0x0000000068f5a410                unsigned long CtrlCmdUtilImpl_::CCUTIL_WriteVectorVALUE_<REC_FILE_SET_INFO>(unsigned short, unsigned char*, unsigned long, std::vector<REC_FILE_SET_INFO, std::allocator<REC_FILE_SET_INFO> > const&)
 .text$_ZN16CtrlCmdUtilImpl_24CCUTIL_WriteVectorVALUE_ItEEmtPhmRKSt6vectorIT_SaIS3_EE
                0x0000000068f5a490       0x60 Common__CtrlCmdUtil.cpp.obj
                0x0000000068f5a490                unsigned long CtrlCmdUtilImpl_::CCUTIL_WriteVectorVALUE_<unsigned short>(unsigned short, unsigned char*, unsigned long, std::vector<unsigned short, std::allocator<unsigned short> > const&)
 .text$_ZN16CtrlCmdUtilImpl_9ReadVALUEEtPPKhS1_P11_SYSTEMTIME
                0x0000000068f5a4f0       0x20 Common__CtrlCmdUtil.cpp.obj
                0x0000000068f5a4f0                CtrlCmdUtilImpl_::ReadVALUE(unsigned short, unsigned char const**, unsigned char const*, _SYSTEMTIME*)
 .text$_ZN16EPGDB_EVENT_INFOC4EOS_
                0x0000000068f5a510      0x2b0 Common__CtrlCmdUtil.cpp.obj
 .text$_ZN17REC_FILE_SET_INFOC4EOS_
                0x0000000068f5a7c0       0x40 Common__CtrlCmdUtil.cpp.obj
 .text$_ZN17REC_FILE_SET_INFOC4ERKS_
                0x0000000068f5a800       0x80 Common__CtrlCmdUtil.cpp.obj
 .text$_ZN21EPGDB_SEARCH_KEY_INFOC4EOS_
                0x0000000068f5a880      0x270 Common__CtrlCmdUtil.cpp.obj
 .text$_ZN6TVTest10CTVTestApp10SetChannelEiit
                0x0000000068f5aaf0       0x30 EpgTimerPlugIn.cpp.obj
                0x0000000068f5aaf0                TVTest::CTVTestApp::SetChannel(int, int, unsigned short)
 .text$_ZN6TVTest10CTVTestApp13SetDriverNameEPKw
                0x0000000068f5ab20       0x30 EpgTimerPlugIn.cpp.obj
                0x0000000068f5ab20                TVTest::CTVTestApp::SetDriverName(wchar_t const*)
 .text$_ZN6TVTest10CTVTestAppD0Ev
                0x0000000068f5ab50       0x10 EpgTimerPlugIn.cpp.obj
                0x0000000068f5ab50                TVTest::CTVTestApp::~CTVTestApp()
 .text$_ZN6TVTest10CTVTestAppD1Ev
                0x0000000068f5ab60       0x10 EpgTimerPlugIn.cpp.obj
                0x0000000068f5ab60                TVTest::CTVTestApp::~CTVTestApp()
 .text$_ZN6TVTest13CTVTestPlugin10GetVersionEv
                0x0000000068f5ab70       0x10 EpgTimerPlugIn.cpp.obj
                0x0000000068f5ab70                TVTest::CTVTestPlugin::GetVersion()
 .text$_ZN6TVTest13CTVTestPlugin10InitializeEv
                0x0000000068f5ab80       0x10 EpgTimerPlugIn.cpp.obj
                0x0000000068f5ab80                TVTest::CTVTestPlugin::Initialize()
 .text$_ZN6TVTest13CTVTestPlugin8FinalizeEv
                0x0000000068f5ab90       0x10 EpgTimerPlugIn.cpp.obj
                0x0000000068f5ab90                TVTest::CTVTestPlugin::Finalize()
 .text$_ZN6TVTest13CTVTestPluginD4Ev
                0x0000000068f5aba0       0x20 EpgTimerPlugIn.cpp.obj
 .text$_ZN9__gnu_cxx15__concat_size_tEPcyy
                0x0000000068f5abc0       0x90 C:/mingw64/bin/../lib/gcc/x86_64-w64-mingw32/8.1.0\libstdc++.a(snprintf_lite.o)
                0x0000000068f5abc0                __gnu_cxx::__concat_size_t(char*, unsigned long long, unsigned long long)
 .text$_ZN9__gnu_cxx15__snprintf_liteEPcyPKcS0_
                0x0000000068f5ac50      0x100 C:/mingw64/bin/../lib/gcc/x86_64-w64-mingw32/8.1.0\libstdc++.a(snprintf_lite.o)
                0x0000000068f5ac50                __gnu_cxx::__snprintf_lite(char*, unsigned long long, char const*, char*)
 .text$_ZN9__gnu_cxx24__concurrence_lock_errorD0Ev
                0x0000000068f5ad50       0x30 C:/mingw64/bin/../lib/gcc/x86_64-w64-mingw32/8.1.0\libstdc++.a(eh_alloc.o)
                0x0000000068f5ad50                __gnu_cxx::__concurrence_lock_error::~__concurrence_lock_error()
 .text$_ZN9__gnu_cxx24__concurrence_lock_errorD1Ev
                0x0000000068f5ad80       0x10 C:/mingw64/bin/../lib/gcc/x86_64-w64-mingw32/8.1.0\libstdc++.a(eh_alloc.o)
                0x0000000068f5ad80                __gnu_cxx::__concurrence_lock_error::~__concurrence_lock_error()
 .text$_ZN9__gnu_cxx26__concurrence_unlock_errorD0Ev
                0x0000000068f5ad90       0x30 C:/mingw64/bin/../lib/gcc/x86_64-w64-mingw32/8.1.0\libstdc++.a(eh_alloc.o)
                0x0000000068f5ad90                __gnu_cxx::__concurrence_unlock_error::~__concurrence_unlock_error()
 .text$_ZN9__gnu_cxx26__concurrence_unlock_errorD1Ev
                0x0000000068f5adc0       0x10 C:/mingw64/bin/../lib/gcc/x86_64-w64-mingw32/8.1.0\libstdc++.a(eh_alloc.o)
                0x0000000068f5adc0                __gnu_cxx::__concurrence_unlock_error::~__concurrence_unlock_error()
 .text$_ZN9__gnu_cxx26__throw_insufficient_spaceEPKcS1_
                0x0000000068f5add0      0x170 C:/mingw64/bin/../lib/gcc/x86_64-w64-mingw32/8.1.0\libstdc++.a(snprintf_lite.o)
                0x0000000068f5add0                __gnu_cxx::__throw_insufficient_space(char const*, char const*)
 .text$_ZN9__gnu_cxx27__verbose_terminate_handlerEv
                0x0000000068f5af40      0x1c0 C:/mingw64/bin/../lib/gcc/x86_64-w64-mingw32/8.1.0\libstdc++.a(vterminate.o)
                0x0000000068f5af40                __gnu_cxx::__verbose_terminate_handler()
 .text$_ZN9__gnu_cxx30__throw_concurrence_lock_errorEv
                0x0000000068f5b100       0x30 C:/mingw64/bin/../lib/gcc/x86_64-w64-mingw32/8.1.0\libstdc++.a(eh_alloc.o)
                0x0000000068f5b100                __gnu_cxx::__throw_concurrence_lock_error()
 .text$_ZN9__gnu_cxx32__throw_concurrence_unlock_errorEv
                0x0000000068f5b130       0x30 C:/mingw64/bin/../lib/gcc/x86_64-w64-mingw32/8.1.0\libstdc++.a(eh_alloc.o)
                0x0000000068f5b130                __gnu_cxx::__throw_concurrence_unlock_error()
 .text$_ZN9__gnu_cxx9__freeresEv
                0x0000000068f5b160       0x30 C:/mingw64/bin/../lib/gcc/x86_64-w64-mingw32/8.1.0\libstdc++.a(eh_alloc.o)
                0x0000000068f5b160                __gnu_cxx::__freeres()
 .text$_ZN9__gnu_cxxeqIPKcNSt7__cxx1112basic_stringIcSt11char_traitsIcESaIcEEEEEbRKNS_17__normal_iteratorIT_T0_EESE_
                0x0000000068f5b190       0x10 C:/mingw64/bin/../lib/gcc/x86_64-w64-mingw32/8.1.0\libstdc++.a(string-inst.o)
                0x0000000068f5b190                bool __gnu_cxx::operator==<char const*, std::__cxx11::basic_string<char, std::char_traits<char>, std::allocator<char> > >(__gnu_cxx::__normal_iterator<char const*, std::__cxx11::basic_string<char, std::char_traits<char>, std::allocator<char> > > const&, __gnu_cxx::__normal_iterator<char const*, std::__cxx11::basic_string<char, std::char_traits<char>, std::allocator<char> > > const&)
 .text$_ZN9__gnu_cxxeqIPKcSsEEbRKNS_17__normal_iteratorIT_T0_EES8_
                0x0000000068f5b1a0       0x10 C:/mingw64/bin/../lib/gcc/x86_64-w64-mingw32/8.1.0\libstdc++.a(cow-string-inst.o)
                0x0000000068f5b1a0                bool __gnu_cxx::operator==<char const*, std::string>(__gnu_cxx::__normal_iterator<char const*, std::string> const&, __gnu_cxx::__normal_iterator<char const*, std::string> const&)
 .text$_ZN9__gnu_cxxeqIPcNSt7__cxx1112basic_stringIcSt11char_traitsIcESaIcEEEEEbRKNS_17__normal_iteratorIT_T0_EESD_
                0x0000000068f5b1b0       0x10 C:/mingw64/bin/../lib/gcc/x86_64-w64-mingw32/8.1.0\libstdc++.a(string-inst.o)
                0x0000000068f5b1b0                bool __gnu_cxx::operator==<char*, std::__cxx11::basic_string<char, std::char_traits<char>, std::allocator<char> > >(__gnu_cxx::__normal_iterator<char*, std::__cxx11::basic_string<char, std::char_traits<char>, std::allocator<char> > > const&, __gnu_cxx::__normal_iterator<char*, std::__cxx11::basic_string<char, std::char_traits<char>, std::allocator<char> > > const&)
 .text$_ZN9__gnu_cxxeqIPcSsEEbRKNS_17__normal_iteratorIT_T0_EES7_
                0x0000000068f5b1c0       0x10 C:/mingw64/bin/../lib/gcc/x86_64-w64-mingw32/8.1.0\libstdc++.a(cow-string-inst.o)
                0x0000000068f5b1c0                bool __gnu_cxx::operator==<char*, std::string>(__gnu_cxx::__normal_iterator<char*, std::string> const&, __gnu_cxx::__normal_iterator<char*, std::string> const&)
 .text$_ZNK10__cxxabiv117__class_type_info10__do_catchEPKSt9type_infoPPvj
                0x0000000068f5b1d0       0x50 C:/mingw64/bin/../lib/gcc/x86_64-w64-mingw32/8.1.0\libstdc++.a(class_type_info.o)
                0x0000000068f5b1d0                __cxxabiv1::__class_type_info::__do_catch(std::type_info const*, void**, unsigned int) const
 .text$_ZNK10__cxxabiv117__class_type_info11__do_upcastEPKS0_PKvRNS0_15__upcast_resultE
                0x0000000068f5b220       0x30 C:/mingw64/bin/../lib/gcc/x86_64-w64-mingw32/8.1.0\libstdc++.a(class_type_info.o)
                0x0000000068f5b220                __cxxabiv1::__class_type_info::__do_upcast(__cxxabiv1::__class_type_info const*, void const*, __cxxabiv1::__class_type_info::__upcast_result&) const
 .text$_ZNK10__cxxabiv117__class_type_info11__do_upcastEPKS0_PPv
                0x0000000068f5b250       0x60 C:/mingw64/bin/../lib/gcc/x86_64-w64-mingw32/8.1.0\libstdc++.a(class_type_info.o)
                0x0000000068f5b250                __cxxabiv1::__class_type_info::__do_upcast(__cxxabiv1::__class_type_info const*, void**) const
 .text$_ZNK10__cxxabiv117__class_type_info12__do_dyncastExNS0_10__sub_kindEPKS0_PKvS3_S5_RNS0_16__dyncast_resultE
                0x0000000068f5b2b0       0x80 C:/mingw64/bin/../lib/gcc/x86_64-w64-mingw32/8.1.0\libstdc++.a(class_type_info.o)
                0x0000000068f5b2b0                __cxxabiv1::__class_type_info::__do_dyncast(long long, __cxxabiv1::__class_type_info::__sub_kind, __cxxabiv1::__class_type_info const*, void const*, __cxxabiv1::__class_type_info const*, void const*, __cxxabiv1::__class_type_info::__dyncast_result&) const
 .text$_ZNK10__cxxabiv117__class_type_info20__do_find_public_srcExPKvPKS0_S2_
                0x0000000068f5b330       0x10 C:/mingw64/bin/../lib/gcc/x86_64-w64-mingw32/8.1.0\libstdc++.a(class_type_info.o)
                0x0000000068f5b330                __cxxabiv1::__class_type_info::__do_find_public_src(long long, void const*, __cxxabiv1::__class_type_info const*, void const*) const
 .text$_ZNK10__cxxabiv120__si_class_type_info11__do_upcastEPKNS_17__class_type_infoEPKvRNS1_15__upcast_resultE
                0x0000000068f5b340       0x50 C:/mingw64/bin/../lib/gcc/x86_64-w64-mingw32/8.1.0\libstdc++.a(si_class_type_info.o)
                0x0000000068f5b340                __cxxabiv1::__si_class_type_info::__do_upcast(__cxxabiv1::__class_type_info const*, void const*, __cxxabiv1::__class_type_info::__upcast_result&) const
 .text$_ZNK10__cxxabiv120__si_class_type_info12__do_dyncastExNS_17__class_type_info10__sub_kindEPKS1_PKvS4_S6_RNS1_16__dyncast_resultE
                0x0000000068f5b390      0x100 C:/mingw64/bin/../lib/gcc/x86_64-w64-mingw32/8.1.0\libstdc++.a(si_class_type_info.o)
                0x0000000068f5b390                __cxxabiv1::__si_class_type_info::__do_dyncast(long long, __cxxabiv1::__class_type_info::__sub_kind, __cxxabiv1::__class_type_info const*, void const*, __cxxabiv1::__class_type_info const*, void const*, __cxxabiv1::__class_type_info::__dyncast_result&) const
 .text$_ZNK10__cxxabiv120__si_class_type_info20__do_find_public_srcExPKvPKNS_17__class_type_infoES2_
                0x0000000068f5b490       0x70 C:/mingw64/bin/../lib/gcc/x86_64-w64-mingw32/8.1.0\libstdc++.a(si_class_type_info.o)
                0x0000000068f5b490                __cxxabiv1::__si_class_type_info::__do_find_public_src(long long, void const*, __cxxabiv1::__class_type_info const*, void const*) const
 .text$_ZNK11filesystem_4path11is_absoluteEv
                0x0000000068f5b500       0x30 Common__PathUtil.cpp.obj
                0x0000000068f5b500                filesystem_::path::is_absolute() const
 .text$_ZNK11filesystem_4path13has_root_nameEv
                0x0000000068f5b530       0x40 Common__PathUtil.cpp.obj
                0x0000000068f5b530                filesystem_::path::has_root_name() const
 .text$_ZNK11filesystem_4path18has_root_directoryEv
                0x0000000068f5b570       0x40 Common__PathUtil.cpp.obj
                0x0000000068f5b570                filesystem_::path::has_root_directory() const
 .text$_ZNK9__gnu_cxx24__concurrence_lock_error4whatEv
                0x0000000068f5b5b0       0x10 C:/mingw64/bin/../lib/gcc/x86_64-w64-mingw32/8.1.0\libstdc++.a(eh_alloc.o)
                0x0000000068f5b5b0                __gnu_cxx::__concurrence_lock_error::what() const
 .text$_ZNK9__gnu_cxx26__concurrence_unlock_error4whatEv
                0x0000000068f5b5c0       0x10 C:/mingw64/bin/../lib/gcc/x86_64-w64-mingw32/8.1.0\libstdc++.a(eh_alloc.o)
                0x0000000068f5b5c0                __gnu_cxx::__concurrence_unlock_error::what() const
 .text$_ZNKSs11_M_disjunctEPKc
                0x0000000068f5b5d0       0x20 C:/mingw64/bin/../lib/gcc/x86_64-w64-mingw32/8.1.0\libstdc++.a(cow-string-inst.o)
                0x0000000068f5b5d0                std::string::_M_disjunct(char const*) const
 .text$_ZNKSs12find_last_ofEPKcy
                0x0000000068f5b5f0       0x30 C:/mingw64/bin/../lib/gcc/x86_64-w64-mingw32/8.1.0\libstdc++.a(cow-string-inst.o)
                0x0000000068f5b5f0                std::string::find_last_of(char const*, unsigned long long) const
 .text$_ZNKSs12find_last_ofEPKcyy
                0x0000000068f5b620       0x80 C:/mingw64/bin/../lib/gcc/x86_64-w64-mingw32/8.1.0\libstdc++.a(cow-string-inst.o)
                0x0000000068f5b620                std::string::find_last_of(char const*, unsigned long long, unsigned long long) const
 .text$_ZNKSs12find_last_ofERKSsy
                0x0000000068f5b6a0       0x10 C:/mingw64/bin/../lib/gcc/x86_64-w64-mingw32/8.1.0\libstdc++.a(cow-string-inst.o)
                0x0000000068f5b6a0                std::string::find_last_of(std::string const&, unsigned long long) const
 .text$_ZNKSs12find_last_ofEcy
                0x0000000068f5b6b0       0x30 C:/mingw64/bin/../lib/gcc/x86_64-w64-mingw32/8.1.0\libstdc++.a(cow-string-inst.o)
                0x0000000068f5b6b0                std::string::find_last_of(char, unsigned long long) const
 .text$_ZNKSs13find_first_ofEPKcy
                0x0000000068f5b6e0       0x30 C:/mingw64/bin/../lib/gcc/x86_64-w64-mingw32/8.1.0\libstdc++.a(cow-string-inst.o)
                0x0000000068f5b6e0                std::string::find_first_of(char const*, unsigned long long) const
 .text$_ZNKSs13find_first_ofEPKcyy
                0x0000000068f5b710       0x80 C:/mingw64/bin/../lib/gcc/x86_64-w64-mingw32/8.1.0\libstdc++.a(cow-string-inst.o)
                0x0000000068f5b710                std::string::find_first_of(char const*, unsigned long long, unsigned long long) const
 .text$_ZNKSs13find_first_ofERKSsy
                0x0000000068f5b790       0x10 C:/mingw64/bin/../lib/gcc/x86_64-w64-mingw32/8.1.0\libstdc++.a(cow-string-inst.o)
                0x0000000068f5b790                std::string::find_first_of(std::string const&, unsigned long long) const
 .text$_ZNKSs13find_first_ofEcy
                0x0000000068f5b7a0       0x10 C:/mingw64/bin/../lib/gcc/x86_64-w64-mingw32/8.1.0\libstdc++.a(cow-string-inst.o)
                0x0000000068f5b7a0                std::string::find_first_of(char, unsigned long long) const
 .text$_ZNKSs13get_allocatorEv
                0x0000000068f5b7b0       0x10 C:/mingw64/bin/../lib/gcc/x86_64-w64-mingw32/8.1.0\libstdc++.a(cow-string-inst.o)
                0x0000000068f5b7b0                std::string::get_allocator() const
 .text$_ZNKSs15_M_check_lengthEyyPKc
                0x0000000068f5b7c0       0x30 C:/mingw64/bin/../lib/gcc/x86_64-w64-mingw32/8.1.0\libstdc++.a(cow-string-inst.o)
                0x0000000068f5b7c0                std::string::_M_check_length(unsigned long long, unsigned long long, char const*) const
 .text$_ZNKSs16find_last_not_ofEPKcy
                0x0000000068f5b7f0       0x30 C:/mingw64/bin/../lib/gcc/x86_64-w64-mingw32/8.1.0\libstdc++.a(cow-string-inst.o)
                0x0000000068f5b7f0                std::string::find_last_not_of(char const*, unsigned long long) const
 .text$_ZNKSs16find_last_not_ofEPKcyy
                0x0000000068f5b820       0x60 C:/mingw64/bin/../lib/gcc/x86_64-w64-mingw32/8.1.0\libstdc++.a(cow-string-inst.o)
                0x0000000068f5b820                std::string::find_last_not_of(char const*, unsigned long long, unsigned long long) const
 .text$_ZNKSs16find_last_not_ofERKSsy
                0x0000000068f5b880       0x10 C:/mingw64/bin/../lib/gcc/x86_64-w64-mingw32/8.1.0\libstdc++.a(cow-string-inst.o)
                0x0000000068f5b880                std::string::find_last_not_of(std::string const&, unsigned long long) const
 .text$_ZNKSs16find_last_not_ofEcy
                0x0000000068f5b890       0x30 C:/mingw64/bin/../lib/gcc/x86_64-w64-mingw32/8.1.0\libstdc++.a(cow-string-inst.o)
                0x0000000068f5b890                std::string::find_last_not_of(char, unsigned long long) const
 .text$_ZNKSs17find_first_not_ofEPKcy
                0x0000000068f5b8c0       0x30 C:/mingw64/bin/../lib/gcc/x86_64-w64-mingw32/8.1.0\libstdc++.a(cow-string-inst.o)
                0x0000000068f5b8c0                std::string::find_first_not_of(char const*, unsigned long long) const
 .text$_ZNKSs17find_first_not_ofEPKcyy
                0x0000000068f5b8f0       0x80 C:/mingw64/bin/../lib/gcc/x86_64-w64-mingw32/8.1.0\libstdc++.a(cow-string-inst.o)
                0x0000000068f5b8f0                std::string::find_first_not_of(char const*, unsigned long long, unsigned long long) const
 .text$_ZNKSs17find_first_not_ofERKSsy
                0x0000000068f5b970       0x10 C:/mingw64/bin/../lib/gcc/x86_64-w64-mingw32/8.1.0\libstdc++.a(cow-string-inst.o)
                0x0000000068f5b970                std::string::find_first_not_of(std::string const&, unsigned long long) const
 .text$_ZNKSs17find_first_not_ofEcy
                0x0000000068f5b980       0x50 C:/mingw64/bin/../lib/gcc/x86_64-w64-mingw32/8.1.0\libstdc++.a(cow-string-inst.o)
                0x0000000068f5b980                std::string::find_first_not_of(char, unsigned long long) const
 .text$_ZNKSs2atEy
                0x0000000068f5b9d0       0x30 C:/mingw64/bin/../lib/gcc/x86_64-w64-mingw32/8.1.0\libstdc++.a(cow-string-inst.o)
                0x0000000068f5b9d0                std::string::at(unsigned long long) const
 .text$_ZNKSs3endEv
                0x0000000068f5ba00       0x10 C:/mingw64/bin/../lib/gcc/x86_64-w64-mingw32/8.1.0\libstdc++.a(cow-string-inst.o)
                0x0000000068f5ba00                std::string::end() const
 .text$_ZNKSs4_Rep12_M_is_leakedEv
                0x0000000068f5ba10       0x10 C:/mingw64/bin/../lib/gcc/x86_64-w64-mingw32/8.1.0\libstdc++.a(cow-string-inst.o)
                0x0000000068f5ba10                std::string::_Rep::_M_is_leaked() const
 .text$_ZNKSs4_Rep12_M_is_sharedEv
                0x0000000068f5ba20       0x10 C:/mingw64/bin/../lib/gcc/x86_64-w64-mingw32/8.1.0\libstdc++.a(cow-string-inst.o)
                0x0000000068f5ba20                std::string::_Rep::_M_is_shared() const
 .text$_ZNKSs4backEv
                0x0000000068f5ba30       0x10 C:/mingw64/bin/../lib/gcc/x86_64-w64-mingw32/8.1.0\libstdc++.a(cow-string-inst.o)
                0x0000000068f5ba30                std::string::back() const
 .text$_ZNKSs4cendEv
                0x0000000068f5ba40       0x10 C:/mingw64/bin/../lib/gcc/x86_64-w64-mingw32/8.1.0\libstdc++.a(cow-string-inst.o)
                0x0000000068f5ba40                std::string::cend() const
 .text$_ZNKSs4copyEPcyy
                0x0000000068f5ba50       0x70 C:/mingw64/bin/../lib/gcc/x86_64-w64-mingw32/8.1.0\libstdc++.a(cow-string-inst.o)
                0x0000000068f5ba50                std::string::copy(char*, unsigned long long, unsigned long long) const
 .text$_ZNKSs4dataEv
                0x0000000068f5bac0       0x10 C:/mingw64/bin/../lib/gcc/x86_64-w64-mingw32/8.1.0\libstdc++.a(cow-string-inst.o)
                0x0000000068f5bac0                std::string::data() const
 .text$_ZNKSs4findEPKcy
                0x0000000068f5bad0       0x30 C:/mingw64/bin/../lib/gcc/x86_64-w64-mingw32/8.1.0\libstdc++.a(cow-string-inst.o)
                0x0000000068f5bad0                std::string::find(char const*, unsigned long long) const
 .text$_ZNKSs4findEPKcyy
                0x0000000068f5bb00       0xd0 C:/mingw64/bin/../lib/gcc/x86_64-w64-mingw32/8.1.0\libstdc++.a(cow-string-inst.o)
                0x0000000068f5bb00                std::string::find(char const*, unsigned long long, unsigned long long) const
 .text$_ZNKSs4findERKSsy
                0x0000000068f5bbd0       0x10 C:/mingw64/bin/../lib/gcc/x86_64-w64-mingw32/8.1.0\libstdc++.a(cow-string-inst.o)
                0x0000000068f5bbd0                std::string::find(std::string const&, unsigned long long) const
 .text$_ZNKSs4findEcy
                0x0000000068f5bbe0       0x50 C:/mingw64/bin/../lib/gcc/x86_64-w64-mingw32/8.1.0\libstdc++.a(cow-string-inst.o)
                0x0000000068f5bbe0                std::string::find(char, unsigned long long) const
 .text$_ZNKSs4rendEv
                0x0000000068f5bc30       0x10 C:/mingw64/bin/../lib/gcc/x86_64-w64-mingw32/8.1.0\libstdc++.a(cow-string-inst.o)
                0x0000000068f5bc30                std::string::rend() const
 .text$_ZNKSs4sizeEv
                0x0000000068f5bc40       0x10 C:/mingw64/bin/../lib/gcc/x86_64-w64-mingw32/8.1.0\libstdc++.a(cow-string-inst.o)
                0x0000000068f5bc40                std::string::size() const
 .text$_ZNKSs5beginEv
                0x0000000068f5bc50       0x10 C:/mingw64/bin/../lib/gcc/x86_64-w64-mingw32/8.1.0\libstdc++.a(cow-string-inst.o)
                0x0000000068f5bc50                std::string::begin() const
 .text$_ZNKSs5c_strEv
                0x0000000068f5bc60       0x10 C:/mingw64/bin/../lib/gcc/x86_64-w64-mingw32/8.1.0\libstdc++.a(cow-string-inst.o)
                0x0000000068f5bc60                std::string::c_str() const
 .text$_ZNKSs5crendEv
                0x0000000068f5bc70       0x10 C:/mingw64/bin/../lib/gcc/x86_64-w64-mingw32/8.1.0\libstdc++.a(cow-string-inst.o)
                0x0000000068f5bc70                std::string::crend() const
 .text$_ZNKSs5emptyEv
                0x0000000068f5bc80       0x10 C:/mingw64/bin/../lib/gcc/x86_64-w64-mingw32/8.1.0\libstdc++.a(cow-string-inst.o)
                0x0000000068f5bc80                std::string::empty() const
 .text$_ZNKSs5frontEv
                0x0000000068f5bc90       0x10 C:/mingw64/bin/../lib/gcc/x86_64-w64-mingw32/8.1.0\libstdc++.a(cow-string-inst.o)
                0x0000000068f5bc90                std::string::front() const
 .text$_ZNKSs5rfindEPKcy
                0x0000000068f5bca0       0x30 C:/mingw64/bin/../lib/gcc/x86_64-w64-mingw32/8.1.0\libstdc++.a(cow-string-inst.o)
                0x0000000068f5bca0                std::string::rfind(char const*, unsigned long long) const
 .text$_ZNKSs5rfindEPKcyy
                0x0000000068f5bcd0       0x70 C:/mingw64/bin/../lib/gcc/x86_64-w64-mingw32/8.1.0\libstdc++.a(cow-string-inst.o)
                0x0000000068f5bcd0                std::string::rfind(char const*, unsigned long long, unsigned long long) const
 .text$_ZNKSs5rfindERKSsy
                0x0000000068f5bd40       0x10 C:/mingw64/bin/../lib/gcc/x86_64-w64-mingw32/8.1.0\libstdc++.a(cow-string-inst.o)
                0x0000000068f5bd40                std::string::rfind(std::string const&, unsigned long long) const
 .text$_ZNKSs5rfindEcy
                0x0000000068f5bd50       0x30 C:/mingw64/bin/../lib/gcc/x86_64-w64-mingw32/8.1.0\libstdc++.a(cow-string-inst.o)
                0x0000000068f5bd50                std::string::rfind(char, unsigned long long) const
 .text$_ZNKSs6_M_repEv
                0x0000000068f5bd80       0x10 C:/mingw64/bin/../lib/gcc/x86_64-w64-mingw32/8.1.0\libstdc++.a(cow-string-inst.o)
                0x0000000068f5bd80                std::string::_M_rep() const
 .text$_ZNKSs6cbeginEv
                0x0000000068f5bd90       0x10 C:/mingw64/bin/../lib/gcc/x86_64-w64-mingw32/8.1.0\libstdc++.a(cow-string-inst.o)
                0x0000000068f5bd90                std::string::cbegin() const
 .text$_ZNKSs6lengthEv
                0x0000000068f5bda0       0x10 C:/mingw64/bin/../lib/gcc/x86_64-w64-mingw32/8.1.0\libstdc++.a(cow-string-inst.o)
                0x0000000068f5bda0                std::string::length() const
 .text$_ZNKSs6rbeginEv
                0x0000000068f5bdb0       0x10 C:/mingw64/bin/../lib/gcc/x86_64-w64-mingw32/8.1.0\libstdc++.a(cow-string-inst.o)
                0x0000000068f5bdb0                std::string::rbegin() const
 .text$_ZNKSs6substrEyy
                0x0000000068f5bdc0       0x40 C:/mingw64/bin/../lib/gcc/x86_64-w64-mingw32/8.1.0\libstdc++.a(cow-string-inst.o)
                0x0000000068f5bdc0                std::string::substr(unsigned long long, unsigned long long) const
 .text$_ZNKSs7_M_dataEv
                0x0000000068f5be00       0x10 C:/mingw64/bin/../lib/gcc/x86_64-w64-mingw32/8.1.0\libstdc++.a(cow-string-inst.o)
                0x0000000068f5be00                std::string::_M_data() const
 .text$_ZNKSs7_M_iendEv
                0x0000000068f5be10       0x10 C:/mingw64/bin/../lib/gcc/x86_64-w64-mingw32/8.1.0\libstdc++.a(cow-string-inst.o)
                0x0000000068f5be10                std::string::_M_iend() const
 .text$_ZNKSs7compareEPKc
                0x0000000068f5be20       0x70 C:/mingw64/bin/../lib/gcc/x86_64-w64-mingw32/8.1.0\libstdc++.a(cow-string-inst.o)
                0x0000000068f5be20                std::string::compare(char const*) const
 .text$_ZNKSs7compareERKSs
                0x0000000068f5be90       0x60 C:/mingw64/bin/../lib/gcc/x86_64-w64-mingw32/8.1.0\libstdc++.a(cow-string-inst.o)
                0x0000000068f5be90                std::string::compare(std::string const&) const
 .text$_ZNKSs7compareEyyPKc
                0x0000000068f5bef0       0xa0 C:/mingw64/bin/../lib/gcc/x86_64-w64-mingw32/8.1.0\libstdc++.a(cow-string-inst.o)
                0x0000000068f5bef0                std::string::compare(unsigned long long, unsigned long long, char const*) const
 .text$_ZNKSs7compareEyyPKcy
                0x0000000068f5bf90       0x80 C:/mingw64/bin/../lib/gcc/x86_64-w64-mingw32/8.1.0\libstdc++.a(cow-string-inst.o)
                0x0000000068f5bf90                std::string::compare(unsigned long long, unsigned long long, char const*, unsigned long long) const
 .text$_ZNKSs7compareEyyRKSs
                0x0000000068f5c010       0x80 C:/mingw64/bin/../lib/gcc/x86_64-w64-mingw32/8.1.0\libstdc++.a(cow-string-inst.o)
                0x0000000068f5c010                std::string::compare(unsigned long long, unsigned long long, std::string const&) const
 .text$_ZNKSs7compareEyyRKSsyy
                0x0000000068f5c090       0xc0 C:/mingw64/bin/../lib/gcc/x86_64-w64-mingw32/8.1.0\libstdc++.a(cow-string-inst.o)
                0x0000000068f5c090                std::string::compare(unsigned long long, unsigned long long, std::string const&, unsigned long long, unsigned long long) const
 .text$_ZNKSs7crbeginEv
                0x0000000068f5c150       0x10 C:/mingw64/bin/../lib/gcc/x86_64-w64-mingw32/8.1.0\libstdc++.a(cow-string-inst.o)
                0x0000000068f5c150                std::string::crbegin() const
 .text$_ZNKSs8_M_checkEyPKc
                0x0000000068f5c160       0x30 C:/mingw64/bin/../lib/gcc/x86_64-w64-mingw32/8.1.0\libstdc++.a(cow-string-inst.o)
                0x0000000068f5c160                std::string::_M_check(unsigned long long, char const*) const
 .text$_ZNKSs8_M_limitEyy
                0x0000000068f5c190       0x20 C:/mingw64/bin/../lib/gcc/x86_64-w64-mingw32/8.1.0\libstdc++.a(cow-string-inst.o)
                0x0000000068f5c190                std::string::_M_limit(unsigned long long, unsigned long long) const
 .text$_ZNKSs8capacityEv
                0x0000000068f5c1b0       0x10 C:/mingw64/bin/../lib/gcc/x86_64-w64-mingw32/8.1.0\libstdc++.a(cow-string-inst.o)
                0x0000000068f5c1b0                std::string::capacity() const
 .text$_ZNKSs8max_sizeEv
                0x0000000068f5c1c0       0x10 C:/mingw64/bin/../lib/gcc/x86_64-w64-mingw32/8.1.0\libstdc++.a(cow-string-inst.o)
                0x0000000068f5c1c0                std::string::max_size() const
 .text$_ZNKSs9_M_ibeginEv
                0x0000000068f5c1d0       0x10 C:/mingw64/bin/../lib/gcc/x86_64-w64-mingw32/8.1.0\libstdc++.a(cow-string-inst.o)
                0x0000000068f5c1d0                std::string::_M_ibegin() const
 .text$_ZNKSsixEy
                0x0000000068f5c1e0       0x10 C:/mingw64/bin/../lib/gcc/x86_64-w64-mingw32/8.1.0\libstdc++.a(cow-string-inst.o)
                0x0000000068f5c1e0                std::string::operator[](unsigned long long) const
 .text$_ZNKSt10bad_typeid4whatEv
                0x0000000068f5c1f0       0x10 C:/mingw64/bin/../lib/gcc/x86_64-w64-mingw32/8.1.0\libstdc++.a(bad_typeid.o)
                0x0000000068f5c1f0                std::bad_typeid::what() const
 .text$_ZNKSt11logic_error4whatEv
                0x0000000068f5c200       0x10 C:/mingw64/bin/../lib/gcc/x86_64-w64-mingw32/8.1.0\libstdc++.a(stdexcept.o)
                0x0000000068f5c200                std::logic_error::what() const
 .text$_ZNKSt13bad_exception4whatEv
                0x0000000068f5c210       0x10 C:/mingw64/bin/../lib/gcc/x86_64-w64-mingw32/8.1.0\libstdc++.a(eh_exception.o)
                0x0000000068f5c210                std::bad_exception::what() const
                0x0000000068f5c210                transaction clone for std::bad_exception::what() const
 .text$_ZNKSt13runtime_error4whatEv
                0x0000000068f5c220       0x10 C:/mingw64/bin/../lib/gcc/x86_64-w64-mingw32/8.1.0\libstdc++.a(stdexcept.o)
                0x0000000068f5c220                std::runtime_error::what() const
 .text$_ZNKSt17bad_function_call4whatEv
                0x0000000068f5c230       0x10 C:/mingw64/bin/../lib/gcc/x86_64-w64-mingw32/8.1.0\libstdc++.a(functional.o)
                0x0000000068f5c230                std::bad_function_call::what() const
 .text$_ZNKSt3_V214error_category10_M_messageEi
                0x0000000068f5c240       0xa0 C:/mingw64/bin/../lib/gcc/x86_64-w64-mingw32/8.1.0\libstdc++.a(cow-stdexcept.o)
                0x0000000068f5c240                std::_V2::error_category::_M_message(int) const
 .text$_ZNKSt6vectorI11EPG_CONTENTSaIS0_EE12_M_check_lenEyPKc
                0x0000000068f5c2e0       0x50 Common__CtrlCmdUtil.cpp.obj
                0x0000000068f5c2e0                std::vector<EPG_CONTENT, std::allocator<EPG_CONTENT> >::_M_check_len(unsigned long long, char const*) const
 .text$_ZNKSt6vectorI17REC_FILE_SET_INFOSaIS0_EE12_M_check_lenEyPKc
                0x0000000068f5c330       0x50 Common__CtrlCmdUtil.cpp.obj
                0x0000000068f5c330                std::vector<REC_FILE_SET_INFO, std::allocator<REC_FILE_SET_INFO> >::_M_check_len(unsigned long long, char const*) const
 .text$_ZNKSt6vectorI22EPGDB_SEARCH_DATE_INFOSaIS0_EE12_M_check_lenEyPKc
                0x0000000068f5c380       0x60 Common__CtrlCmdUtil.cpp.obj
                0x0000000068f5c380                std::vector<EPGDB_SEARCH_DATE_INFO, std::allocator<EPGDB_SEARCH_DATE_INFO> >::_M_check_len(unsigned long long, char const*) const
 .text$_ZNKSt6vectorIxSaIxEE12_M_check_lenEyPKc
                0x0000000068f5c3e0       0x50 Common__CtrlCmdUtil.cpp.obj
                0x0000000068f5c3e0                std::vector<long long, std::allocator<long long> >::_M_check_len(unsigned long long, char const*) const
 .text$_ZNKSt7__cxx1112basic_stringIcSt11char_traitsIcESaIcEE11_M_disjunctEPKc
                0x0000000068f5c430       0x20 C:/mingw64/bin/../lib/gcc/x86_64-w64-mingw32/8.1.0\libstdc++.a(string-inst.o)
                0x0000000068f5c430                std::__cxx11::basic_string<char, std::char_traits<char>, std::allocator<char> >::_M_disjunct(char const*) const
 .text$_ZNKSt7__cxx1112basic_stringIcSt11char_traitsIcESaIcEE11_M_is_localEv
                0x0000000068f5c450       0x10 C:/mingw64/bin/../lib/gcc/x86_64-w64-mingw32/8.1.0\libstdc++.a(string-inst.o)
                0x0000000068f5c450                std::__cxx11::basic_string<char, std::char_traits<char>, std::allocator<char> >::_M_is_local() const
 .text$_ZNKSt7__cxx1112basic_stringIcSt11char_traitsIcESaIcEE12find_last_ofEPKcy
                0x0000000068f5c460       0x30 C:/mingw64/bin/../lib/gcc/x86_64-w64-mingw32/8.1.0\libstdc++.a(string-inst.o)
                0x0000000068f5c460                std::__cxx11::basic_string<char, std::char_traits<char>, std::allocator<char> >::find_last_of(char const*, unsigned long long) const
 .text$_ZNKSt7__cxx1112basic_stringIcSt11char_traitsIcESaIcEE12find_last_ofEPKcyy
                0x0000000068f5c490       0x80 C:/mingw64/bin/../lib/gcc/x86_64-w64-mingw32/8.1.0\libstdc++.a(string-inst.o)
                0x0000000068f5c490                std::__cxx11::basic_string<char, std::char_traits<char>, std::allocator<char> >::find_last_of(char const*, unsigned long long, unsigned long long) const
 .text$_ZNKSt7__cxx1112basic_stringIcSt11char_traitsIcESaIcEE12find_last_ofERKS4_y
                0x0000000068f5c510       0x10 C:/mingw64/bin/../lib/gcc/x86_64-w64-mingw32/8.1.0\libstdc++.a(string-inst.o)
                0x0000000068f5c510                std::__cxx11::basic_string<char, std::char_traits<char>, std::allocator<char> >::find_last_of(std::__cxx11::basic_string<char, std::char_traits<char>, std::allocator<char> > const&, unsigned long long) const
 .text$_ZNKSt7__cxx1112basic_stringIcSt11char_traitsIcESaIcEE12find_last_ofEcy
                0x0000000068f5c520       0x30 C:/mingw64/bin/../lib/gcc/x86_64-w64-mingw32/8.1.0\libstdc++.a(string-inst.o)
                0x0000000068f5c520                std::__cxx11::basic_string<char, std::char_traits<char>, std::allocator<char> >::find_last_of(char, unsigned long long) const
 .text$_ZNKSt7__cxx1112basic_stringIcSt11char_traitsIcESaIcEE13_M_local_dataEv
                0x0000000068f5c550       0x10 C:/mingw64/bin/../lib/gcc/x86_64-w64-mingw32/8.1.0\libstdc++.a(string-inst.o)
                0x0000000068f5c550                std::__cxx11::basic_string<char, std::char_traits<char>, std::allocator<char> >::_M_local_data() const
 .text$_ZNKSt7__cxx1112basic_stringIcSt11char_traitsIcESaIcEE13find_first_ofEPKcy
                0x0000000068f5c560       0x30 C:/mingw64/bin/../lib/gcc/x86_64-w64-mingw32/8.1.0\libstdc++.a(string-inst.o)
                0x0000000068f5c560                std::__cxx11::basic_string<char, std::char_traits<char>, std::allocator<char> >::find_first_of(char const*, unsigned long long) const
 .text$_ZNKSt7__cxx1112basic_stringIcSt11char_traitsIcESaIcEE13find_first_ofEPKcyy
                0x0000000068f5c590       0x80 C:/mingw64/bin/../lib/gcc/x86_64-w64-mingw32/8.1.0\libstdc++.a(string-inst.o)
                0x0000000068f5c590                std::__cxx11::basic_string<char, std::char_traits<char>, std::allocator<char> >::find_first_of(char const*, unsigned long long, unsigned long long) const
 .text$_ZNKSt7__cxx1112basic_stringIcSt11char_traitsIcESaIcEE13find_first_ofERKS4_y
                0x0000000068f5c610       0x10 C:/mingw64/bin/../lib/gcc/x86_64-w64-mingw32/8.1.0\libstdc++.a(string-inst.o)
                0x0000000068f5c610                std::__cxx11::basic_string<char, std::char_traits<char>, std::allocator<char> >::find_first_of(std::__cxx11::basic_string<char, std::char_traits<char>, std::allocator<char> > const&, unsigned long long) const
 .text$_ZNKSt7__cxx1112basic_stringIcSt11char_traitsIcESaIcEE13find_first_ofEcy
                0x0000000068f5c620       0x10 C:/mingw64/bin/../lib/gcc/x86_64-w64-mingw32/8.1.0\libstdc++.a(string-inst.o)
                0x0000000068f5c620                std::__cxx11::basic_string<char, std::char_traits<char>, std::allocator<char> >::find_first_of(char, unsigned long long) const
 .text$_ZNKSt7__cxx1112basic_stringIcSt11char_traitsIcESaIcEE13get_allocatorEv
                0x0000000068f5c630       0x10 C:/mingw64/bin/../lib/gcc/x86_64-w64-mingw32/8.1.0\libstdc++.a(string-inst.o)
                0x0000000068f5c630                std::__cxx11::basic_string<char, std::char_traits<char>, std::allocator<char> >::get_allocator() const
 .text$_ZNKSt7__cxx1112basic_stringIcSt11char_traitsIcESaIcEE15_M_check_lengthEyyPKc
                0x0000000068f5c640       0x30 C:/mingw64/bin/../lib/gcc/x86_64-w64-mingw32/8.1.0\libstdc++.a(string-inst.o)
                0x0000000068f5c640                std::__cxx11::basic_string<char, std::char_traits<char>, std::allocator<char> >::_M_check_length(unsigned long long, unsigned long long, char const*) const
 .text$_ZNKSt7__cxx1112basic_stringIcSt11char_traitsIcESaIcEE16_M_get_allocatorEv
                0x0000000068f5c670       0x10 C:/mingw64/bin/../lib/gcc/x86_64-w64-mingw32/8.1.0\libstdc++.a(string-inst.o)
                0x0000000068f5c670                std::__cxx11::basic_string<char, std::char_traits<char>, std::allocator<char> >::_M_get_allocator() const
 .text$_ZNKSt7__cxx1112basic_stringIcSt11char_traitsIcESaIcEE16find_last_not_ofEPKcy
                0x0000000068f5c680       0x30 C:/mingw64/bin/../lib/gcc/x86_64-w64-mingw32/8.1.0\libstdc++.a(string-inst.o)
                0x0000000068f5c680                std::__cxx11::basic_string<char, std::char_traits<char>, std::allocator<char> >::find_last_not_of(char const*, unsigned long long) const
 .text$_ZNKSt7__cxx1112basic_stringIcSt11char_traitsIcESaIcEE16find_last_not_ofEPKcyy
                0x0000000068f5c6b0       0x60 C:/mingw64/bin/../lib/gcc/x86_64-w64-mingw32/8.1.0\libstdc++.a(string-inst.o)
                0x0000000068f5c6b0                std::__cxx11::basic_string<char, std::char_traits<char>, std::allocator<char> >::find_last_not_of(char const*, unsigned long long, unsigned long long) const
 .text$_ZNKSt7__cxx1112basic_stringIcSt11char_traitsIcESaIcEE16find_last_not_ofERKS4_y
                0x0000000068f5c710       0x10 C:/mingw64/bin/../lib/gcc/x86_64-w64-mingw32/8.1.0\libstdc++.a(string-inst.o)
                0x0000000068f5c710                std::__cxx11::basic_string<char, std::char_traits<char>, std::allocator<char> >::find_last_not_of(std::__cxx11::basic_string<char, std::char_traits<char>, std::allocator<char> > const&, unsigned long long) const
 .text$_ZNKSt7__cxx1112basic_stringIcSt11char_traitsIcESaIcEE16find_last_not_ofEcy
                0x0000000068f5c720       0x30 C:/mingw64/bin/../lib/gcc/x86_64-w64-mingw32/8.1.0\libstdc++.a(string-inst.o)
                0x0000000068f5c720                std::__cxx11::basic_string<char, std::char_traits<char>, std::allocator<char> >::find_last_not_of(char, unsigned long long) const
 .text$_ZNKSt7__cxx1112basic_stringIcSt11char_traitsIcESaIcEE17find_first_not_ofEPKcy
                0x0000000068f5c750       0x30 C:/mingw64/bin/../lib/gcc/x86_64-w64-mingw32/8.1.0\libstdc++.a(string-inst.o)
                0x0000000068f5c750                std::__cxx11::basic_string<char, std::char_traits<char>, std::allocator<char> >::find_first_not_of(char const*, unsigned long long) const
 .text$_ZNKSt7__cxx1112basic_stringIcSt11char_traitsIcESaIcEE17find_first_not_ofEPKcyy
                0x0000000068f5c780       0x80 C:/mingw64/bin/../lib/gcc/x86_64-w64-mingw32/8.1.0\libstdc++.a(string-inst.o)
                0x0000000068f5c780                std::__cxx11::basic_string<char, std::char_traits<char>, std::allocator<char> >::find_first_not_of(char const*, unsigned long long, unsigned long long) const
 .text$_ZNKSt7__cxx1112basic_stringIcSt11char_traitsIcESaIcEE17find_first_not_ofERKS4_y
                0x0000000068f5c800       0x10 C:/mingw64/bin/../lib/gcc/x86_64-w64-mingw32/8.1.0\libstdc++.a(string-inst.o)
                0x0000000068f5c800                std::__cxx11::basic_string<char, std::char_traits<char>, std::allocator<char> >::find_first_not_of(std::__cxx11::basic_string<char, std::char_traits<char>, std::allocator<char> > const&, unsigned long long) const
 .text$_ZNKSt7__cxx1112basic_stringIcSt11char_traitsIcESaIcEE17find_first_not_ofEcy
                0x0000000068f5c810       0x50 C:/mingw64/bin/../lib/gcc/x86_64-w64-mingw32/8.1.0\libstdc++.a(string-inst.o)
                0x0000000068f5c810                std::__cxx11::basic_string<char, std::char_traits<char>, std::allocator<char> >::find_first_not_of(char, unsigned long long) const
 .text$_ZNKSt7__cxx1112basic_stringIcSt11char_traitsIcESaIcEE2atEy
                0x0000000068f5c860       0x30 C:/mingw64/bin/../lib/gcc/x86_64-w64-mingw32/8.1.0\libstdc++.a(string-inst.o)
                0x0000000068f5c860                std::__cxx11::basic_string<char, std::char_traits<char>, std::allocator<char> >::at(unsigned long long) const
 .text$_ZNKSt7__cxx1112basic_stringIcSt11char_traitsIcESaIcEE3endEv
                0x0000000068f5c890       0x10 C:/mingw64/bin/../lib/gcc/x86_64-w64-mingw32/8.1.0\libstdc++.a(string-inst.o)
                0x0000000068f5c890                std::__cxx11::basic_string<char, std::char_traits<char>, std::allocator<char> >::end() const
 .text$_ZNKSt7__cxx1112basic_stringIcSt11char_traitsIcESaIcEE4backEv
                0x0000000068f5c8a0       0x10 C:/mingw64/bin/../lib/gcc/x86_64-w64-mingw32/8.1.0\libstdc++.a(string-inst.o)
                0x0000000068f5c8a0                std::__cxx11::basic_string<char, std::char_traits<char>, std::allocator<char> >::back() const
 .text$_ZNKSt7__cxx1112basic_stringIcSt11char_traitsIcESaIcEE4cendEv
                0x0000000068f5c8b0       0x10 C:/mingw64/bin/../lib/gcc/x86_64-w64-mingw32/8.1.0\libstdc++.a(string-inst.o)
                0x0000000068f5c8b0                std::__cxx11::basic_string<char, std::char_traits<char>, std::allocator<char> >::cend() const
 .text$_ZNKSt7__cxx1112basic_stringIcSt11char_traitsIcESaIcEE4copyEPcyy
                0x0000000068f5c8c0       0x70 C:/mingw64/bin/../lib/gcc/x86_64-w64-mingw32/8.1.0\libstdc++.a(string-inst.o)
                0x0000000068f5c8c0                std::__cxx11::basic_string<char, std::char_traits<char>, std::allocator<char> >::copy(char*, unsigned long long, unsigned long long) const
 .text$_ZNKSt7__cxx1112basic_stringIcSt11char_traitsIcESaIcEE4dataEv
                0x0000000068f5c930       0x10 C:/mingw64/bin/../lib/gcc/x86_64-w64-mingw32/8.1.0\libstdc++.a(string-inst.o)
                0x0000000068f5c930                std::__cxx11::basic_string<char, std::char_traits<char>, std::allocator<char> >::data() const
 .text$_ZNKSt7__cxx1112basic_stringIcSt11char_traitsIcESaIcEE4findEPKcy
                0x0000000068f5c940       0x30 C:/mingw64/bin/../lib/gcc/x86_64-w64-mingw32/8.1.0\libstdc++.a(string-inst.o)
                0x0000000068f5c940                std::__cxx11::basic_string<char, std::char_traits<char>, std::allocator<char> >::find(char const*, unsigned long long) const
 .text$_ZNKSt7__cxx1112basic_stringIcSt11char_traitsIcESaIcEE4findEPKcyy
                0x0000000068f5c970       0xd0 C:/mingw64/bin/../lib/gcc/x86_64-w64-mingw32/8.1.0\libstdc++.a(string-inst.o)
                0x0000000068f5c970                std::__cxx11::basic_string<char, std::char_traits<char>, std::allocator<char> >::find(char const*, unsigned long long, unsigned long long) const
 .text$_ZNKSt7__cxx1112basic_stringIcSt11char_traitsIcESaIcEE4findERKS4_y
                0x0000000068f5ca40       0x10 C:/mingw64/bin/../lib/gcc/x86_64-w64-mingw32/8.1.0\libstdc++.a(string-inst.o)
                0x0000000068f5ca40                std::__cxx11::basic_string<char, std::char_traits<char>, std::allocator<char> >::find(std::__cxx11::basic_string<char, std::char_traits<char>, std::allocator<char> > const&, unsigned long long) const
 .text$_ZNKSt7__cxx1112basic_stringIcSt11char_traitsIcESaIcEE4findEcy
                0x0000000068f5ca50       0x50 C:/mingw64/bin/../lib/gcc/x86_64-w64-mingw32/8.1.0\libstdc++.a(string-inst.o)
                0x0000000068f5ca50                std::__cxx11::basic_string<char, std::char_traits<char>, std::allocator<char> >::find(char, unsigned long long) const
 .text$_ZNKSt7__cxx1112basic_stringIcSt11char_traitsIcESaIcEE4rendEv
                0x0000000068f5caa0       0x10 C:/mingw64/bin/../lib/gcc/x86_64-w64-mingw32/8.1.0\libstdc++.a(string-inst.o)
                0x0000000068f5caa0                std::__cxx11::basic_string<char, std::char_traits<char>, std::allocator<char> >::rend() const
 .text$_ZNKSt7__cxx1112basic_stringIcSt11char_traitsIcESaIcEE4sizeEv
                0x0000000068f5cab0       0x10 C:/mingw64/bin/../lib/gcc/x86_64-w64-mingw32/8.1.0\libstdc++.a(string-inst.o)
                0x0000000068f5cab0                std::__cxx11::basic_string<char, std::char_traits<char>, std::allocator<char> >::size() const
 .text$_ZNKSt7__cxx1112basic_stringIcSt11char_traitsIcESaIcEE5beginEv
                0x0000000068f5cac0       0x10 C:/mingw64/bin/../lib/gcc/x86_64-w64-mingw32/8.1.0\libstdc++.a(string-inst.o)
                0x0000000068f5cac0                std::__cxx11::basic_string<char, std::char_traits<char>, std::allocator<char> >::begin() const
 .text$_ZNKSt7__cxx1112basic_stringIcSt11char_traitsIcESaIcEE5c_strEv
                0x0000000068f5cad0       0x10 C:/mingw64/bin/../lib/gcc/x86_64-w64-mingw32/8.1.0\libstdc++.a(string-inst.o)
                0x0000000068f5cad0                std::__cxx11::basic_string<char, std::char_traits<char>, std::allocator<char> >::c_str() const
 .text$_ZNKSt7__cxx1112basic_stringIcSt11char_traitsIcESaIcEE5crendEv
                0x0000000068f5cae0       0x10 C:/mingw64/bin/../lib/gcc/x86_64-w64-mingw32/8.1.0\libstdc++.a(string-inst.o)
                0x0000000068f5cae0                std::__cxx11::basic_string<char, std::char_traits<char>, std::allocator<char> >::crend() const
 .text$_ZNKSt7__cxx1112basic_stringIcSt11char_traitsIcESaIcEE5emptyEv
                0x0000000068f5caf0       0x10 C:/mingw64/bin/../lib/gcc/x86_64-w64-mingw32/8.1.0\libstdc++.a(string-inst.o)
                0x0000000068f5caf0                std::__cxx11::basic_string<char, std::char_traits<char>, std::allocator<char> >::empty() const
 .text$_ZNKSt7__cxx1112basic_stringIcSt11char_traitsIcESaIcEE5frontEv
                0x0000000068f5cb00       0x10 C:/mingw64/bin/../lib/gcc/x86_64-w64-mingw32/8.1.0\libstdc++.a(string-inst.o)
                0x0000000068f5cb00                std::__cxx11::basic_string<char, std::char_traits<char>, std::allocator<char> >::front() const
 .text$_ZNKSt7__cxx1112basic_stringIcSt11char_traitsIcESaIcEE5rfindEPKcy
                0x0000000068f5cb10       0x30 C:/mingw64/bin/../lib/gcc/x86_64-w64-mingw32/8.1.0\libstdc++.a(string-inst.o)
                0x0000000068f5cb10                std::__cxx11::basic_string<char, std::char_traits<char>, std::allocator<char> >::rfind(char const*, unsigned long long) const
 .text$_ZNKSt7__cxx1112basic_stringIcSt11char_traitsIcESaIcEE5rfindEPKcyy
                0x0000000068f5cb40       0x70 C:/mingw64/bin/../lib/gcc/x86_64-w64-mingw32/8.1.0\libstdc++.a(string-inst.o)
                0x0000000068f5cb40                std::__cxx11::basic_string<char, std::char_traits<char>, std::allocator<char> >::rfind(char const*, unsigned long long, unsigned long long) const
 .text$_ZNKSt7__cxx1112basic_stringIcSt11char_traitsIcESaIcEE5rfindERKS4_y
                0x0000000068f5cbb0       0x10 C:/mingw64/bin/../lib/gcc/x86_64-w64-mingw32/8.1.0\libstdc++.a(string-inst.o)
                0x0000000068f5cbb0                std::__cxx11::basic_string<char, std::char_traits<char>, std::allocator<char> >::rfind(std::__cxx11::basic_string<char, std::char_traits<char>, std::allocator<char> > const&, unsigned long long) const
 .text$_ZNKSt7__cxx1112basic_stringIcSt11char_traitsIcESaIcEE5rfindEcy
                0x0000000068f5cbc0       0x30 C:/mingw64/bin/../lib/gcc/x86_64-w64-mingw32/8.1.0\libstdc++.a(string-inst.o)
                0x0000000068f5cbc0                std::__cxx11::basic_string<char, std::char_traits<char>, std::allocator<char> >::rfind(char, unsigned long long) const
 .text$_ZNKSt7__cxx1112basic_stringIcSt11char_traitsIcESaIcEE6cbeginEv
                0x0000000068f5cbf0       0x10 C:/mingw64/bin/../lib/gcc/x86_64-w64-mingw32/8.1.0\libstdc++.a(string-inst.o)
                0x0000000068f5cbf0                std::__cxx11::basic_string<char, std::char_traits<char>, std::allocator<char> >::cbegin() const
 .text$_ZNKSt7__cxx1112basic_stringIcSt11char_traitsIcESaIcEE6lengthEv
                0x0000000068f5cc00       0x10 C:/mingw64/bin/../lib/gcc/x86_64-w64-mingw32/8.1.0\libstdc++.a(string-inst.o)
                0x0000000068f5cc00                std::__cxx11::basic_string<char, std::char_traits<char>, std::allocator<char> >::length() const
 .text$_ZNKSt7__cxx1112basic_stringIcSt11char_traitsIcESaIcEE6rbeginEv
                0x0000000068f5cc10       0x10 C:/mingw64/bin/../lib/gcc/x86_64-w64-mingw32/8.1.0\libstdc++.a(string-inst.o)
                0x0000000068f5cc10                std::__cxx11::basic_string<char, std::char_traits<char>, std::allocator<char> >::rbegin() const
 .text$_ZNKSt7__cxx1112basic_stringIcSt11char_traitsIcESaIcEE6substrEyy
                0x0000000068f5cc20       0x80 C:/mingw64/bin/../lib/gcc/x86_64-w64-mingw32/8.1.0\libstdc++.a(string-inst.o)
                0x0000000068f5cc20                std::__cxx11::basic_string<char, std::char_traits<char>, std::allocator<char> >::substr(unsigned long long, unsigned long long) const
 .text$_ZNKSt7__cxx1112basic_stringIcSt11char_traitsIcESaIcEE7_M_dataEv
                0x0000000068f5cca0       0x10 C:/mingw64/bin/../lib/gcc/x86_64-w64-mingw32/8.1.0\libstdc++.a(string-inst.o)
                0x0000000068f5cca0                std::__cxx11::basic_string<char, std::char_traits<char>, std::allocator<char> >::_M_data() const
 .text$_ZNKSt7__cxx1112basic_stringIcSt11char_traitsIcESaIcEE7compareEPKc
                0x0000000068f5ccb0       0x70 C:/mingw64/bin/../lib/gcc/x86_64-w64-mingw32/8.1.0\libstdc++.a(string-inst.o)
                0x0000000068f5ccb0                std::__cxx11::basic_string<char, std::char_traits<char>, std::allocator<char> >::compare(char const*) const
 .text$_ZNKSt7__cxx1112basic_stringIcSt11char_traitsIcESaIcEE7compareERKS4_
                0x0000000068f5cd20       0x60 C:/mingw64/bin/../lib/gcc/x86_64-w64-mingw32/8.1.0\libstdc++.a(string-inst.o)
                0x0000000068f5cd20                std::__cxx11::basic_string<char, std::char_traits<char>, std::allocator<char> >::compare(std::__cxx11::basic_string<char, std::char_traits<char>, std::allocator<char> > const&) const
 .text$_ZNKSt7__cxx1112basic_stringIcSt11char_traitsIcESaIcEE7compareEyyPKc
                0x0000000068f5cd80       0xa0 C:/mingw64/bin/../lib/gcc/x86_64-w64-mingw32/8.1.0\libstdc++.a(string-inst.o)
                0x0000000068f5cd80                std::__cxx11::basic_string<char, std::char_traits<char>, std::allocator<char> >::compare(unsigned long long, unsigned long long, char const*) const
 .text$_ZNKSt7__cxx1112basic_stringIcSt11char_traitsIcESaIcEE7compareEyyPKcy
                0x0000000068f5ce20       0x80 C:/mingw64/bin/../lib/gcc/x86_64-w64-mingw32/8.1.0\libstdc++.a(string-inst.o)
                0x0000000068f5ce20                std::__cxx11::basic_string<char, std::char_traits<char>, std::allocator<char> >::compare(unsigned long long, unsigned long long, char const*, unsigned long long) const
 .text$_ZNKSt7__cxx1112basic_stringIcSt11char_traitsIcESaIcEE7compareEyyRKS4_
                0x0000000068f5cea0       0x80 C:/mingw64/bin/../lib/gcc/x86_64-w64-mingw32/8.1.0\libstdc++.a(string-inst.o)
                0x0000000068f5cea0                std::__cxx11::basic_string<char, std::char_traits<char>, std::allocator<char> >::compare(unsigned long long, unsigned long long, std::__cxx11::basic_string<char, std::char_traits<char>, std::allocator<char> > const&) const
 .text$_ZNKSt7__cxx1112basic_stringIcSt11char_traitsIcESaIcEE7compareEyyRKS4_yy
                0x0000000068f5cf20       0xc0 C:/mingw64/bin/../lib/gcc/x86_64-w64-mingw32/8.1.0\libstdc++.a(string-inst.o)
                0x0000000068f5cf20                std::__cxx11::basic_string<char, std::char_traits<char>, std::allocator<char> >::compare(unsigned long long, unsigned long long, std::__cxx11::basic_string<char, std::char_traits<char>, std::allocator<char> > const&, unsigned long long, unsigned long long) const
 .text$_ZNKSt7__cxx1112basic_stringIcSt11char_traitsIcESaIcEE7crbeginEv
                0x0000000068f5cfe0       0x10 C:/mingw64/bin/../lib/gcc/x86_64-w64-mingw32/8.1.0\libstdc++.a(string-inst.o)
                0x0000000068f5cfe0                std::__cxx11::basic_string<char, std::char_traits<char>, std::allocator<char> >::crbegin() const
 .text$_ZNKSt7__cxx1112basic_stringIcSt11char_traitsIcESaIcEE8_M_checkEyPKc
                0x0000000068f5cff0       0x30 C:/mingw64/bin/../lib/gcc/x86_64-w64-mingw32/8.1.0\libstdc++.a(string-inst.o)
                0x0000000068f5cff0                std::__cxx11::basic_string<char, std::char_traits<char>, std::allocator<char> >::_M_check(unsigned long long, char const*) const
 .text$_ZNKSt7__cxx1112basic_stringIcSt11char_traitsIcESaIcEE8_M_limitEyy
                0x0000000068f5d020       0x10 C:/mingw64/bin/../lib/gcc/x86_64-w64-mingw32/8.1.0\libstdc++.a(string-inst.o)
                0x0000000068f5d020                std::__cxx11::basic_string<char, std::char_traits<char>, std::allocator<char> >::_M_limit(unsigned long long, unsigned long long) const
 .text$_ZNKSt7__cxx1112basic_stringIcSt11char_traitsIcESaIcEE8capacityEv
                0x0000000068f5d030       0x20 C:/mingw64/bin/../lib/gcc/x86_64-w64-mingw32/8.1.0\libstdc++.a(string-inst.o)
                0x0000000068f5d030                std::__cxx11::basic_string<char, std::char_traits<char>, std::allocator<char> >::capacity() const
 .text$_ZNKSt7__cxx1112basic_stringIcSt11char_traitsIcESaIcEE8max_sizeEv
                0x0000000068f5d050       0x10 C:/mingw64/bin/../lib/gcc/x86_64-w64-mingw32/8.1.0\libstdc++.a(string-inst.o)
                0x0000000068f5d050                std::__cxx11::basic_string<char, std::char_traits<char>, std::allocator<char> >::max_size() const
 .text$_ZNKSt7__cxx1112basic_stringIcSt11char_traitsIcESaIcEEixEy
                0x0000000068f5d060       0x10 C:/mingw64/bin/../lib/gcc/x86_64-w64-mingw32/8.1.0\libstdc++.a(string-inst.o)
                0x0000000068f5d060                std::__cxx11::basic_string<char, std::char_traits<char>, std::allocator<char> >::operator[](unsigned long long) const
 .text$_ZNKSt7__cxx1112basic_stringIwSt11char_traitsIwESaIwEE13find_first_ofEPKwy
                0x0000000068f5d070       0x60 Common__PathUtil.cpp.obj
                0x0000000068f5d070                std::__cxx11::basic_string<wchar_t, std::char_traits<wchar_t>, std::allocator<wchar_t> >::find_first_of(wchar_t const*, unsigned long long) const
 .text$_ZNKSt7__cxx1112basic_stringIwSt11char_traitsIwESaIwEE17find_first_not_ofEwy
                0x0000000068f5d0d0       0x20 Common__PathUtil.cpp.obj
                0x0000000068f5d0d0                std::__cxx11::basic_string<wchar_t, std::char_traits<wchar_t>, std::allocator<wchar_t> >::find_first_not_of(wchar_t, unsigned long long) const
 .text$_ZNKSt7__cxx1112basic_stringIwSt11char_traitsIwESaIwEE4findEPKwy
                0x0000000068f5d0f0       0x40 Common__PipeServer.cpp.obj
                0x0000000068f5d0f0                std::__cxx11::basic_string<wchar_t, std::char_traits<wchar_t>, std::allocator<wchar_t> >::find(wchar_t const*, unsigned long long) const
 .text$_ZNKSt7__cxx1112basic_stringIwSt11char_traitsIwESaIwEE4findEPKwyy
                0x0000000068f5d130       0xc0 Common__PipeServer.cpp.obj
                0x0000000068f5d130                std::__cxx11::basic_string<wchar_t, std::char_traits<wchar_t>, std::allocator<wchar_t> >::find(wchar_t const*, unsigned long long, unsigned long long) const
 .text$_ZNKSt7__cxx1112basic_stringIwSt11char_traitsIwESaIwEE5rfindEwy
                0x0000000068f5d1f0       0x40 Common__PathUtil.cpp.obj
                0x0000000068f5d1f0                std::__cxx11::basic_string<wchar_t, std::char_traits<wchar_t>, std::allocator<wchar_t> >::rfind(wchar_t, unsigned long long) const
 .text$_ZNKSt7__cxx1112basic_stringIwSt11char_traitsIwESaIwEE7compareEPKw
                0x0000000068f5d230       0x60 Common__PathUtil.cpp.obj
                0x0000000068f5d230                std::__cxx11::basic_string<wchar_t, std::char_traits<wchar_t>, std::allocator<wchar_t> >::compare(wchar_t const*) const
 .text$_ZNKSt7__cxx1112basic_stringIwSt11char_traitsIwESaIwEE7compareEyyPKw
                0x0000000068f5d290       0xa0 Common__CtrlCmdUtil.cpp.obj
                0x0000000068f5d290                std::__cxx11::basic_string<wchar_t, std::char_traits<wchar_t>, std::allocator<wchar_t> >::compare(unsigned long long, unsigned long long, wchar_t const*) const
 .text$_ZNKSt7__cxx1112basic_stringIwSt11char_traitsIwESaIwEE8_M_checkEyPKc
                0x0000000068f5d330       0x30 Common__PathUtil.cpp.obj
                0x0000000068f5d330                std::__cxx11::basic_string<wchar_t, std::char_traits<wchar_t>, std::allocator<wchar_t> >::_M_check(unsigned long long, char const*) const
 .text$_ZNKSt8bad_cast4whatEv
                0x0000000068f5d360       0x10 C:/mingw64/bin/../lib/gcc/x86_64-w64-mingw32/8.1.0\libstdc++.a(bad_cast.o)
                0x0000000068f5d360                std::bad_cast::what() const
 .text$_ZNKSt9bad_alloc4whatEv
                0x0000000068f5d370       0x10 C:/mingw64/bin/../lib/gcc/x86_64-w64-mingw32/8.1.0\libstdc++.a(bad_alloc.o)
                0x0000000068f5d370                std::bad_alloc::what() const
 .text$_ZNKSt9exception4whatEv
                0x0000000068f5d380       0x10 C:/mingw64/bin/../lib/gcc/x86_64-w64-mingw32/8.1.0\libstdc++.a(eh_exception.o)
                0x0000000068f5d380                std::exception::what() const
                0x0000000068f5d380                transaction clone for std::exception::what() const
 .text$_ZNKSt9type_info10__do_catchEPKS_PPvj
                0x0000000068f5d390       0x10 C:/mingw64/bin/../lib/gcc/x86_64-w64-mingw32/8.1.0\libstdc++.a(tinfo.o)
                0x0000000068f5d390                std::type_info::__do_catch(std::type_info const*, void**, unsigned int) const
 .text$_ZNKSt9type_info11__do_upcastEPKN10__cxxabiv117__class_type_infoEPPv
                0x0000000068f5d3a0       0x10 C:/mingw64/bin/../lib/gcc/x86_64-w64-mingw32/8.1.0\libstdc++.a(tinfo.o)
                0x0000000068f5d3a0                std::type_info::__do_upcast(__cxxabiv1::__class_type_info const*, void**) const
 .text$_ZNKSt9type_info14__is_pointer_pEv
                0x0000000068f5d3b0       0x10 C:/mingw64/bin/../lib/gcc/x86_64-w64-mingw32/8.1.0\libstdc++.a(tinfo.o)
                0x0000000068f5d3b0                std::type_info::__is_pointer_p() const
                0x0000000068f5d3b0                std::type_info::__is_function_p() const
 .text$_ZNKSt9type_infoeqERKS_
                0x0000000068f5d3c0       0x40 C:/mingw64/bin/../lib/gcc/x86_64-w64-mingw32/8.1.0\libstdc++.a(tinfo.o)
                0x0000000068f5d3c0                std::type_info::operator==(std::type_info const&) const
 .text$_ZNSs10_S_compareEyy
                0x0000000068f5d400       0x20 C:/mingw64/bin/../lib/gcc/x86_64-w64-mingw32/8.1.0\libstdc++.a(cow-string-inst.o)
                0x0000000068f5d400                std::string::_S_compare(unsigned long long, unsigned long long)
 .text$_ZNSs12_Alloc_hiderC1EPcRKSaIcE
                0x0000000068f5d420       0x10 C:/mingw64/bin/../lib/gcc/x86_64-w64-mingw32/8.1.0\libstdc++.a(cow-string-inst.o)
                0x0000000068f5d420                std::string::_Alloc_hider::_Alloc_hider(char*, std::allocator<char> const&)
 .text$_ZNSs12_Alloc_hiderC2EPcRKSaIcE
                0x0000000068f5d430       0x10 C:/mingw64/bin/../lib/gcc/x86_64-w64-mingw32/8.1.0\libstdc++.a(cow-string-inst.o)
                0x0000000068f5d430                std::string::_Alloc_hider::_Alloc_hider(char*, std::allocator<char> const&)
 .text$_ZNSs12_M_leak_hardEv
                0x0000000068f5d440       0x30 C:/mingw64/bin/../lib/gcc/x86_64-w64-mingw32/8.1.0\libstdc++.a(cow-string-inst.o)
                0x0000000068f5d440                std::string::_M_leak_hard()
 .text$_ZNSs12_S_constructEycRKSaIcE
                0x0000000068f5d470       0x60 C:/mingw64/bin/../lib/gcc/x86_64-w64-mingw32/8.1.0\libstdc++.a(cow-string-inst.o)
                0x0000000068f5d470                std::string::_S_construct(unsigned long long, char, std::allocator<char> const&)
 .text$_ZNSs12_S_constructIN9__gnu_cxx17__normal_iteratorIPcSsEEEES2_T_S4_RKSaIcESt20forward_iterator_tag
                0x0000000068f5d4d0       0x70 C:/mingw64/bin/../lib/gcc/x86_64-w64-mingw32/8.1.0\libstdc++.a(cow-string-inst.o)
                0x0000000068f5d4d0                char* std::string::_S_construct<__gnu_cxx::__normal_iterator<char*, std::string> >(__gnu_cxx::__normal_iterator<char*, std::string>, __gnu_cxx::__normal_iterator<char*, std::string>, std::allocator<char> const&, std::forward_iterator_tag)
 .text$_ZNSs12_S_constructIPKcEEPcT_S3_RKSaIcESt20forward_iterator_tag
                0x0000000068f5d540       0x80 C:/mingw64/bin/../lib/gcc/x86_64-w64-mingw32/8.1.0\libstdc++.a(cow-string-inst.o)
                0x0000000068f5d540                char* std::string::_S_construct<char const*>(char const*, char const*, std::allocator<char> const&, std::forward_iterator_tag)
 .text$_ZNSs12_S_constructIPcEES0_T_S1_RKSaIcESt20forward_iterator_tag
                0x0000000068f5d5c0       0x80 C:/mingw64/bin/../lib/gcc/x86_64-w64-mingw32/8.1.0\libstdc++.a(cow-string-inst.o)
                0x0000000068f5d5c0                char* std::string::_S_construct<char*>(char*, char*, std::allocator<char> const&, std::forward_iterator_tag)
 .text$_ZNSs12_S_empty_repEv
                0x0000000068f5d640       0x10 C:/mingw64/bin/../lib/gcc/x86_64-w64-mingw32/8.1.0\libstdc++.a(cow-string-inst.o)
                0x0000000068f5d640                std::string::_S_empty_rep()
 .text$_ZNSs13_S_copy_charsEPcN9__gnu_cxx17__normal_iteratorIPKcSsEES4_
                0x0000000068f5d650       0x20 C:/mingw64/bin/../lib/gcc/x86_64-w64-mingw32/8.1.0\libstdc++.a(cow-string-inst.o)
                0x0000000068f5d650                std::string::_S_copy_chars(char*, __gnu_cxx::__normal_iterator<char const*, std::string>, __gnu_cxx::__normal_iterator<char const*, std::string>)
 .text$_ZNSs13_S_copy_charsEPcN9__gnu_cxx17__normal_iteratorIS_SsEES2_
                0x0000000068f5d670       0x20 C:/mingw64/bin/../lib/gcc/x86_64-w64-mingw32/8.1.0\libstdc++.a(cow-string-inst.o)
                0x0000000068f5d670                std::string::_S_copy_chars(char*, __gnu_cxx::__normal_iterator<char*, std::string>, __gnu_cxx::__normal_iterator<char*, std::string>)
 .text$_ZNSs13_S_copy_charsEPcPKcS1_
                0x0000000068f5d690       0x20 C:/mingw64/bin/../lib/gcc/x86_64-w64-mingw32/8.1.0\libstdc++.a(cow-string-inst.o)
                0x0000000068f5d690                std::string::_S_copy_chars(char*, char const*, char const*)
 .text$_ZNSs13_S_copy_charsEPcS_S_
                0x0000000068f5d6b0       0x20 C:/mingw64/bin/../lib/gcc/x86_64-w64-mingw32/8.1.0\libstdc++.a(cow-string-inst.o)
                0x0000000068f5d6b0                std::string::_S_copy_chars(char*, char*, char*)
 .text$_ZNSs13shrink_to_fitEv
                0x0000000068f5d6d0       0x40 C:/mingw64/bin/../lib/gcc/x86_64-w64-mingw32/8.1.0\libstdc++.a(cow-string-inst.o)
                0x0000000068f5d6d0                std::string::shrink_to_fit()
 .text$_ZNSs14_M_replace_auxEyyyc
                0x0000000068f5d710       0x80 C:/mingw64/bin/../lib/gcc/x86_64-w64-mingw32/8.1.0\libstdc++.a(cow-string-inst.o)
                0x0000000068f5d710                std::string::_M_replace_aux(unsigned long long, unsigned long long, unsigned long long, char)
 .text$_ZNSs15_M_replace_safeEyyPKcy
                0x0000000068f5d790       0x70 C:/mingw64/bin/../lib/gcc/x86_64-w64-mingw32/8.1.0\libstdc++.a(cow-string-inst.o)
                0x0000000068f5d790                std::string::_M_replace_safe(unsigned long long, unsigned long long, char const*, unsigned long long)
 .text$_ZNSs18_S_construct_aux_2EycRKSaIcE
                0x0000000068f5d800       0x10 C:/mingw64/bin/../lib/gcc/x86_64-w64-mingw32/8.1.0\libstdc++.a(cow-string-inst.o)
                0x0000000068f5d800                std::string::_S_construct_aux_2(unsigned long long, char, std::allocator<char> const&)
 .text$_ZNSs2atEy
                0x0000000068f5d810       0x40 C:/mingw64/bin/../lib/gcc/x86_64-w64-mingw32/8.1.0\libstdc++.a(cow-string-inst.o)
                0x0000000068f5d810                std::string::at(unsigned long long)
 .text$_ZNSs3endEv
                0x0000000068f5d850       0x30 C:/mingw64/bin/../lib/gcc/x86_64-w64-mingw32/8.1.0\libstdc++.a(cow-string-inst.o)
                0x0000000068f5d850                std::string::end()
 .text$_ZNSs4_Rep10_M_destroyERKSaIcE
                0x0000000068f5d880       0x10 C:/mingw64/bin/../lib/gcc/x86_64-w64-mingw32/8.1.0\libstdc++.a(cow-string-inst.o)
                0x0000000068f5d880                std::string::_Rep::_M_destroy(std::allocator<char> const&)
 .text$_ZNSs4_Rep10_M_disposeERKSaIcE
                0x0000000068f5d890       0x40 C:/mingw64/bin/../lib/gcc/x86_64-w64-mingw32/8.1.0\libstdc++.a(cow-string-inst.o)
                0x0000000068f5d890                std::string::_Rep::_M_dispose(std::allocator<char> const&)
 .text$_ZNSs4_Rep10_M_refcopyEv
                0x0000000068f5d8d0       0x30 C:/mingw64/bin/../lib/gcc/x86_64-w64-mingw32/8.1.0\libstdc++.a(cow-string-inst.o)
                0x0000000068f5d8d0                std::string::_Rep::_M_refcopy()
 .text$_ZNSs4_Rep10_M_refdataEv
                0x0000000068f5d900       0x10 C:/mingw64/bin/../lib/gcc/x86_64-w64-mingw32/8.1.0\libstdc++.a(cow-string-inst.o)
                0x0000000068f5d900                std::string::_Rep::_M_refdata()
 .text$_ZNSs4_Rep12_S_empty_repEv
                0x0000000068f5d910       0x10 C:/mingw64/bin/../lib/gcc/x86_64-w64-mingw32/8.1.0\libstdc++.a(cow-string-inst.o)
                0x0000000068f5d910                std::string::_Rep::_S_empty_rep()
 .text$_ZNSs4_Rep13_M_set_leakedEv
                0x0000000068f5d920       0x10 C:/mingw64/bin/../lib/gcc/x86_64-w64-mingw32/8.1.0\libstdc++.a(cow-string-inst.o)
                0x0000000068f5d920                std::string::_Rep::_M_set_leaked()
 .text$_ZNSs4_Rep15_M_set_sharableEv
                0x0000000068f5d930       0x10 C:/mingw64/bin/../lib/gcc/x86_64-w64-mingw32/8.1.0\libstdc++.a(cow-string-inst.o)
                0x0000000068f5d930                std::string::_Rep::_M_set_sharable()
 .text$_ZNSs4_Rep26_M_set_length_and_sharableEy
                0x0000000068f5d940       0x10 C:/mingw64/bin/../lib/gcc/x86_64-w64-mingw32/8.1.0\libstdc++.a(cow-string-inst.o)
                0x0000000068f5d940                std::string::_Rep::_M_set_length_and_sharable(unsigned long long)
 .text$_ZNSs4_Rep7_M_grabERKSaIcES2_
                0x0000000068f5d950       0x40 C:/mingw64/bin/../lib/gcc/x86_64-w64-mingw32/8.1.0\libstdc++.a(cow-string-inst.o)
                0x0000000068f5d950                std::string::_Rep::_M_grab(std::allocator<char> const&, std::allocator<char> const&)
 .text$_ZNSs4_Rep8_M_cloneERKSaIcEy
                0x0000000068f5d990       0x70 C:/mingw64/bin/../lib/gcc/x86_64-w64-mingw32/8.1.0\libstdc++.a(cow-string-inst.o)
                0x0000000068f5d990                std::string::_Rep::_M_clone(std::allocator<char> const&, unsigned long long)
 .text$_ZNSs4_Rep9_S_createEyyRKSaIcE
                0x0000000068f5da00       0x80 C:/mingw64/bin/../lib/gcc/x86_64-w64-mingw32/8.1.0\libstdc++.a(cow-string-inst.o)
                0x0000000068f5da00                std::string::_Rep::_S_create(unsigned long long, unsigned long long, std::allocator<char> const&)
 .text$_ZNSs4backEv
                0x0000000068f5da80       0x30 C:/mingw64/bin/../lib/gcc/x86_64-w64-mingw32/8.1.0\libstdc++.a(cow-string-inst.o)
                0x0000000068f5da80                std::string::back()
 .text$_ZNSs4rendEv
                0x0000000068f5dab0       0x30 C:/mingw64/bin/../lib/gcc/x86_64-w64-mingw32/8.1.0\libstdc++.a(cow-string-inst.o)
                0x0000000068f5dab0                std::string::rend()
 .text$_ZNSs4swapERSs
                0x0000000068f5dae0       0x30 C:/mingw64/bin/../lib/gcc/x86_64-w64-mingw32/8.1.0\libstdc++.a(cow-string-inst.o)
                0x0000000068f5dae0                std::string::swap(std::string&)
 .text$_ZNSs5beginEv
                0x0000000068f5db10       0x20 C:/mingw64/bin/../lib/gcc/x86_64-w64-mingw32/8.1.0\libstdc++.a(cow-string-inst.o)
                0x0000000068f5db10                std::string::begin()
 .text$_ZNSs5clearEv
                0x0000000068f5db30       0x20 C:/mingw64/bin/../lib/gcc/x86_64-w64-mingw32/8.1.0\libstdc++.a(cow-string-inst.o)
                0x0000000068f5db30                std::string::clear()
 .text$_ZNSs5eraseEN9__gnu_cxx17__normal_iteratorIPcSsEE
                0x0000000068f5db50       0x40 C:/mingw64/bin/../lib/gcc/x86_64-w64-mingw32/8.1.0\libstdc++.a(cow-string-inst.o)
                0x0000000068f5db50                std::string::erase(__gnu_cxx::__normal_iterator<char*, std::string>)
 .text$_ZNSs5eraseEN9__gnu_cxx17__normal_iteratorIPcSsEES2_
                0x0000000068f5db90       0x50 C:/mingw64/bin/../lib/gcc/x86_64-w64-mingw32/8.1.0\libstdc++.a(cow-string-inst.o)
                0x0000000068f5db90                std::string::erase(__gnu_cxx::__normal_iterator<char*, std::string>, __gnu_cxx::__normal_iterator<char*, std::string>)
 .text$_ZNSs5eraseEyy
                0x0000000068f5dbe0       0x50 C:/mingw64/bin/../lib/gcc/x86_64-w64-mingw32/8.1.0\libstdc++.a(cow-string-inst.o)
                0x0000000068f5dbe0                std::string::erase(unsigned long long, unsigned long long)
 .text$_ZNSs5frontEv
                0x0000000068f5dc30       0x20 C:/mingw64/bin/../lib/gcc/x86_64-w64-mingw32/8.1.0\libstdc++.a(cow-string-inst.o)
                0x0000000068f5dc30                std::string::front()
 .text$_ZNSs6appendEPKc
                0x0000000068f5dc50       0x30 C:/mingw64/bin/../lib/gcc/x86_64-w64-mingw32/8.1.0\libstdc++.a(cow-string-inst.o)
                0x0000000068f5dc50                std::string::append(char const*)
 .text$_ZNSs6appendEPKcy
                0x0000000068f5dc80       0xf0 C:/mingw64/bin/../lib/gcc/x86_64-w64-mingw32/8.1.0\libstdc++.a(cow-string-inst.o)
                0x0000000068f5dc80                std::string::append(char const*, unsigned long long)
 .text$_ZNSs6appendERKSs
                0x0000000068f5dd70       0x90 C:/mingw64/bin/../lib/gcc/x86_64-w64-mingw32/8.1.0\libstdc++.a(cow-string-inst.o)
                0x0000000068f5dd70                std::string::append(std::string const&)
 .text$_ZNSs6appendERKSsyy
                0x0000000068f5de00       0xb0 C:/mingw64/bin/../lib/gcc/x86_64-w64-mingw32/8.1.0\libstdc++.a(cow-string-inst.o)
                0x0000000068f5de00                std::string::append(std::string const&, unsigned long long, unsigned long long)
 .text$_ZNSs6appendESt16initializer_listIcE
                0x0000000068f5deb0       0x10 C:/mingw64/bin/../lib/gcc/x86_64-w64-mingw32/8.1.0\libstdc++.a(cow-string-inst.o)
                0x0000000068f5deb0                std::string::append(std::initializer_list<char>)
 .text$_ZNSs6appendEyc
                0x0000000068f5dec0       0x20 C:/mingw64/bin/../lib/gcc/x86_64-w64-mingw32/8.1.0\libstdc++.a(cow-string-inst.o)
                0x0000000068f5dec0                std::string::append(unsigned long long, char)
 .text$_ZNSs6appendEyc.part.20
                0x0000000068f5dee0       0xa0 C:/mingw64/bin/../lib/gcc/x86_64-w64-mingw32/8.1.0\libstdc++.a(cow-string-inst.o)
 .text$_ZNSs6assignEOSs
                0x0000000068f5df80       0x20 C:/mingw64/bin/../lib/gcc/x86_64-w64-mingw32/8.1.0\libstdc++.a(cow-string-inst.o)
                0x0000000068f5df80                std::string::assign(std::string&&)
 .text$_ZNSs6assignEPKc
                0x0000000068f5dfa0       0x30 C:/mingw64/bin/../lib/gcc/x86_64-w64-mingw32/8.1.0\libstdc++.a(cow-string-inst.o)
                0x0000000068f5dfa0                std::string::assign(char const*)
 .text$_ZNSs6assignEPKcy
                0x0000000068f5dfd0       0xe0 C:/mingw64/bin/../lib/gcc/x86_64-w64-mingw32/8.1.0\libstdc++.a(cow-string-inst.o)
                0x0000000068f5dfd0                std::string::assign(char const*, unsigned long long)
 .text$_ZNSs6assignERKSs
                0x0000000068f5e0b0       0xa0 C:/mingw64/bin/../lib/gcc/x86_64-w64-mingw32/8.1.0\libstdc++.a(cow-string-inst.o)
                0x0000000068f5e0b0                std::string::assign(std::string const&)
 .text$_ZNSs6assignERKSsyy
                0x0000000068f5e150       0x50 C:/mingw64/bin/../lib/gcc/x86_64-w64-mingw32/8.1.0\libstdc++.a(cow-string-inst.o)
                0x0000000068f5e150                std::string::assign(std::string const&, unsigned long long, unsigned long long)
 .text$_ZNSs6assignESt16initializer_listIcE
                0x0000000068f5e1a0       0x10 C:/mingw64/bin/../lib/gcc/x86_64-w64-mingw32/8.1.0\libstdc++.a(cow-string-inst.o)
                0x0000000068f5e1a0                std::string::assign(std::initializer_list<char>)
 .text$_ZNSs6assignEyc
                0x0000000068f5e1b0       0x30 C:/mingw64/bin/../lib/gcc/x86_64-w64-mingw32/8.1.0\libstdc++.a(cow-string-inst.o)
                0x0000000068f5e1b0                std::string::assign(unsigned long long, char)
 .text$_ZNSs6insertEN9__gnu_cxx17__normal_iteratorIPcSsEESt16initializer_listIcE
                0x0000000068f5e1e0       0x10 C:/mingw64/bin/../lib/gcc/x86_64-w64-mingw32/8.1.0\libstdc++.a(cow-string-inst.o)
                0x0000000068f5e1e0                std::string::insert(__gnu_cxx::__normal_iterator<char*, std::string>, std::initializer_list<char>)
 .text$_ZNSs6insertEN9__gnu_cxx17__normal_iteratorIPcSsEEc
                0x0000000068f5e1f0       0x40 C:/mingw64/bin/../lib/gcc/x86_64-w64-mingw32/8.1.0\libstdc++.a(cow-string-inst.o)
                0x0000000068f5e1f0                std::string::insert(__gnu_cxx::__normal_iterator<char*, std::string>, char)
 .text$_ZNSs6insertEN9__gnu_cxx17__normal_iteratorIPcSsEEyc
                0x0000000068f5e230       0x30 C:/mingw64/bin/../lib/gcc/x86_64-w64-mingw32/8.1.0\libstdc++.a(cow-string-inst.o)
                0x0000000068f5e230                std::string::insert(__gnu_cxx::__normal_iterator<char*, std::string>, unsigned long long, char)
 .text$_ZNSs6insertEyPKc
                0x0000000068f5e260       0x30 C:/mingw64/bin/../lib/gcc/x86_64-w64-mingw32/8.1.0\libstdc++.a(cow-string-inst.o)
                0x0000000068f5e260                std::string::insert(unsigned long long, char const*)
 .text$_ZNSs6insertEyPKcy
                0x0000000068f5e290      0x170 C:/mingw64/bin/../lib/gcc/x86_64-w64-mingw32/8.1.0\libstdc++.a(cow-string-inst.o)
                0x0000000068f5e290                std::string::insert(unsigned long long, char const*, unsigned long long)
 .text$_ZNSs6insertEyRKSs
                0x0000000068f5e400       0x10 C:/mingw64/bin/../lib/gcc/x86_64-w64-mingw32/8.1.0\libstdc++.a(cow-string-inst.o)
                0x0000000068f5e400                std::string::insert(unsigned long long, std::string const&)
 .text$_ZNSs6insertEyRKSsyy
                0x0000000068f5e410       0x50 C:/mingw64/bin/../lib/gcc/x86_64-w64-mingw32/8.1.0\libstdc++.a(cow-string-inst.o)
                0x0000000068f5e410                std::string::insert(unsigned long long, std::string const&, unsigned long long, unsigned long long)
 .text$_ZNSs6insertEyyc
                0x0000000068f5e460       0x50 C:/mingw64/bin/../lib/gcc/x86_64-w64-mingw32/8.1.0\libstdc++.a(cow-string-inst.o)
                0x0000000068f5e460                std::string::insert(unsigned long long, unsigned long long, char)
 .text$_ZNSs6rbeginEv
                0x0000000068f5e4b0       0x40 C:/mingw64/bin/../lib/gcc/x86_64-w64-mingw32/8.1.0\libstdc++.a(cow-string-inst.o)
                0x0000000068f5e4b0                std::string::rbegin()
 .text$_ZNSs6resizeEy
                0x0000000068f5e4f0       0x10 C:/mingw64/bin/../lib/gcc/x86_64-w64-mingw32/8.1.0\libstdc++.a(cow-string-inst.o)
                0x0000000068f5e4f0                std::string::resize(unsigned long long)
 .text$_ZNSs6resizeEyc
                0x0000000068f5e500       0x60 C:/mingw64/bin/../lib/gcc/x86_64-w64-mingw32/8.1.0\libstdc++.a(cow-string-inst.o)
                0x0000000068f5e500                std::string::resize(unsigned long long, char)
 .text$_ZNSs7_M_copyEPcPKcy
                0x0000000068f5e560       0x20 C:/mingw64/bin/../lib/gcc/x86_64-w64-mingw32/8.1.0\libstdc++.a(cow-string-inst.o)
                0x0000000068f5e560                std::string::_M_copy(char*, char const*, unsigned long long)
 .text$_ZNSs7_M_dataEPc
                0x0000000068f5e580       0x10 C:/mingw64/bin/../lib/gcc/x86_64-w64-mingw32/8.1.0\libstdc++.a(cow-string-inst.o)
                0x0000000068f5e580                std::string::_M_data(char*)
 .text$_ZNSs7_M_leakEv
                0x0000000068f5e590       0x20 C:/mingw64/bin/../lib/gcc/x86_64-w64-mingw32/8.1.0\libstdc++.a(cow-string-inst.o)
                0x0000000068f5e590                std::string::_M_leak()
 .text$_ZNSs7_M_moveEPcPKcy
                0x0000000068f5e5b0       0x20 C:/mingw64/bin/../lib/gcc/x86_64-w64-mingw32/8.1.0\libstdc++.a(cow-string-inst.o)
                0x0000000068f5e5b0                std::string::_M_move(char*, char const*, unsigned long long)
 .text$_ZNSs7replaceEN9__gnu_cxx17__normal_iteratorIPcSsEES2_NS0_IPKcSsEES5_
                0x0000000068f5e5d0       0x20 C:/mingw64/bin/../lib/gcc/x86_64-w64-mingw32/8.1.0\libstdc++.a(cow-string-inst.o)
                0x0000000068f5e5d0                std::string::replace(__gnu_cxx::__normal_iterator<char*, std::string>, __gnu_cxx::__normal_iterator<char*, std::string>, __gnu_cxx::__normal_iterator<char const*, std::string>, __gnu_cxx::__normal_iterator<char const*, std::string>)
 .text$_ZNSs7replaceEN9__gnu_cxx17__normal_iteratorIPcSsEES2_PKc
                0x0000000068f5e5f0       0x50 C:/mingw64/bin/../lib/gcc/x86_64-w64-mingw32/8.1.0\libstdc++.a(cow-string-inst.o)
                0x0000000068f5e5f0                std::string::replace(__gnu_cxx::__normal_iterator<char*, std::string>, __gnu_cxx::__normal_iterator<char*, std::string>, char const*)
 .text$_ZNSs7replaceEN9__gnu_cxx17__normal_iteratorIPcSsEES2_PKcS4_
                0x0000000068f5e640       0x20 C:/mingw64/bin/../lib/gcc/x86_64-w64-mingw32/8.1.0\libstdc++.a(cow-string-inst.o)
                0x0000000068f5e640                std::string::replace(__gnu_cxx::__normal_iterator<char*, std::string>, __gnu_cxx::__normal_iterator<char*, std::string>, char const*, char const*)
 .text$_ZNSs7replaceEN9__gnu_cxx17__normal_iteratorIPcSsEES2_PKcy
                0x0000000068f5e660       0x10 C:/mingw64/bin/../lib/gcc/x86_64-w64-mingw32/8.1.0\libstdc++.a(cow-string-inst.o)
                0x0000000068f5e660                std::string::replace(__gnu_cxx::__normal_iterator<char*, std::string>, __gnu_cxx::__normal_iterator<char*, std::string>, char const*, unsigned long long)
 .text$_ZNSs7replaceEN9__gnu_cxx17__normal_iteratorIPcSsEES2_RKSs
                0x0000000068f5e670       0x30 C:/mingw64/bin/../lib/gcc/x86_64-w64-mingw32/8.1.0\libstdc++.a(cow-string-inst.o)
                0x0000000068f5e670                std::string::replace(__gnu_cxx::__normal_iterator<char*, std::string>, __gnu_cxx::__normal_iterator<char*, std::string>, std::string const&)
 .text$_ZNSs7replaceEN9__gnu_cxx17__normal_iteratorIPcSsEES2_S1_S1_
                0x0000000068f5e6a0       0x20 C:/mingw64/bin/../lib/gcc/x86_64-w64-mingw32/8.1.0\libstdc++.a(cow-string-inst.o)
                0x0000000068f5e6a0                std::string::replace(__gnu_cxx::__normal_iterator<char*, std::string>, __gnu_cxx::__normal_iterator<char*, std::string>, char*, char*)
 .text$_ZNSs7replaceEN9__gnu_cxx17__normal_iteratorIPcSsEES2_S2_S2_
                0x0000000068f5e6c0       0x20 C:/mingw64/bin/../lib/gcc/x86_64-w64-mingw32/8.1.0\libstdc++.a(cow-string-inst.o)
                0x0000000068f5e6c0                std::string::replace(__gnu_cxx::__normal_iterator<char*, std::string>, __gnu_cxx::__normal_iterator<char*, std::string>, __gnu_cxx::__normal_iterator<char*, std::string>, __gnu_cxx::__normal_iterator<char*, std::string>)
 .text$_ZNSs7replaceEN9__gnu_cxx17__normal_iteratorIPcSsEES2_St16initializer_listIcE
                0x0000000068f5e6e0       0x30 C:/mingw64/bin/../lib/gcc/x86_64-w64-mingw32/8.1.0\libstdc++.a(cow-string-inst.o)
                0x0000000068f5e6e0                std::string::replace(__gnu_cxx::__normal_iterator<char*, std::string>, __gnu_cxx::__normal_iterator<char*, std::string>, std::initializer_list<char>)
 .text$_ZNSs7replaceEN9__gnu_cxx17__normal_iteratorIPcSsEES2_yc
                0x0000000068f5e710       0x20 C:/mingw64/bin/../lib/gcc/x86_64-w64-mingw32/8.1.0\libstdc++.a(cow-string-inst.o)
                0x0000000068f5e710                std::string::replace(__gnu_cxx::__normal_iterator<char*, std::string>, __gnu_cxx::__normal_iterator<char*, std::string>, unsigned long long, char)
 .text$_ZNSs7replaceEyyPKc
                0x0000000068f5e730       0x40 C:/mingw64/bin/../lib/gcc/x86_64-w64-mingw32/8.1.0\libstdc++.a(cow-string-inst.o)
                0x0000000068f5e730                std::string::replace(unsigned long long, unsigned long long, char const*)
 .text$_ZNSs7replaceEyyPKcy
                0x0000000068f5e770      0x1c0 C:/mingw64/bin/../lib/gcc/x86_64-w64-mingw32/8.1.0\libstdc++.a(cow-string-inst.o)
                0x0000000068f5e770                std::string::replace(unsigned long long, unsigned long long, char const*, unsigned long long)
 .text$_ZNSs7replaceEyyRKSs
                0x0000000068f5e930       0x20 C:/mingw64/bin/../lib/gcc/x86_64-w64-mingw32/8.1.0\libstdc++.a(cow-string-inst.o)
                0x0000000068f5e930                std::string::replace(unsigned long long, unsigned long long, std::string const&)
 .text$_ZNSs7replaceEyyRKSsyy
                0x0000000068f5e950       0x60 C:/mingw64/bin/../lib/gcc/x86_64-w64-mingw32/8.1.0\libstdc++.a(cow-string-inst.o)
                0x0000000068f5e950                std::string::replace(unsigned long long, unsigned long long, std::string const&, unsigned long long, unsigned long long)
 .text$_ZNSs7replaceEyyyc
                0x0000000068f5e9b0       0x50 C:/mingw64/bin/../lib/gcc/x86_64-w64-mingw32/8.1.0\libstdc++.a(cow-string-inst.o)
                0x0000000068f5e9b0                std::string::replace(unsigned long long, unsigned long long, unsigned long long, char)
 .text$_ZNSs7reserveEy
                0x0000000068f5ea00       0x90 C:/mingw64/bin/../lib/gcc/x86_64-w64-mingw32/8.1.0\libstdc++.a(cow-string-inst.o)
                0x0000000068f5ea00                std::string::reserve(unsigned long long)
 .text$_ZNSs8pop_backEv
                0x0000000068f5ea90       0x40 C:/mingw64/bin/../lib/gcc/x86_64-w64-mingw32/8.1.0\libstdc++.a(cow-string-inst.o)
                0x0000000068f5ea90                std::string::pop_back()
 .text$_ZNSs9_M_assignEPcyc
                0x0000000068f5ead0       0x30 C:/mingw64/bin/../lib/gcc/x86_64-w64-mingw32/8.1.0\libstdc++.a(cow-string-inst.o)
                0x0000000068f5ead0                std::string::_M_assign(char*, unsigned long long, char)
 .text$_ZNSs9_M_mutateEyyy
                0x0000000068f5eb00      0x180 C:/mingw64/bin/../lib/gcc/x86_64-w64-mingw32/8.1.0\libstdc++.a(cow-string-inst.o)
                0x0000000068f5eb00                std::string::_M_mutate(unsigned long long, unsigned long long, unsigned long long)
 .text$_ZNSs9push_backEc
                0x0000000068f5ec80       0x60 C:/mingw64/bin/../lib/gcc/x86_64-w64-mingw32/8.1.0\libstdc++.a(cow-string-inst.o)
                0x0000000068f5ec80                std::string::push_back(char)
 .text$_ZNSsC1EOSs
                0x0000000068f5ece0       0x30 C:/mingw64/bin/../lib/gcc/x86_64-w64-mingw32/8.1.0\libstdc++.a(cow-string-inst.o)
                0x0000000068f5ece0                std::basic_string<char, std::char_traits<char>, std::allocator<char> >::basic_string(std::string&&)
 .text$_ZNSsC1EPKcRKSaIcE
                0x0000000068f5ed10       0x50 C:/mingw64/bin/../lib/gcc/x86_64-w64-mingw32/8.1.0\libstdc++.a(cow-string-inst.o)
                0x0000000068f5ed10                std::basic_string<char, std::char_traits<char>, std::allocator<char> >::basic_string(char const*, std::allocator<char> const&)
 .text$_ZNSsC1EPKcyRKSaIcE
                0x0000000068f5ed60       0x30 C:/mingw64/bin/../lib/gcc/x86_64-w64-mingw32/8.1.0\libstdc++.a(cow-string-inst.o)
                0x0000000068f5ed60                std::basic_string<char, std::char_traits<char>, std::allocator<char> >::basic_string(char const*, unsigned long long, std::allocator<char> const&)
 .text$_ZNSsC1ERKSaIcE
                0x0000000068f5ed90       0x20 C:/mingw64/bin/../lib/gcc/x86_64-w64-mingw32/8.1.0\libstdc++.a(cow-string-inst.o)
                0x0000000068f5ed90                std::basic_string<char, std::char_traits<char>, std::allocator<char> >::basic_string(std::allocator<char> const&)
 .text$_ZNSsC1ERKSs
                0x0000000068f5edb0       0x60 C:/mingw64/bin/../lib/gcc/x86_64-w64-mingw32/8.1.0\libstdc++.a(cow-string-inst.o)
                0x0000000068f5edb0                std::basic_string<char, std::char_traits<char>, std::allocator<char> >::basic_string(std::string const&)
 .text$_ZNSsC1ERKSsyRKSaIcE
                0x0000000068f5ee10       0x50 C:/mingw64/bin/../lib/gcc/x86_64-w64-mingw32/8.1.0\libstdc++.a(cow-string-inst.o)
                0x0000000068f5ee10                std::basic_string<char, std::char_traits<char>, std::allocator<char> >::basic_string(std::string const&, unsigned long long, std::allocator<char> const&)
 .text$_ZNSsC1ERKSsyy
                0x0000000068f5ee60       0x60 C:/mingw64/bin/../lib/gcc/x86_64-w64-mingw32/8.1.0\libstdc++.a(cow-string-inst.o)
                0x0000000068f5ee60                std::basic_string<char, std::char_traits<char>, std::allocator<char> >::basic_string(std::string const&, unsigned long long, unsigned long long)
 .text$_ZNSsC1ERKSsyyRKSaIcE
                0x0000000068f5eec0       0x60 C:/mingw64/bin/../lib/gcc/x86_64-w64-mingw32/8.1.0\libstdc++.a(cow-string-inst.o)
                0x0000000068f5eec0                std::basic_string<char, std::char_traits<char>, std::allocator<char> >::basic_string(std::string const&, unsigned long long, unsigned long long, std::allocator<char> const&)
 .text$_ZNSsC1ESt16initializer_listIcERKSaIcE
                0x0000000068f5ef20       0x30 C:/mingw64/bin/../lib/gcc/x86_64-w64-mingw32/8.1.0\libstdc++.a(cow-string-inst.o)
                0x0000000068f5ef20                std::basic_string<char, std::char_traits<char>, std::allocator<char> >::basic_string(std::initializer_list<char>, std::allocator<char> const&)
 .text$_ZNSsC1Ev
                0x0000000068f5ef50       0x20 C:/mingw64/bin/../lib/gcc/x86_64-w64-mingw32/8.1.0\libstdc++.a(cow-string-inst.o)
                0x0000000068f5ef50                std::basic_string<char, std::char_traits<char>, std::allocator<char> >::basic_string()
 .text$_ZNSsC1EycRKSaIcE
                0x0000000068f5ef70       0x20 C:/mingw64/bin/../lib/gcc/x86_64-w64-mingw32/8.1.0\libstdc++.a(cow-string-inst.o)
                0x0000000068f5ef70                std::basic_string<char, std::char_traits<char>, std::allocator<char> >::basic_string(unsigned long long, char, std::allocator<char> const&)
 .text$_ZNSsC1IN9__gnu_cxx17__normal_iteratorIPcSsEEEET_S4_RKSaIcE
                0x0000000068f5ef90       0x30 C:/mingw64/bin/../lib/gcc/x86_64-w64-mingw32/8.1.0\libstdc++.a(cow-string-inst.o)
                0x0000000068f5ef90                std::basic_string<char, std::char_traits<char>, std::allocator<char> >::basic_string<__gnu_cxx::__normal_iterator<char*, std::string> >(__gnu_cxx::__normal_iterator<char*, std::string>, __gnu_cxx::__normal_iterator<char*, std::string>, std::allocator<char> const&)
 .text$_ZNSsC1IPKcEET_S2_RKSaIcE
                0x0000000068f5efc0       0x30 C:/mingw64/bin/../lib/gcc/x86_64-w64-mingw32/8.1.0\libstdc++.a(cow-string-inst.o)
                0x0000000068f5efc0                std::basic_string<char, std::char_traits<char>, std::allocator<char> >::basic_string<char const*>(char const*, char const*, std::allocator<char> const&)
 .text$_ZNSsC1IPcEET_S1_RKSaIcE
                0x0000000068f5eff0       0x30 C:/mingw64/bin/../lib/gcc/x86_64-w64-mingw32/8.1.0\libstdc++.a(cow-string-inst.o)
                0x0000000068f5eff0                std::basic_string<char, std::char_traits<char>, std::allocator<char> >::basic_string<char*>(char*, char*, std::allocator<char> const&)
 .text$_ZNSsC2EOSs
                0x0000000068f5f020       0x30 C:/mingw64/bin/../lib/gcc/x86_64-w64-mingw32/8.1.0\libstdc++.a(cow-string-inst.o)
                0x0000000068f5f020                std::basic_string<char, std::char_traits<char>, std::allocator<char> >::basic_string(std::string&&)
 .text$_ZNSsC2EPKcRKSaIcE
                0x0000000068f5f050       0x50 C:/mingw64/bin/../lib/gcc/x86_64-w64-mingw32/8.1.0\libstdc++.a(cow-string-inst.o)
                0x0000000068f5f050                std::basic_string<char, std::char_traits<char>, std::allocator<char> >::basic_string(char const*, std::allocator<char> const&)
 .text$_ZNSsC2EPKcyRKSaIcE
                0x0000000068f5f0a0       0x30 C:/mingw64/bin/../lib/gcc/x86_64-w64-mingw32/8.1.0\libstdc++.a(cow-string-inst.o)
                0x0000000068f5f0a0                std::basic_string<char, std::char_traits<char>, std::allocator<char> >::basic_string(char const*, unsigned long long, std::allocator<char> const&)
 .text$_ZNSsC2ERKSaIcE
                0x0000000068f5f0d0       0x20 C:/mingw64/bin/../lib/gcc/x86_64-w64-mingw32/8.1.0\libstdc++.a(cow-string-inst.o)
                0x0000000068f5f0d0                std::basic_string<char, std::char_traits<char>, std::allocator<char> >::basic_string(std::allocator<char> const&)
 .text$_ZNSsC2ERKSs
                0x0000000068f5f0f0       0x60 C:/mingw64/bin/../lib/gcc/x86_64-w64-mingw32/8.1.0\libstdc++.a(cow-string-inst.o)
                0x0000000068f5f0f0                std::basic_string<char, std::char_traits<char>, std::allocator<char> >::basic_string(std::string const&)
 .text$_ZNSsC2ERKSsyRKSaIcE
                0x0000000068f5f150       0x50 C:/mingw64/bin/../lib/gcc/x86_64-w64-mingw32/8.1.0\libstdc++.a(cow-string-inst.o)
                0x0000000068f5f150                std::basic_string<char, std::char_traits<char>, std::allocator<char> >::basic_string(std::string const&, unsigned long long, std::allocator<char> const&)
 .text$_ZNSsC2ERKSsyy
                0x0000000068f5f1a0       0x60 C:/mingw64/bin/../lib/gcc/x86_64-w64-mingw32/8.1.0\libstdc++.a(cow-string-inst.o)
                0x0000000068f5f1a0                std::basic_string<char, std::char_traits<char>, std::allocator<char> >::basic_string(std::string const&, unsigned long long, unsigned long long)
 .text$_ZNSsC2ERKSsyyRKSaIcE
                0x0000000068f5f200       0x60 C:/mingw64/bin/../lib/gcc/x86_64-w64-mingw32/8.1.0\libstdc++.a(cow-string-inst.o)
                0x0000000068f5f200                std::basic_string<char, std::char_traits<char>, std::allocator<char> >::basic_string(std::string const&, unsigned long long, unsigned long long, std::allocator<char> const&)
 .text$_ZNSsC2ESt16initializer_listIcERKSaIcE
                0x0000000068f5f260       0x30 C:/mingw64/bin/../lib/gcc/x86_64-w64-mingw32/8.1.0\libstdc++.a(cow-string-inst.o)
                0x0000000068f5f260                std::basic_string<char, std::char_traits<char>, std::allocator<char> >::basic_string(std::initializer_list<char>, std::allocator<char> const&)
 .text$_ZNSsC2Ev
                0x0000000068f5f290       0x20 C:/mingw64/bin/../lib/gcc/x86_64-w64-mingw32/8.1.0\libstdc++.a(cow-string-inst.o)
                0x0000000068f5f290                std::basic_string<char, std::char_traits<char>, std::allocator<char> >::basic_string()
 .text$_ZNSsC2EycRKSaIcE
                0x0000000068f5f2b0       0x20 C:/mingw64/bin/../lib/gcc/x86_64-w64-mingw32/8.1.0\libstdc++.a(cow-string-inst.o)
                0x0000000068f5f2b0                std::basic_string<char, std::char_traits<char>, std::allocator<char> >::basic_string(unsigned long long, char, std::allocator<char> const&)
 .text$_ZNSsC2IN9__gnu_cxx17__normal_iteratorIPcSsEEEET_S4_RKSaIcE
                0x0000000068f5f2d0       0x30 C:/mingw64/bin/../lib/gcc/x86_64-w64-mingw32/8.1.0\libstdc++.a(cow-string-inst.o)
                0x0000000068f5f2d0                std::basic_string<char, std::char_traits<char>, std::allocator<char> >::basic_string<__gnu_cxx::__normal_iterator<char*, std::string> >(__gnu_cxx::__normal_iterator<char*, std::string>, __gnu_cxx::__normal_iterator<char*, std::string>, std::allocator<char> const&)
 .text$_ZNSsC2IPKcEET_S2_RKSaIcE
                0x0000000068f5f300       0x30 C:/mingw64/bin/../lib/gcc/x86_64-w64-mingw32/8.1.0\libstdc++.a(cow-string-inst.o)
                0x0000000068f5f300                std::basic_string<char, std::char_traits<char>, std::allocator<char> >::basic_string<char const*>(char const*, char const*, std::allocator<char> const&)
 .text$_ZNSsC2IPcEET_S1_RKSaIcE
                0x0000000068f5f330       0x30 C:/mingw64/bin/../lib/gcc/x86_64-w64-mingw32/8.1.0\libstdc++.a(cow-string-inst.o)
                0x0000000068f5f330                std::basic_string<char, std::char_traits<char>, std::allocator<char> >::basic_string<char*>(char*, char*, std::allocator<char> const&)
 .text$_ZNSsD1Ev
                0x0000000068f5f360       0x40 C:/mingw64/bin/../lib/gcc/x86_64-w64-mingw32/8.1.0\libstdc++.a(cow-string-inst.o)
                0x0000000068f5f360                std::basic_string<char, std::char_traits<char>, std::allocator<char> >::~basic_string()
 .text$_ZNSsD2Ev
                0x0000000068f5f3a0       0x40 C:/mingw64/bin/../lib/gcc/x86_64-w64-mingw32/8.1.0\libstdc++.a(cow-string-inst.o)
                0x0000000068f5f3a0                std::basic_string<char, std::char_traits<char>, std::allocator<char> >::~basic_string()
 .text$_ZNSsaSEOSs
                0x0000000068f5f3e0       0x20 C:/mingw64/bin/../lib/gcc/x86_64-w64-mingw32/8.1.0\libstdc++.a(cow-string-inst.o)
                0x0000000068f5f3e0                std::string::operator=(std::string&&)
 .text$_ZNSsaSEPKc
                0x0000000068f5f400       0x30 C:/mingw64/bin/../lib/gcc/x86_64-w64-mingw32/8.1.0\libstdc++.a(cow-string-inst.o)
                0x0000000068f5f400                std::string::operator=(char const*)
 .text$_ZNSsaSERKSs
                0x0000000068f5f430       0x10 C:/mingw64/bin/../lib/gcc/x86_64-w64-mingw32/8.1.0\libstdc++.a(cow-string-inst.o)
                0x0000000068f5f430                std::string::operator=(std::string const&)
 .text$_ZNSsaSESt16initializer_listIcE
                0x0000000068f5f440       0x20 C:/mingw64/bin/../lib/gcc/x86_64-w64-mingw32/8.1.0\libstdc++.a(cow-string-inst.o)
                0x0000000068f5f440                std::string::operator=(std::initializer_list<char>)
 .text$_ZNSsaSEc
                0x0000000068f5f460       0x30 C:/mingw64/bin/../lib/gcc/x86_64-w64-mingw32/8.1.0\libstdc++.a(cow-string-inst.o)
                0x0000000068f5f460                std::string::operator=(char)
 .text$_ZNSsixEy
                0x0000000068f5f490       0x30 C:/mingw64/bin/../lib/gcc/x86_64-w64-mingw32/8.1.0\libstdc++.a(cow-string-inst.o)
                0x0000000068f5f490                std::string::operator[](unsigned long long)
 .text$_ZNSspLEPKc
                0x0000000068f5f4c0       0x30 C:/mingw64/bin/../lib/gcc/x86_64-w64-mingw32/8.1.0\libstdc++.a(cow-string-inst.o)
                0x0000000068f5f4c0                std::string::operator+=(char const*)
 .text$_ZNSspLERKSs
                0x0000000068f5f4f0       0x10 C:/mingw64/bin/../lib/gcc/x86_64-w64-mingw32/8.1.0\libstdc++.a(cow-string-inst.o)
                0x0000000068f5f4f0                std::string::operator+=(std::string const&)
 .text$_ZNSspLESt16initializer_listIcE
                0x0000000068f5f500       0x10 C:/mingw64/bin/../lib/gcc/x86_64-w64-mingw32/8.1.0\libstdc++.a(cow-string-inst.o)
                0x0000000068f5f500                std::string::operator+=(std::initializer_list<char>)
 .text$_ZNSspLEc
                0x0000000068f5f510       0x60 C:/mingw64/bin/../lib/gcc/x86_64-w64-mingw32/8.1.0\libstdc++.a(cow-string-inst.o)
                0x0000000068f5f510                std::string::operator+=(char)
 .text$_ZNSt10bad_typeidD0Ev
                0x0000000068f5f570       0x30 C:/mingw64/bin/../lib/gcc/x86_64-w64-mingw32/8.1.0\libstdc++.a(bad_typeid.o)
                0x0000000068f5f570                std::bad_typeid::~bad_typeid()
 .text$_ZNSt10bad_typeidD2Ev
                0x0000000068f5f5a0       0x10 C:/mingw64/bin/../lib/gcc/x86_64-w64-mingw32/8.1.0\libstdc++.a(bad_typeid.o)
                0x0000000068f5f5a0                std::bad_typeid::~bad_typeid()
                0x0000000068f5f5a0                std::bad_typeid::~bad_typeid()
 .text$_ZNSt11__copy_moveILb1ELb1ESt26random_access_iterator_tagE8__copy_mI11EPG_CONTENTEEPT_PKS4_S7_S5_
                0x0000000068f5f5b0       0x30 Common__CtrlCmdUtil.cpp.obj
                0x0000000068f5f5b0                EPG_CONTENT* std::__copy_move<true, true, std::random_access_iterator_tag>::__copy_m<EPG_CONTENT>(EPG_CONTENT const*, EPG_CONTENT const*, EPG_CONTENT*)
 .text$_ZNSt11__copy_moveILb1ELb1ESt26random_access_iterator_tagE8__copy_mI22EPGDB_SEARCH_DATE_INFOEEPT_PKS4_S7_S5_
                0x0000000068f5f5e0       0x30 Common__CtrlCmdUtil.cpp.obj
                0x0000000068f5f5e0                EPGDB_SEARCH_DATE_INFO* std::__copy_move<true, true, std::random_access_iterator_tag>::__copy_m<EPGDB_SEARCH_DATE_INFO>(EPGDB_SEARCH_DATE_INFO const*, EPGDB_SEARCH_DATE_INFO const*, EPGDB_SEARCH_DATE_INFO*)
 .text$_ZNSt11__copy_moveILb1ELb1ESt26random_access_iterator_tagE8__copy_mIxEEPT_PKS3_S6_S4_
                0x0000000068f5f610       0x30 Common__CtrlCmdUtil.cpp.obj
                0x0000000068f5f610                long long* std::__copy_move<true, true, std::random_access_iterator_tag>::__copy_m<long long>(long long const*, long long const*, long long*)
 .text$_ZNSt11char_traitsIwE4findEPKwyRS1_
                0x0000000068f5f640       0x30 Common__PathUtil.cpp.obj
                0x0000000068f5f640                std::char_traits<wchar_t>::find(wchar_t const*, unsigned long long, wchar_t const&)
 .text$_ZNSt11char_traitsIwE6lengthEPKw
                0x0000000068f5f670       0x10 Common__CtrlCmdUtil.cpp.obj
                0x0000000068f5f670                std::char_traits<wchar_t>::length(wchar_t const*)
 .text$_ZNSt11char_traitsIwE7compareEPKwS2_y
                0x0000000068f5f680       0x50 Common__CtrlCmdUtil.cpp.obj
                0x0000000068f5f680                std::char_traits<wchar_t>::compare(wchar_t const*, wchar_t const*, unsigned long long)
 .text$_ZNSt11logic_errorC2EPKc
                0x0000000068f5f6d0       0x50 C:/mingw64/bin/../lib/gcc/x86_64-w64-mingw32/8.1.0\libstdc++.a(cow-stdexcept.o)
                0x0000000068f5f6d0                std::logic_error::logic_error(char const*)
                0x0000000068f5f6d0                std::logic_error::logic_error(char const*)
 .text$_ZNSt11logic_errorC2ERKS_
                0x0000000068f5f720       0x20 C:/mingw64/bin/../lib/gcc/x86_64-w64-mingw32/8.1.0\libstdc++.a(cow-stdexcept.o)
                0x0000000068f5f720                std::logic_error::logic_error(std::logic_error const&)
                0x0000000068f5f720                std::logic_error::logic_error(std::logic_error const&)
 .text$_ZNSt11logic_errorC2ERKSs
                0x0000000068f5f740       0x40 C:/mingw64/bin/../lib/gcc/x86_64-w64-mingw32/8.1.0\libstdc++.a(stdexcept.o)
                0x0000000068f5f740                std::logic_error::logic_error(std::string const&)
                0x0000000068f5f740                std::logic_error::logic_error(std::string const&)
 .text$_ZNSt11logic_errorD0Ev
                0x0000000068f5f780       0x20 C:/mingw64/bin/../lib/gcc/x86_64-w64-mingw32/8.1.0\libstdc++.a(stdexcept.o)
                0x0000000068f5f780                std::logic_error::~logic_error()
 .text$_ZNSt11logic_errorD2Ev
                0x0000000068f5f7a0       0x70 C:/mingw64/bin/../lib/gcc/x86_64-w64-mingw32/8.1.0\libstdc++.a(stdexcept.o)
                0x0000000068f5f7a0                std::logic_error::~logic_error()
                0x0000000068f5f7a0                std::logic_error::~logic_error()
 .text$_ZNSt11logic_erroraSERKS_
                0x0000000068f5f810       0x20 C:/mingw64/bin/../lib/gcc/x86_64-w64-mingw32/8.1.0\libstdc++.a(cow-stdexcept.o)
                0x0000000068f5f810                std::logic_error::operator=(std::logic_error const&)
 .text$_ZNSt11range_errorC2EPKc
                0x0000000068f5f830       0x30 C:/mingw64/bin/../lib/gcc/x86_64-w64-mingw32/8.1.0\libstdc++.a(cow-stdexcept.o)
                0x0000000068f5f830                std::range_error::range_error(char const*)
                0x0000000068f5f830                std::range_error::range_error(char const*)
 .text$_ZNSt11range_errorC2ERKSs
                0x0000000068f5f860       0x20 C:/mingw64/bin/../lib/gcc/x86_64-w64-mingw32/8.1.0\libstdc++.a(stdexcept.o)
                0x0000000068f5f860                std::range_error::range_error(std::string const&)
                0x0000000068f5f860                std::range_error::range_error(std::string const&)
 .text$_ZNSt11range_errorD0Ev
                0x0000000068f5f880       0x30 C:/mingw64/bin/../lib/gcc/x86_64-w64-mingw32/8.1.0\libstdc++.a(stdexcept.o)
                0x0000000068f5f880                std::range_error::~range_error()
 .text$_ZNSt11range_errorD2Ev
                0x0000000068f5f8b0       0x10 C:/mingw64/bin/../lib/gcc/x86_64-w64-mingw32/8.1.0\libstdc++.a(stdexcept.o)
                0x0000000068f5f8b0                std::range_error::~range_error()
                0x0000000068f5f8b0                std::range_error::~range_error()
 .text$_ZNSt12_Destroy_auxILb0EE9__destroyIP17REC_FILE_SET_INFOEEvT_S4_
                0x0000000068f5f8c0       0x30 Common__CtrlCmdUtil.cpp.obj
                0x0000000068f5f8c0                void std::_Destroy_aux<false>::__destroy<REC_FILE_SET_INFO*>(REC_FILE_SET_INFO*, REC_FILE_SET_INFO*)
 .text$_ZNSt12_Destroy_auxILb0EE9__destroyIP31EPGDB_AUDIO_COMPONENT_INFO_DATAEEvT_S4_
                0x0000000068f5f8f0       0x30 Common__CtrlCmdUtil.cpp.obj
                0x0000000068f5f8f0                void std::_Destroy_aux<false>::__destroy<EPGDB_AUDIO_COMPONENT_INFO_DATA*>(EPGDB_AUDIO_COMPONENT_INFO_DATA*, EPGDB_AUDIO_COMPONENT_INFO_DATA*)
 .text$_ZNSt12__cow_stringC2EOS_
                0x0000000068f5f920       0x30 C:/mingw64/bin/../lib/gcc/x86_64-w64-mingw32/8.1.0\libstdc++.a(cow-stdexcept.o)
                0x0000000068f5f920                std::__cow_string::__cow_string(std::__cow_string&&)
                0x0000000068f5f920                std::__cow_string::__cow_string(std::__cow_string&&)
 .text$_ZNSt12__cow_stringC2EPKcy
                0x0000000068f5f950       0x20 C:/mingw64/bin/../lib/gcc/x86_64-w64-mingw32/8.1.0\libstdc++.a(cow-stdexcept.o)
                0x0000000068f5f950                std::__cow_string::__cow_string(char const*, unsigned long long)
                0x0000000068f5f950                std::__cow_string::__cow_string(char const*, unsigned long long)
 .text$_ZNSt12__cow_stringC2ERKS_
                0x0000000068f5f970       0x10 C:/mingw64/bin/../lib/gcc/x86_64-w64-mingw32/8.1.0\libstdc++.a(cow-stdexcept.o)
                0x0000000068f5f970                std::__cow_string::__cow_string(std::__cow_string const&)
                0x0000000068f5f970                std::__cow_string::__cow_string(std::__cow_string const&)
 .text$_ZNSt12__cow_stringC2ERKSs
                0x0000000068f5f980       0x10 C:/mingw64/bin/../lib/gcc/x86_64-w64-mingw32/8.1.0\libstdc++.a(cow-stdexcept.o)
                0x0000000068f5f980                std::__cow_string::__cow_string(std::string const&)
                0x0000000068f5f980                std::__cow_string::__cow_string(std::string const&)
 .text$_ZNSt12__cow_stringC2Ev
                0x0000000068f5f990       0x20 C:/mingw64/bin/../lib/gcc/x86_64-w64-mingw32/8.1.0\libstdc++.a(cow-stdexcept.o)
                0x0000000068f5f990                std::__cow_string::__cow_string()
                0x0000000068f5f990                std::__cow_string::__cow_string()
 .text$_ZNSt12__cow_stringD2Ev
                0x0000000068f5f9b0       0x60 C:/mingw64/bin/../lib/gcc/x86_64-w64-mingw32/8.1.0\libstdc++.a(cow-stdexcept.o)
                0x0000000068f5f9b0                std::__cow_string::~__cow_string()
                0x0000000068f5f9b0                std::__cow_string::~__cow_string()
 .text$_ZNSt12__cow_stringaSEOS_
                0x0000000068f5fa10       0x20 C:/mingw64/bin/../lib/gcc/x86_64-w64-mingw32/8.1.0\libstdc++.a(cow-stdexcept.o)
                0x0000000068f5fa10                std::__cow_string::operator=(std::__cow_string&&)
 .text$_ZNSt12__cow_stringaSERKS_
                0x0000000068f5fa30       0x20 C:/mingw64/bin/../lib/gcc/x86_64-w64-mingw32/8.1.0\libstdc++.a(cow-stdexcept.o)
                0x0000000068f5fa30                std::__cow_string::operator=(std::__cow_string const&)
 .text$_ZNSt12__sso_stringC2EOS_
                0x0000000068f5fa50       0x50 C:/mingw64/bin/../lib/gcc/x86_64-w64-mingw32/8.1.0\libstdc++.a(sso_string.o)
                0x0000000068f5fa50                std::__sso_string::__sso_string(std::__sso_string&&)
                0x0000000068f5fa50                std::__sso_string::__sso_string(std::__sso_string&&)
 .text$_ZNSt12__sso_stringC2EPKcy
                0x0000000068f5faa0       0x20 C:/mingw64/bin/../lib/gcc/x86_64-w64-mingw32/8.1.0\libstdc++.a(sso_string.o)
                0x0000000068f5faa0                std::__sso_string::__sso_string(char const*, unsigned long long)
                0x0000000068f5faa0                std::__sso_string::__sso_string(char const*, unsigned long long)
 .text$_ZNSt12__sso_stringC2ERKNSt7__cxx1112basic_stringIcSt11char_traitsIcESaIcEEE
                0x0000000068f5fac0       0x20 C:/mingw64/bin/../lib/gcc/x86_64-w64-mingw32/8.1.0\libstdc++.a(sso_string.o)
                0x0000000068f5fac0                std::__sso_string::__sso_string(std::__cxx11::basic_string<char, std::char_traits<char>, std::allocator<char> > const&)
                0x0000000068f5fac0                std::__sso_string::__sso_string(std::__cxx11::basic_string<char, std::char_traits<char>, std::allocator<char> > const&)
 .text$_ZNSt12__sso_stringC2ERKS_
                0x0000000068f5fae0       0x20 C:/mingw64/bin/../lib/gcc/x86_64-w64-mingw32/8.1.0\libstdc++.a(sso_string.o)
                0x0000000068f5fae0                std::__sso_string::__sso_string(std::__sso_string const&)
                0x0000000068f5fae0                std::__sso_string::__sso_string(std::__sso_string const&)
 .text$_ZNSt12__sso_stringC2ERKSs
                0x0000000068f5fb00       0x10 C:/mingw64/bin/../lib/gcc/x86_64-w64-mingw32/8.1.0\libstdc++.a(cow-stdexcept.o)
                0x0000000068f5fb00                std::__sso_string::__sso_string(std::string const&)
                0x0000000068f5fb00                std::__sso_string::__sso_string(std::string const&)
 .text$_ZNSt12__sso_stringC2Ev
                0x0000000068f5fb10       0x20 C:/mingw64/bin/../lib/gcc/x86_64-w64-mingw32/8.1.0\libstdc++.a(sso_string.o)
                0x0000000068f5fb10                std::__sso_string::__sso_string()
                0x0000000068f5fb10                std::__sso_string::__sso_string()
 .text$_ZNSt12__sso_stringD2Ev
                0x0000000068f5fb30       0x20 C:/mingw64/bin/../lib/gcc/x86_64-w64-mingw32/8.1.0\libstdc++.a(sso_string.o)
                0x0000000068f5fb30                std::__sso_string::~__sso_string()
                0x0000000068f5fb30                std::__sso_string::~__sso_string()
 .text$_ZNSt12__sso_stringaSEOS_
                0x0000000068f5fb50       0xa0 C:/mingw64/bin/../lib/gcc/x86_64-w64-mingw32/8.1.0\libstdc++.a(sso_string.o)
                0x0000000068f5fb50                std::__sso_string::operator=(std::__sso_string&&)
 .text$_ZNSt12__sso_stringaSERKS_
                0x0000000068f5fbf0       0x20 C:/mingw64/bin/../lib/gcc/x86_64-w64-mingw32/8.1.0\libstdc++.a(sso_string.o)
                0x0000000068f5fbf0                std::__sso_string::operator=(std::__sso_string const&)
 .text$_ZNSt12domain_errorC2EPKc
                0x0000000068f5fc10       0x30 C:/mingw64/bin/../lib/gcc/x86_64-w64-mingw32/8.1.0\libstdc++.a(cow-stdexcept.o)
                0x0000000068f5fc10                std::domain_error::domain_error(char const*)
                0x0000000068f5fc10                std::domain_error::domain_error(char const*)
 .text$_ZNSt12domain_errorC2ERKSs
                0x0000000068f5fc40       0x20 C:/mingw64/bin/../lib/gcc/x86_64-w64-mingw32/8.1.0\libstdc++.a(stdexcept.o)
                0x0000000068f5fc40                std::domain_error::domain_error(std::string const&)
                0x0000000068f5fc40                std::domain_error::domain_error(std::string const&)
 .text$_ZNSt12domain_errorD0Ev
                0x0000000068f5fc60       0x30 C:/mingw64/bin/../lib/gcc/x86_64-w64-mingw32/8.1.0\libstdc++.a(stdexcept.o)
                0x0000000068f5fc60                std::domain_error::~domain_error()
 .text$_ZNSt12domain_errorD2Ev
                0x0000000068f5fc90       0x10 C:/mingw64/bin/../lib/gcc/x86_64-w64-mingw32/8.1.0\libstdc++.a(stdexcept.o)
                0x0000000068f5fc90                std::domain_error::~domain_error()
                0x0000000068f5fc90                std::domain_error::~domain_error()
 .text$_ZNSt12length_errorC2EPKc
                0x0000000068f5fca0       0x30 C:/mingw64/bin/../lib/gcc/x86_64-w64-mingw32/8.1.0\libstdc++.a(cow-stdexcept.o)
                0x0000000068f5fca0                std::length_error::length_error(char const*)
                0x0000000068f5fca0                std::length_error::length_error(char const*)
 .text$_ZNSt12length_errorC2ERKSs
                0x0000000068f5fcd0       0x20 C:/mingw64/bin/../lib/gcc/x86_64-w64-mingw32/8.1.0\libstdc++.a(stdexcept.o)
                0x0000000068f5fcd0                std::length_error::length_error(std::string const&)
                0x0000000068f5fcd0                std::length_error::length_error(std::string const&)
 .text$_ZNSt12length_errorD0Ev
                0x0000000068f5fcf0       0x30 C:/mingw64/bin/../lib/gcc/x86_64-w64-mingw32/8.1.0\libstdc++.a(stdexcept.o)
                0x0000000068f5fcf0                std::length_error::~length_error()
 .text$_ZNSt12length_errorD2Ev
                0x0000000068f5fd20       0x10 C:/mingw64/bin/../lib/gcc/x86_64-w64-mingw32/8.1.0\libstdc++.a(stdexcept.o)
                0x0000000068f5fd20                std::length_error::~length_error()
                0x0000000068f5fd20                std::length_error::~length_error()
 .text$_ZNSt12out_of_rangeC2EPKc
                0x0000000068f5fd30       0x30 C:/mingw64/bin/../lib/gcc/x86_64-w64-mingw32/8.1.0\libstdc++.a(cow-stdexcept.o)
                0x0000000068f5fd30                std::out_of_range::out_of_range(char const*)
                0x0000000068f5fd30                std::out_of_range::out_of_range(char const*)
 .text$_ZNSt12out_of_rangeC2ERKSs
                0x0000000068f5fd60       0x20 C:/mingw64/bin/../lib/gcc/x86_64-w64-mingw32/8.1.0\libstdc++.a(stdexcept.o)
                0x0000000068f5fd60                std::out_of_range::out_of_range(std::string const&)
                0x0000000068f5fd60                std::out_of_range::out_of_range(std::string const&)
 .text$_ZNSt12out_of_rangeD0Ev
                0x0000000068f5fd80       0x30 C:/mingw64/bin/../lib/gcc/x86_64-w64-mingw32/8.1.0\libstdc++.a(stdexcept.o)
                0x0000000068f5fd80                std::out_of_range::~out_of_range()
 .text$_ZNSt12out_of_rangeD2Ev
                0x0000000068f5fdb0       0x10 C:/mingw64/bin/../lib/gcc/x86_64-w64-mingw32/8.1.0\libstdc++.a(stdexcept.o)
                0x0000000068f5fdb0                std::out_of_range::~out_of_range()
                0x0000000068f5fdb0                std::out_of_range::~out_of_range()
 .text$_ZNSt13bad_exceptionD0Ev
                0x0000000068f5fdc0       0x10 C:/mingw64/bin/../lib/gcc/x86_64-w64-mingw32/8.1.0\libstdc++.a(eh_exception.o)
                0x0000000068f5fdc0                std::bad_exception::~bad_exception()
 .text$_ZNSt13bad_exceptionD2Ev
                0x0000000068f5fdd0       0x10 C:/mingw64/bin/../lib/gcc/x86_64-w64-mingw32/8.1.0\libstdc++.a(eh_exception.o)
                0x0000000068f5fdd0                std::bad_exception::~bad_exception()
                0x0000000068f5fdd0                std::bad_exception::~bad_exception()
 .text$_ZNSt13random_device14_M_init_pretr1ERKSs
                0x0000000068f5fde0       0xa0 C:/mingw64/bin/../lib/gcc/x86_64-w64-mingw32/8.1.0\libstdc++.a(cow-string-inst.o)
                0x0000000068f5fde0                std::random_device::_M_init_pretr1(std::string const&)
 .text$_ZNSt13random_device7_M_initERKSs
                0x0000000068f5fe80       0xb0 C:/mingw64/bin/../lib/gcc/x86_64-w64-mingw32/8.1.0\libstdc++.a(cow-string-inst.o)
                0x0000000068f5fe80                std::random_device::_M_init(std::string const&)
 .text$_ZNSt13runtime_errorC2EPKc
                0x0000000068f5ff30       0x50 C:/mingw64/bin/../lib/gcc/x86_64-w64-mingw32/8.1.0\libstdc++.a(cow-stdexcept.o)
                0x0000000068f5ff30                std::runtime_error::runtime_error(char const*)
                0x0000000068f5ff30                std::runtime_error::runtime_error(char const*)
 .text$_ZNSt13runtime_errorC2ERKS_
                0x0000000068f5ff80       0x20 C:/mingw64/bin/../lib/gcc/x86_64-w64-mingw32/8.1.0\libstdc++.a(cow-stdexcept.o)
                0x0000000068f5ff80                std::runtime_error::runtime_error(std::runtime_error const&)
                0x0000000068f5ff80                std::runtime_error::runtime_error(std::runtime_error const&)
 .text$_ZNSt13runtime_errorC2ERKSs
                0x0000000068f5ffa0       0x40 C:/mingw64/bin/../lib/gcc/x86_64-w64-mingw32/8.1.0\libstdc++.a(stdexcept.o)
                0x0000000068f5ffa0                std::runtime_error::runtime_error(std::string const&)
                0x0000000068f5ffa0                std::runtime_error::runtime_error(std::string const&)
 .text$_ZNSt13runtime_errorD0Ev
                0x0000000068f5ffe0       0x20 C:/mingw64/bin/../lib/gcc/x86_64-w64-mingw32/8.1.0\libstdc++.a(stdexcept.o)
                0x0000000068f5ffe0                std::runtime_error::~runtime_error()
 .text$_ZNSt13runtime_errorD2Ev
                0x0000000068f60000       0x70 C:/mingw64/bin/../lib/gcc/x86_64-w64-mingw32/8.1.0\libstdc++.a(stdexcept.o)
                0x0000000068f60000                std::runtime_error::~runtime_error()
                0x0000000068f60000                std::runtime_error::~runtime_error()
 .text$_ZNSt13runtime_erroraSERKS_
                0x0000000068f60070       0x20 C:/mingw64/bin/../lib/gcc/x86_64-w64-mingw32/8.1.0\libstdc++.a(cow-stdexcept.o)
                0x0000000068f60070                std::runtime_error::operator=(std::runtime_error const&)
 .text$_ZNSt14overflow_errorC2EPKc
                0x0000000068f60090       0x30 C:/mingw64/bin/../lib/gcc/x86_64-w64-mingw32/8.1.0\libstdc++.a(cow-stdexcept.o)
                0x0000000068f60090                std::overflow_error::overflow_error(char const*)
                0x0000000068f60090                std::overflow_error::overflow_error(char const*)
 .text$_ZNSt14overflow_errorC2ERKSs
                0x0000000068f600c0       0x20 C:/mingw64/bin/../lib/gcc/x86_64-w64-mingw32/8.1.0\libstdc++.a(stdexcept.o)
                0x0000000068f600c0                std::overflow_error::overflow_error(std::string const&)
                0x0000000068f600c0                std::overflow_error::overflow_error(std::string const&)
 .text$_ZNSt14overflow_errorD0Ev
                0x0000000068f600e0       0x30 C:/mingw64/bin/../lib/gcc/x86_64-w64-mingw32/8.1.0\libstdc++.a(stdexcept.o)
                0x0000000068f600e0                std::overflow_error::~overflow_error()
 .text$_ZNSt14overflow_errorD2Ev
                0x0000000068f60110       0x10 C:/mingw64/bin/../lib/gcc/x86_64-w64-mingw32/8.1.0\libstdc++.a(stdexcept.o)
                0x0000000068f60110                std::overflow_error::~overflow_error()
                0x0000000068f60110                std::overflow_error::~overflow_error()
 .text$_ZNSt15underflow_errorC2EPKc
                0x0000000068f60120       0x30 C:/mingw64/bin/../lib/gcc/x86_64-w64-mingw32/8.1.0\libstdc++.a(cow-stdexcept.o)
                0x0000000068f60120                std::underflow_error::underflow_error(char const*)
                0x0000000068f60120                std::underflow_error::underflow_error(char const*)
 .text$_ZNSt15underflow_errorC2ERKSs
                0x0000000068f60150       0x20 C:/mingw64/bin/../lib/gcc/x86_64-w64-mingw32/8.1.0\libstdc++.a(stdexcept.o)
                0x0000000068f60150                std::underflow_error::underflow_error(std::string const&)
                0x0000000068f60150                std::underflow_error::underflow_error(std::string const&)
 .text$_ZNSt15underflow_errorD0Ev
                0x0000000068f60170       0x30 C:/mingw64/bin/../lib/gcc/x86_64-w64-mingw32/8.1.0\libstdc++.a(stdexcept.o)
                0x0000000068f60170                std::underflow_error::~underflow_error()
 .text$_ZNSt15underflow_errorD2Ev
                0x0000000068f601a0       0x10 C:/mingw64/bin/../lib/gcc/x86_64-w64-mingw32/8.1.0\libstdc++.a(stdexcept.o)
                0x0000000068f601a0                std::underflow_error::~underflow_error()
                0x0000000068f601a0                std::underflow_error::~underflow_error()
 .text$_ZNSt16invalid_argumentC2EPKc
                0x0000000068f601b0       0x30 C:/mingw64/bin/../lib/gcc/x86_64-w64-mingw32/8.1.0\libstdc++.a(cow-stdexcept.o)
                0x0000000068f601b0                std::invalid_argument::invalid_argument(char const*)
                0x0000000068f601b0                std::invalid_argument::invalid_argument(char const*)
 .text$_ZNSt16invalid_argumentC2ERKSs
                0x0000000068f601e0       0x20 C:/mingw64/bin/../lib/gcc/x86_64-w64-mingw32/8.1.0\libstdc++.a(stdexcept.o)
                0x0000000068f601e0                std::invalid_argument::invalid_argument(std::string const&)
                0x0000000068f601e0                std::invalid_argument::invalid_argument(std::string const&)
 .text$_ZNSt16invalid_argumentD0Ev
                0x0000000068f60200       0x30 C:/mingw64/bin/../lib/gcc/x86_64-w64-mingw32/8.1.0\libstdc++.a(stdexcept.o)
                0x0000000068f60200                std::invalid_argument::~invalid_argument()
 .text$_ZNSt16invalid_argumentD2Ev
                0x0000000068f60230       0x10 C:/mingw64/bin/../lib/gcc/x86_64-w64-mingw32/8.1.0\libstdc++.a(stdexcept.o)
                0x0000000068f60230                std::invalid_argument::~invalid_argument()
                0x0000000068f60230                std::invalid_argument::~invalid_argument()
 .text$_ZNSt17bad_function_callD0Ev
                0x0000000068f60240       0x30 C:/mingw64/bin/../lib/gcc/x86_64-w64-mingw32/8.1.0\libstdc++.a(functional.o)
                0x0000000068f60240                std::bad_function_call::~bad_function_call()
 .text$_ZNSt17bad_function_callD2Ev
                0x0000000068f60270       0x10 C:/mingw64/bin/../lib/gcc/x86_64-w64-mingw32/8.1.0\libstdc++.a(functional.o)
                0x0000000068f60270                std::bad_function_call::~bad_function_call()
                0x0000000068f60270                std::bad_function_call::~bad_function_call()
 .text$_ZNSt20__uninitialized_copyILb0EE13__uninit_copyISt13move_iteratorIP31EPGDB_AUDIO_COMPONENT_INFO_DATAES4_EET0_T_S7_S6_
                0x0000000068f60280       0x80 Common__CtrlCmdUtil.cpp.obj
                0x0000000068f60280                EPGDB_AUDIO_COMPONENT_INFO_DATA* std::__uninitialized_copy<false>::__uninit_copy<std::move_iterator<EPGDB_AUDIO_COMPONENT_INFO_DATA*>, EPGDB_AUDIO_COMPONENT_INFO_DATA*>(std::move_iterator<EPGDB_AUDIO_COMPONENT_INFO_DATA*>, std::move_iterator<EPGDB_AUDIO_COMPONENT_INFO_DATA*>, EPGDB_AUDIO_COMPONENT_INFO_DATA*)
 .text$_ZNSt27__uninitialized_default_n_1ILb0EE18__uninit_default_nIP16EPGDB_EVENT_INFOyEET_S4_T0_
                0x0000000068f60300      0x140 Common__CtrlCmdUtil.cpp.obj
                0x0000000068f60300                EPGDB_EVENT_INFO* std::__uninitialized_default_n_1<false>::__uninit_default_n<EPGDB_EVENT_INFO*, unsigned long long>(EPGDB_EVENT_INFO*, unsigned long long)
 .text$_ZNSt27__uninitialized_default_n_1ILb0EE18__uninit_default_nIP17REC_FILE_SET_INFOyEET_S4_T0_
                0x0000000068f60440       0x50 Common__CtrlCmdUtil.cpp.obj
                0x0000000068f60440                REC_FILE_SET_INFO* std::__uninitialized_default_n_1<false>::__uninit_default_n<REC_FILE_SET_INFO*, unsigned long long>(REC_FILE_SET_INFO*, unsigned long long)
 .text$_ZNSt27__uninitialized_default_n_1ILb0EE18__uninit_default_nIP21EPGDB_SEARCH_KEY_INFOyEET_S4_T0_
                0x0000000068f60490       0x50 Common__CtrlCmdUtil.cpp.obj
                0x0000000068f60490                EPGDB_SEARCH_KEY_INFO* std::__uninitialized_default_n_1<false>::__uninit_default_n<EPGDB_SEARCH_KEY_INFO*, unsigned long long>(EPGDB_SEARCH_KEY_INFO*, unsigned long long)
 .text$_ZNSt27__uninitialized_default_n_1ILb0EE18__uninit_default_nIP31EPGDB_AUDIO_COMPONENT_INFO_DATAyEET_S4_T0_
                0x0000000068f604e0       0x40 Common__CtrlCmdUtil.cpp.obj
                0x0000000068f604e0                EPGDB_AUDIO_COMPONENT_INFO_DATA* std::__uninitialized_default_n_1<false>::__uninit_default_n<EPGDB_AUDIO_COMPONENT_INFO_DATA*, unsigned long long>(EPGDB_AUDIO_COMPONENT_INFO_DATA*, unsigned long long)
 .text$_ZNSt27__uninitialized_default_n_1ILb1EE18__uninit_default_nIP22EPGDB_SEARCH_DATE_INFOyEET_S4_T0_
                0x0000000068f60520       0x50 Common__CtrlCmdUtil.cpp.obj
                0x0000000068f60520                EPGDB_SEARCH_DATE_INFO* std::__uninitialized_default_n_1<true>::__uninit_default_n<EPGDB_SEARCH_DATE_INFO*, unsigned long long>(EPGDB_SEARCH_DATE_INFO*, unsigned long long)
 .text$_ZNSt6vectorI11EPG_CONTENTSaIS0_EE9push_backERKS0_
                0x0000000068f60570       0xd0 Common__CtrlCmdUtil.cpp.obj
                0x0000000068f60570                std::vector<EPG_CONTENT, std::allocator<EPG_CONTENT> >::push_back(EPG_CONTENT const&)
 .text$_ZNSt6vectorI16EPGDB_EVENT_INFOSaIS0_EE7reserveEy
                0x0000000068f60640       0xe0 Common__CtrlCmdUtil.cpp.obj
                0x0000000068f60640                std::vector<EPGDB_EVENT_INFO, std::allocator<EPGDB_EVENT_INFO> >::reserve(unsigned long long)
 .text$_ZNSt6vectorI17REC_FILE_SET_INFOSaIS0_EE17_M_realloc_insertIJRKS0_EEEvN9__gnu_cxx17__normal_iteratorIPS0_S2_EEDpOT_
                0x0000000068f60720      0x110 Common__CtrlCmdUtil.cpp.obj
                0x0000000068f60720                void std::vector<REC_FILE_SET_INFO, std::allocator<REC_FILE_SET_INFO> >::_M_realloc_insert<REC_FILE_SET_INFO const&>(__gnu_cxx::__normal_iterator<REC_FILE_SET_INFO*, std::vector<REC_FILE_SET_INFO, std::allocator<REC_FILE_SET_INFO> > >, REC_FILE_SET_INFO const&)
 .text$_ZNSt6vectorI17REC_FILE_SET_INFOSaIS0_EE9push_backERKS0_
                0x0000000068f60830       0x40 Common__CtrlCmdUtil.cpp.obj
                0x0000000068f60830                std::vector<REC_FILE_SET_INFO, std::allocator<REC_FILE_SET_INFO> >::push_back(REC_FILE_SET_INFO const&)
 .text$_ZNSt6vectorI21EPGDB_SEARCH_KEY_INFOSaIS0_EE7reserveEy
                0x0000000068f60870       0xe0 Common__CtrlCmdUtil.cpp.obj
                0x0000000068f60870                std::vector<EPGDB_SEARCH_KEY_INFO, std::allocator<EPGDB_SEARCH_KEY_INFO> >::reserve(unsigned long long)
 .text$_ZNSt6vectorI22EPGDB_SEARCH_DATE_INFOSaIS0_EE9push_backERKS0_
                0x0000000068f60950       0xf0 Common__CtrlCmdUtil.cpp.obj
                0x0000000068f60950                std::vector<EPGDB_SEARCH_DATE_INFO, std::allocator<EPGDB_SEARCH_DATE_INFO> >::push_back(EPGDB_SEARCH_DATE_INFO const&)
 .text$_ZNSt6vectorINSt7__cxx1112basic_stringIwSt11char_traitsIwESaIwEEESaIS5_EE7reserveEy
                0x0000000068f60a40       0xd0 Common__CtrlCmdUtil.cpp.obj
                0x0000000068f60a40                std::vector<std::__cxx11::basic_string<wchar_t, std::char_traits<wchar_t>, std::allocator<wchar_t> >, std::allocator<std::__cxx11::basic_string<wchar_t, std::char_traits<wchar_t>, std::allocator<wchar_t> > > >::reserve(unsigned long long)
 .text$_ZNSt6vectorIcSaIcEE17_M_default_appendEy
                0x0000000068f60b10       0xe0 Common__StringUtil.cpp.obj
                0x0000000068f60b10                std::vector<char, std::allocator<char> >::_M_default_append(unsigned long long)
 .text$_ZNSt6vectorIcSaIcEE6resizeEy
                0x0000000068f60bf0       0x30 Common__StringUtil.cpp.obj
                0x0000000068f60bf0                std::vector<char, std::allocator<char> >::resize(unsigned long long)
 .text$_ZNSt6vectorIwSaIwEE17_M_default_appendEy
                0x0000000068f60c20      0x100 Common__StringUtil.cpp.obj
                0x0000000068f60c20                std::vector<wchar_t, std::allocator<wchar_t> >::_M_default_append(unsigned long long)
 .text$_ZNSt6vectorIwSaIwEE6resizeEy
                0x0000000068f60d20       0x30 Common__StringUtil.cpp.obj
                0x0000000068f60d20                std::vector<wchar_t, std::allocator<wchar_t> >::resize(unsigned long long)
 .text$_ZNSt6vectorIxSaIxEE9push_backERKx
                0x0000000068f60d50       0xe0 Common__CtrlCmdUtil.cpp.obj
                0x0000000068f60d50                std::vector<long long, std::allocator<long long> >::push_back(long long const&)
 .text$_ZNSt7__cxx1112basic_stringIcSt11char_traitsIcESaIcEE10_M_destroyEy
                0x0000000068f60e30       0x10 C:/mingw64/bin/../lib/gcc/x86_64-w64-mingw32/8.1.0\libstdc++.a(string-inst.o)
                0x0000000068f60e30                std::__cxx11::basic_string<char, std::char_traits<char>, std::allocator<char> >::_M_destroy(unsigned long long)
 .text$_ZNSt7__cxx1112basic_stringIcSt11char_traitsIcESaIcEE10_M_disposeEv
                0x0000000068f60e40       0x20 C:/mingw64/bin/../lib/gcc/x86_64-w64-mingw32/8.1.0\libstdc++.a(string-inst.o)
                0x0000000068f60e40                std::__cxx11::basic_string<char, std::char_traits<char>, std::allocator<char> >::_M_dispose()
 .text$_ZNSt7__cxx1112basic_stringIcSt11char_traitsIcESaIcEE10_M_replaceEyyPKcy
                0x0000000068f60e60      0x180 Common__StringUtil.cpp.obj
                0x0000000068f60e60                std::__cxx11::basic_string<char, std::char_traits<char>, std::allocator<char> >::_M_replace(unsigned long long, unsigned long long, char const*, unsigned long long)
 .text$_ZNSt7__cxx1112basic_stringIcSt11char_traitsIcESaIcEE10_S_compareEyy
                0x0000000068f60fe0       0x20 C:/mingw64/bin/../lib/gcc/x86_64-w64-mingw32/8.1.0\libstdc++.a(string-inst.o)
                0x0000000068f60fe0                std::__cxx11::basic_string<char, std::char_traits<char>, std::allocator<char> >::_S_compare(unsigned long long, unsigned long long)
 .text$_ZNSt7__cxx1112basic_stringIcSt11char_traitsIcESaIcEE11_M_capacityEy
                0x0000000068f61000       0x10 C:/mingw64/bin/../lib/gcc/x86_64-w64-mingw32/8.1.0\libstdc++.a(string-inst.o)
                0x0000000068f61000                std::__cxx11::basic_string<char, std::char_traits<char>, std::allocator<char> >::_M_capacity(unsigned long long)
 .text$_ZNSt7__cxx1112basic_stringIcSt11char_traitsIcESaIcEE12_Alloc_hiderC1EPcOS3_
                0x0000000068f61010       0x10 C:/mingw64/bin/../lib/gcc/x86_64-w64-mingw32/8.1.0\libstdc++.a(string-inst.o)
                0x0000000068f61010                std::__cxx11::basic_string<char, std::char_traits<char>, std::allocator<char> >::_Alloc_hider::_Alloc_hider(char*, std::allocator<char>&&)
 .text$_ZNSt7__cxx1112basic_stringIcSt11char_traitsIcESaIcEE12_Alloc_hiderC1EPcRKS3_
                0x0000000068f61020       0x10 C:/mingw64/bin/../lib/gcc/x86_64-w64-mingw32/8.1.0\libstdc++.a(string-inst.o)
                0x0000000068f61020                std::__cxx11::basic_string<char, std::char_traits<char>, std::allocator<char> >::_Alloc_hider::_Alloc_hider(char*, std::allocator<char> const&)
 .text$_ZNSt7__cxx1112basic_stringIcSt11char_traitsIcESaIcEE12_Alloc_hiderC2EPcOS3_
                0x0000000068f61030       0x10 C:/mingw64/bin/../lib/gcc/x86_64-w64-mingw32/8.1.0\libstdc++.a(string-inst.o)
                0x0000000068f61030                std::__cxx11::basic_string<char, std::char_traits<char>, std::allocator<char> >::_Alloc_hider::_Alloc_hider(char*, std::allocator<char>&&)
 .text$_ZNSt7__cxx1112basic_stringIcSt11char_traitsIcESaIcEE12_Alloc_hiderC2EPcRKS3_
                0x0000000068f61040       0x10 C:/mingw64/bin/../lib/gcc/x86_64-w64-mingw32/8.1.0\libstdc++.a(string-inst.o)
                0x0000000068f61040                std::__cxx11::basic_string<char, std::char_traits<char>, std::allocator<char> >::_Alloc_hider::_Alloc_hider(char*, std::allocator<char> const&)
 .text$_ZNSt7__cxx1112basic_stringIcSt11char_traitsIcESaIcEE12_M_constructEyc
                0x0000000068f61050       0x90 C:/mingw64/bin/../lib/gcc/x86_64-w64-mingw32/8.1.0\libstdc++.a(string-inst.o)
                0x0000000068f61050                std::__cxx11::basic_string<char, std::char_traits<char>, std::allocator<char> >::_M_construct(unsigned long long, char)
 .text$_ZNSt7__cxx1112basic_stringIcSt11char_traitsIcESaIcEE12_M_constructIN9__gnu_cxx17__normal_iteratorIPKcS4_EEEEvT_SB_St20forward_iterator_tag
                0x0000000068f610e0       0xa0 C:/mingw64/bin/../lib/gcc/x86_64-w64-mingw32/8.1.0\libstdc++.a(string-inst.o)
                0x0000000068f610e0                void std::__cxx11::basic_string<char, std::char_traits<char>, std::allocator<char> >::_M_construct<__gnu_cxx::__normal_iterator<char const*, std::__cxx11::basic_string<char, std::char_traits<char>, std::allocator<char> > > >(__gnu_cxx::__normal_iterator<char const*, std::__cxx11::basic_string<char, std::char_traits<char>, std::allocator<char> > >, __gnu_cxx::__normal_iterator<char const*, std::__cxx11::basic_string<char, std::char_traits<char>, std::allocator<char> > >, std::forward_iterator_tag)
 .text$_ZNSt7__cxx1112basic_stringIcSt11char_traitsIcESaIcEE12_M_constructIN9__gnu_cxx17__normal_iteratorIPcS4_EEEEvT_SA_St20forward_iterator_tag
                0x0000000068f61180       0xa0 C:/mingw64/bin/../lib/gcc/x86_64-w64-mingw32/8.1.0\libstdc++.a(string-inst.o)
                0x0000000068f61180                void std::__cxx11::basic_string<char, std::char_traits<char>, std::allocator<char> >::_M_construct<__gnu_cxx::__normal_iterator<char*, std::__cxx11::basic_string<char, std::char_traits<char>, std::allocator<char> > > >(__gnu_cxx::__normal_iterator<char*, std::__cxx11::basic_string<char, std::char_traits<char>, std::allocator<char> > >, __gnu_cxx::__normal_iterator<char*, std::__cxx11::basic_string<char, std::char_traits<char>, std::allocator<char> > >, std::forward_iterator_tag)
 .text$_ZNSt7__cxx1112basic_stringIcSt11char_traitsIcESaIcEE12_M_constructIPKcEEvT_S8_St20forward_iterator_tag
                0x0000000068f61220       0xc0 C:/mingw64/bin/../lib/gcc/x86_64-w64-mingw32/8.1.0\libstdc++.a(string-inst.o)
                0x0000000068f61220                void std::__cxx11::basic_string<char, std::char_traits<char>, std::allocator<char> >::_M_construct<char const*>(char const*, char const*, std::forward_iterator_tag)
 .text$_ZNSt7__cxx1112basic_stringIcSt11char_traitsIcESaIcEE12_M_constructIPcEEvT_S7_St20forward_iterator_tag
                0x0000000068f612e0       0xc0 C:/mingw64/bin/../lib/gcc/x86_64-w64-mingw32/8.1.0\libstdc++.a(string-inst.o)
                0x0000000068f612e0                void std::__cxx11::basic_string<char, std::char_traits<char>, std::allocator<char> >::_M_construct<char*>(char*, char*, std::forward_iterator_tag)
 .text$_ZNSt7__cxx1112basic_stringIcSt11char_traitsIcESaIcEE13_M_local_dataEv
                0x0000000068f613a0       0x10 C:/mingw64/bin/../lib/gcc/x86_64-w64-mingw32/8.1.0\libstdc++.a(string-inst.o)
                0x0000000068f613a0                std::__cxx11::basic_string<char, std::char_traits<char>, std::allocator<char> >::_M_local_data()
 .text$_ZNSt7__cxx1112basic_stringIcSt11char_traitsIcESaIcEE13_M_set_lengthEy
                0x0000000068f613b0       0x10 C:/mingw64/bin/../lib/gcc/x86_64-w64-mingw32/8.1.0\libstdc++.a(string-inst.o)
                0x0000000068f613b0                std::__cxx11::basic_string<char, std::char_traits<char>, std::allocator<char> >::_M_set_length(unsigned long long)
 .text$_ZNSt7__cxx1112basic_stringIcSt11char_traitsIcESaIcEE13_S_copy_charsEPcN9__gnu_cxx17__normal_iteratorIPKcS4_EESA_
                0x0000000068f613c0       0x20 C:/mingw64/bin/../lib/gcc/x86_64-w64-mingw32/8.1.0\libstdc++.a(string-inst.o)
                0x0000000068f613c0                std::__cxx11::basic_string<char, std::char_traits<char>, std::allocator<char> >::_S_copy_chars(char*, __gnu_cxx::__normal_iterator<char const*, std::__cxx11::basic_string<char, std::char_traits<char>, std::allocator<char> > >, __gnu_cxx::__normal_iterator<char const*, std::__cxx11::basic_string<char, std::char_traits<char>, std::allocator<char> > >)
 .text$_ZNSt7__cxx1112basic_stringIcSt11char_traitsIcESaIcEE13_S_copy_charsEPcN9__gnu_cxx17__normal_iteratorIS5_S4_EES8_
                0x0000000068f613e0       0x20 C:/mingw64/bin/../lib/gcc/x86_64-w64-mingw32/8.1.0\libstdc++.a(string-inst.o)
                0x0000000068f613e0                std::__cxx11::basic_string<char, std::char_traits<char>, std::allocator<char> >::_S_copy_chars(char*, __gnu_cxx::__normal_iterator<char*, std::__cxx11::basic_string<char, std::char_traits<char>, std::allocator<char> > >, __gnu_cxx::__normal_iterator<char*, std::__cxx11::basic_string<char, std::char_traits<char>, std::allocator<char> > >)
 .text$_ZNSt7__cxx1112basic_stringIcSt11char_traitsIcESaIcEE13_S_copy_charsEPcPKcS7_
                0x0000000068f61400       0x20 C:/mingw64/bin/../lib/gcc/x86_64-w64-mingw32/8.1.0\libstdc++.a(string-inst.o)
                0x0000000068f61400                std::__cxx11::basic_string<char, std::char_traits<char>, std::allocator<char> >::_S_copy_chars(char*, char const*, char const*)
 .text$_ZNSt7__cxx1112basic_stringIcSt11char_traitsIcESaIcEE13_S_copy_charsEPcS5_S5_
                0x0000000068f61420       0x20 C:/mingw64/bin/../lib/gcc/x86_64-w64-mingw32/8.1.0\libstdc++.a(string-inst.o)
                0x0000000068f61420                std::__cxx11::basic_string<char, std::char_traits<char>, std::allocator<char> >::_S_copy_chars(char*, char*, char*)
 .text$_ZNSt7__cxx1112basic_stringIcSt11char_traitsIcESaIcEE13shrink_to_fitEv
                0x0000000068f61440       0x50 C:/mingw64/bin/../lib/gcc/x86_64-w64-mingw32/8.1.0\libstdc++.a(string-inst.o)
                0x0000000068f61440                std::__cxx11::basic_string<char, std::char_traits<char>, std::allocator<char> >::shrink_to_fit()
 .text$_ZNSt7__cxx1112basic_stringIcSt11char_traitsIcESaIcEE14_M_replace_auxEyyyc
                0x0000000068f61490      0x120 C:/mingw64/bin/../lib/gcc/x86_64-w64-mingw32/8.1.0\libstdc++.a(string-inst.o)
                0x0000000068f61490                std::__cxx11::basic_string<char, std::char_traits<char>, std::allocator<char> >::_M_replace_aux(unsigned long long, unsigned long long, unsigned long long, char)
 .text$_ZNSt7__cxx1112basic_stringIcSt11char_traitsIcESaIcEE16_M_get_allocatorEv
                0x0000000068f615b0       0x10 C:/mingw64/bin/../lib/gcc/x86_64-w64-mingw32/8.1.0\libstdc++.a(string-inst.o)
                0x0000000068f615b0                std::__cxx11::basic_string<char, std::char_traits<char>, std::allocator<char> >::_M_get_allocator()
 .text$_ZNSt7__cxx1112basic_stringIcSt11char_traitsIcESaIcEE18_M_construct_aux_2Eyc
                0x0000000068f615c0       0x10 C:/mingw64/bin/../lib/gcc/x86_64-w64-mingw32/8.1.0\libstdc++.a(string-inst.o)
                0x0000000068f615c0                std::__cxx11::basic_string<char, std::char_traits<char>, std::allocator<char> >::_M_construct_aux_2(unsigned long long, char)
 .text$_ZNSt7__cxx1112basic_stringIcSt11char_traitsIcESaIcEE2atEy
                0x0000000068f615d0       0x30 C:/mingw64/bin/../lib/gcc/x86_64-w64-mingw32/8.1.0\libstdc++.a(string-inst.o)
                0x0000000068f615d0                std::__cxx11::basic_string<char, std::char_traits<char>, std::allocator<char> >::at(unsigned long long)
 .text$_ZNSt7__cxx1112basic_stringIcSt11char_traitsIcESaIcEE3endEv
                0x0000000068f61600       0x10 C:/mingw64/bin/../lib/gcc/x86_64-w64-mingw32/8.1.0\libstdc++.a(string-inst.o)
                0x0000000068f61600                std::__cxx11::basic_string<char, std::char_traits<char>, std::allocator<char> >::end()
 .text$_ZNSt7__cxx1112basic_stringIcSt11char_traitsIcESaIcEE4backEv
                0x0000000068f61610       0x10 C:/mingw64/bin/../lib/gcc/x86_64-w64-mingw32/8.1.0\libstdc++.a(string-inst.o)
                0x0000000068f61610                std::__cxx11::basic_string<char, std::char_traits<char>, std::allocator<char> >::back()
 .text$_ZNSt7__cxx1112basic_stringIcSt11char_traitsIcESaIcEE4rendEv
                0x0000000068f61620       0x10 C:/mingw64/bin/../lib/gcc/x86_64-w64-mingw32/8.1.0\libstdc++.a(string-inst.o)
                0x0000000068f61620                std::__cxx11::basic_string<char, std::char_traits<char>, std::allocator<char> >::rend()
 .text$_ZNSt7__cxx1112basic_stringIcSt11char_traitsIcESaIcEE4swapERS4_
                0x0000000068f61630      0x100 C:/mingw64/bin/../lib/gcc/x86_64-w64-mingw32/8.1.0\libstdc++.a(string-inst.o)
                0x0000000068f61630                std::__cxx11::basic_string<char, std::char_traits<char>, std::allocator<char> >::swap(std::__cxx11::basic_string<char, std::char_traits<char>, std::allocator<char> >&)
 .text$_ZNSt7__cxx1112basic_stringIcSt11char_traitsIcESaIcEE5beginEv
                0x0000000068f61730       0x10 C:/mingw64/bin/../lib/gcc/x86_64-w64-mingw32/8.1.0\libstdc++.a(string-inst.o)
                0x0000000068f61730                std::__cxx11::basic_string<char, std::char_traits<char>, std::allocator<char> >::begin()
 .text$_ZNSt7__cxx1112basic_stringIcSt11char_traitsIcESaIcEE5clearEv
                0x0000000068f61740       0x10 C:/mingw64/bin/../lib/gcc/x86_64-w64-mingw32/8.1.0\libstdc++.a(string-inst.o)
                0x0000000068f61740                std::__cxx11::basic_string<char, std::char_traits<char>, std::allocator<char> >::clear()
 .text$_ZNSt7__cxx1112basic_stringIcSt11char_traitsIcESaIcEE5eraseEN9__gnu_cxx17__normal_iteratorIPKcS4_EE
                0x0000000068f61750       0x30 C:/mingw64/bin/../lib/gcc/x86_64-w64-mingw32/8.1.0\libstdc++.a(string-inst.o)
                0x0000000068f61750                std::__cxx11::basic_string<char, std::char_traits<char>, std::allocator<char> >::erase(__gnu_cxx::__normal_iterator<char const*, std::__cxx11::basic_string<char, std::char_traits<char>, std::allocator<char> > >)
 .text$_ZNSt7__cxx1112basic_stringIcSt11char_traitsIcESaIcEE5eraseEN9__gnu_cxx17__normal_iteratorIPKcS4_EES9_
                0x0000000068f61780       0x60 C:/mingw64/bin/../lib/gcc/x86_64-w64-mingw32/8.1.0\libstdc++.a(string-inst.o)
                0x0000000068f61780                std::__cxx11::basic_string<char, std::char_traits<char>, std::allocator<char> >::erase(__gnu_cxx::__normal_iterator<char const*, std::__cxx11::basic_string<char, std::char_traits<char>, std::allocator<char> > >, __gnu_cxx::__normal_iterator<char const*, std::__cxx11::basic_string<char, std::char_traits<char>, std::allocator<char> > >)
 .text$_ZNSt7__cxx1112basic_stringIcSt11char_traitsIcESaIcEE5eraseEyy
                0x0000000068f617e0       0x60 C:/mingw64/bin/../lib/gcc/x86_64-w64-mingw32/8.1.0\libstdc++.a(string-inst.o)
                0x0000000068f617e0                std::__cxx11::basic_string<char, std::char_traits<char>, std::allocator<char> >::erase(unsigned long long, unsigned long long)
 .text$_ZNSt7__cxx1112basic_stringIcSt11char_traitsIcESaIcEE5frontEv
                0x0000000068f61840       0x10 C:/mingw64/bin/../lib/gcc/x86_64-w64-mingw32/8.1.0\libstdc++.a(string-inst.o)
                0x0000000068f61840                std::__cxx11::basic_string<char, std::char_traits<char>, std::allocator<char> >::front()
 .text$_ZNSt7__cxx1112basic_stringIcSt11char_traitsIcESaIcEE6appendEPKc
                0x0000000068f61850       0x50 C:/mingw64/bin/../lib/gcc/x86_64-w64-mingw32/8.1.0\libstdc++.a(string-inst.o)
                0x0000000068f61850                std::__cxx11::basic_string<char, std::char_traits<char>, std::allocator<char> >::append(char const*)
 .text$_ZNSt7__cxx1112basic_stringIcSt11char_traitsIcESaIcEE6appendEPKcy
                0x0000000068f618a0       0x30 C:/mingw64/bin/../lib/gcc/x86_64-w64-mingw32/8.1.0\libstdc++.a(string-inst.o)
                0x0000000068f618a0                std::__cxx11::basic_string<char, std::char_traits<char>, std::allocator<char> >::append(char const*, unsigned long long)
 .text$_ZNSt7__cxx1112basic_stringIcSt11char_traitsIcESaIcEE6appendERKS4_
                0x0000000068f618d0       0x10 C:/mingw64/bin/../lib/gcc/x86_64-w64-mingw32/8.1.0\libstdc++.a(string-inst.o)
                0x0000000068f618d0                std::__cxx11::basic_string<char, std::char_traits<char>, std::allocator<char> >::append(std::__cxx11::basic_string<char, std::char_traits<char>, std::allocator<char> > const&)
 .text$_ZNSt7__cxx1112basic_stringIcSt11char_traitsIcESaIcEE6appendERKS4_yy
                0x0000000068f618e0       0x50 C:/mingw64/bin/../lib/gcc/x86_64-w64-mingw32/8.1.0\libstdc++.a(string-inst.o)
                0x0000000068f618e0                std::__cxx11::basic_string<char, std::char_traits<char>, std::allocator<char> >::append(std::__cxx11::basic_string<char, std::char_traits<char>, std::allocator<char> > const&, unsigned long long, unsigned long long)
 .text$_ZNSt7__cxx1112basic_stringIcSt11char_traitsIcESaIcEE6appendESt16initializer_listIcE
                0x0000000068f61930       0x40 C:/mingw64/bin/../lib/gcc/x86_64-w64-mingw32/8.1.0\libstdc++.a(string-inst.o)
                0x0000000068f61930                std::__cxx11::basic_string<char, std::char_traits<char>, std::allocator<char> >::append(std::initializer_list<char>)
 .text$_ZNSt7__cxx1112basic_stringIcSt11char_traitsIcESaIcEE6appendEyc
                0x0000000068f61970       0x30 C:/mingw64/bin/../lib/gcc/x86_64-w64-mingw32/8.1.0\libstdc++.a(string-inst.o)
                0x0000000068f61970                std::__cxx11::basic_string<char, std::char_traits<char>, std::allocator<char> >::append(unsigned long long, char)
 .text$_ZNSt7__cxx1112basic_stringIcSt11char_traitsIcESaIcEE6assignEOS4_
                0x0000000068f619a0       0xa0 C:/mingw64/bin/../lib/gcc/x86_64-w64-mingw32/8.1.0\libstdc++.a(string-inst.o)
                0x0000000068f619a0                std::__cxx11::basic_string<char, std::char_traits<char>, std::allocator<char> >::assign(std::__cxx11::basic_string<char, std::char_traits<char>, std::allocator<char> >&&)
 .text$_ZNSt7__cxx1112basic_stringIcSt11char_traitsIcESaIcEE6assignEPKc
                0x0000000068f61a40       0x40 C:/mingw64/bin/../lib/gcc/x86_64-w64-mingw32/8.1.0\libstdc++.a(string-inst.o)
                0x0000000068f61a40                std::__cxx11::basic_string<char, std::char_traits<char>, std::allocator<char> >::assign(char const*)
 .text$_ZNSt7__cxx1112basic_stringIcSt11char_traitsIcESaIcEE6assignEPKcy
                0x0000000068f61a80       0x20 C:/mingw64/bin/../lib/gcc/x86_64-w64-mingw32/8.1.0\libstdc++.a(string-inst.o)
                0x0000000068f61a80                std::__cxx11::basic_string<char, std::char_traits<char>, std::allocator<char> >::assign(char const*, unsigned long long)
 .text$_ZNSt7__cxx1112basic_stringIcSt11char_traitsIcESaIcEE6assignERKS4_
                0x0000000068f61aa0       0x20 C:/mingw64/bin/../lib/gcc/x86_64-w64-mingw32/8.1.0\libstdc++.a(string-inst.o)
                0x0000000068f61aa0                std::__cxx11::basic_string<char, std::char_traits<char>, std::allocator<char> >::assign(std::__cxx11::basic_string<char, std::char_traits<char>, std::allocator<char> > const&)
 .text$_ZNSt7__cxx1112basic_stringIcSt11char_traitsIcESaIcEE6assignERKS4_yy
                0x0000000068f61ac0       0x50 C:/mingw64/bin/../lib/gcc/x86_64-w64-mingw32/8.1.0\libstdc++.a(string-inst.o)
                0x0000000068f61ac0                std::__cxx11::basic_string<char, std::char_traits<char>, std::allocator<char> >::assign(std::__cxx11::basic_string<char, std::char_traits<char>, std::allocator<char> > const&, unsigned long long, unsigned long long)
 .text$_ZNSt7__cxx1112basic_stringIcSt11char_traitsIcESaIcEE6assignESt16initializer_listIcE
                0x0000000068f61b10       0x20 C:/mingw64/bin/../lib/gcc/x86_64-w64-mingw32/8.1.0\libstdc++.a(string-inst.o)
                0x0000000068f61b10                std::__cxx11::basic_string<char, std::char_traits<char>, std::allocator<char> >::assign(std::initializer_list<char>)
 .text$_ZNSt7__cxx1112basic_stringIcSt11char_traitsIcESaIcEE6assignEyc
                0x0000000068f61b30       0x20 C:/mingw64/bin/../lib/gcc/x86_64-w64-mingw32/8.1.0\libstdc++.a(string-inst.o)
                0x0000000068f61b30                std::__cxx11::basic_string<char, std::char_traits<char>, std::allocator<char> >::assign(unsigned long long, char)
 .text$_ZNSt7__cxx1112basic_stringIcSt11char_traitsIcESaIcEE6insertEN9__gnu_cxx17__normal_iteratorIPKcS4_EEc
                0x0000000068f61b50       0x40 C:/mingw64/bin/../lib/gcc/x86_64-w64-mingw32/8.1.0\libstdc++.a(string-inst.o)
                0x0000000068f61b50                std::__cxx11::basic_string<char, std::char_traits<char>, std::allocator<char> >::insert(__gnu_cxx::__normal_iterator<char const*, std::__cxx11::basic_string<char, std::char_traits<char>, std::allocator<char> > >, char)
 .text$_ZNSt7__cxx1112basic_stringIcSt11char_traitsIcESaIcEE6insertEN9__gnu_cxx17__normal_iteratorIPKcS4_EEyc
                0x0000000068f61b90       0x40 C:/mingw64/bin/../lib/gcc/x86_64-w64-mingw32/8.1.0\libstdc++.a(string-inst.o)
                0x0000000068f61b90                std::__cxx11::basic_string<char, std::char_traits<char>, std::allocator<char> >::insert(__gnu_cxx::__normal_iterator<char const*, std::__cxx11::basic_string<char, std::char_traits<char>, std::allocator<char> > >, unsigned long long, char)
 .text$_ZNSt7__cxx1112basic_stringIcSt11char_traitsIcESaIcEE6insertEN9__gnu_cxx17__normal_iteratorIPcS4_EESt16initializer_listIcE
                0x0000000068f61bd0       0x50 C:/mingw64/bin/../lib/gcc/x86_64-w64-mingw32/8.1.0\libstdc++.a(string-inst.o)
                0x0000000068f61bd0                std::__cxx11::basic_string<char, std::char_traits<char>, std::allocator<char> >::insert(__gnu_cxx::__normal_iterator<char*, std::__cxx11::basic_string<char, std::char_traits<char>, std::allocator<char> > >, std::initializer_list<char>)
 .text$_ZNSt7__cxx1112basic_stringIcSt11char_traitsIcESaIcEE6insertEyPKc
                0x0000000068f61c20       0x60 C:/mingw64/bin/../lib/gcc/x86_64-w64-mingw32/8.1.0\libstdc++.a(string-inst.o)
                0x0000000068f61c20                std::__cxx11::basic_string<char, std::char_traits<char>, std::allocator<char> >::insert(unsigned long long, char const*)
 .text$_ZNSt7__cxx1112basic_stringIcSt11char_traitsIcESaIcEE6insertEyPKcy
                0x0000000068f61c80       0x40 C:/mingw64/bin/../lib/gcc/x86_64-w64-mingw32/8.1.0\libstdc++.a(string-inst.o)
                0x0000000068f61c80                std::__cxx11::basic_string<char, std::char_traits<char>, std::allocator<char> >::insert(unsigned long long, char const*, unsigned long long)
 .text$_ZNSt7__cxx1112basic_stringIcSt11char_traitsIcESaIcEE6insertEyRKS4_
                0x0000000068f61cc0       0x40 C:/mingw64/bin/../lib/gcc/x86_64-w64-mingw32/8.1.0\libstdc++.a(string-inst.o)
                0x0000000068f61cc0                std::__cxx11::basic_string<char, std::char_traits<char>, std::allocator<char> >::insert(unsigned long long, std::__cxx11::basic_string<char, std::char_traits<char>, std::allocator<char> > const&)
 .text$_ZNSt7__cxx1112basic_stringIcSt11char_traitsIcESaIcEE6insertEyRKS4_yy
                0x0000000068f61d00       0x80 C:/mingw64/bin/../lib/gcc/x86_64-w64-mingw32/8.1.0\libstdc++.a(string-inst.o)
                0x0000000068f61d00                std::__cxx11::basic_string<char, std::char_traits<char>, std::allocator<char> >::insert(unsigned long long, std::__cxx11::basic_string<char, std::char_traits<char>, std::allocator<char> > const&, unsigned long long, unsigned long long)
 .text$_ZNSt7__cxx1112basic_stringIcSt11char_traitsIcESaIcEE6insertEyyc
                0x0000000068f61d80       0x40 C:/mingw64/bin/../lib/gcc/x86_64-w64-mingw32/8.1.0\libstdc++.a(string-inst.o)
                0x0000000068f61d80                std::__cxx11::basic_string<char, std::char_traits<char>, std::allocator<char> >::insert(unsigned long long, unsigned long long, char)
 .text$_ZNSt7__cxx1112basic_stringIcSt11char_traitsIcESaIcEE6rbeginEv
                0x0000000068f61dc0       0x10 C:/mingw64/bin/../lib/gcc/x86_64-w64-mingw32/8.1.0\libstdc++.a(string-inst.o)
                0x0000000068f61dc0                std::__cxx11::basic_string<char, std::char_traits<char>, std::allocator<char> >::rbegin()
 .text$_ZNSt7__cxx1112basic_stringIcSt11char_traitsIcESaIcEE6resizeEy
                0x0000000068f61dd0       0x10 C:/mingw64/bin/../lib/gcc/x86_64-w64-mingw32/8.1.0\libstdc++.a(string-inst.o)
                0x0000000068f61dd0                std::__cxx11::basic_string<char, std::char_traits<char>, std::allocator<char> >::resize(unsigned long long)
 .text$_ZNSt7__cxx1112basic_stringIcSt11char_traitsIcESaIcEE6resizeEyc
                0x0000000068f61de0       0x40 C:/mingw64/bin/../lib/gcc/x86_64-w64-mingw32/8.1.0\libstdc++.a(string-inst.o)
                0x0000000068f61de0                std::__cxx11::basic_string<char, std::char_traits<char>, std::allocator<char> >::resize(unsigned long long, char)
 .text$_ZNSt7__cxx1112basic_stringIcSt11char_traitsIcESaIcEE7_M_dataEPc
                0x0000000068f61e20       0x10 C:/mingw64/bin/../lib/gcc/x86_64-w64-mingw32/8.1.0\libstdc++.a(string-inst.o)
                0x0000000068f61e20                std::__cxx11::basic_string<char, std::char_traits<char>, std::allocator<char> >::_M_data(char*)
 .text$_ZNSt7__cxx1112basic_stringIcSt11char_traitsIcESaIcEE7_S_copyEPcPKcy
                0x0000000068f61e30       0x30 Common__StringUtil.cpp.obj
                0x0000000068f61e30                std::__cxx11::basic_string<char, std::char_traits<char>, std::allocator<char> >::_S_copy(char*, char const*, unsigned long long)
 .text$_ZNSt7__cxx1112basic_stringIcSt11char_traitsIcESaIcEE7_S_moveEPcPKcy
                0x0000000068f61e60       0x20 Common__StringUtil.cpp.obj
                0x0000000068f61e60                std::__cxx11::basic_string<char, std::char_traits<char>, std::allocator<char> >::_S_move(char*, char const*, unsigned long long)
 .text$_ZNSt7__cxx1112basic_stringIcSt11char_traitsIcESaIcEE7replaceEN9__gnu_cxx17__normal_iteratorIPKcS4_EES9_NS6_IPcS4_EESB_
                0x0000000068f61e80       0x60 C:/mingw64/bin/../lib/gcc/x86_64-w64-mingw32/8.1.0\libstdc++.a(string-inst.o)
                0x0000000068f61e80                std::__cxx11::basic_string<char, std::char_traits<char>, std::allocator<char> >::replace(__gnu_cxx::__normal_iterator<char const*, std::__cxx11::basic_string<char, std::char_traits<char>, std::allocator<char> > >, __gnu_cxx::__normal_iterator<char const*, std::__cxx11::basic_string<char, std::char_traits<char>, std::allocator<char> > >, __gnu_cxx::__normal_iterator<char*, std::__cxx11::basic_string<char, std::char_traits<char>, std::allocator<char> > >, __gnu_cxx::__normal_iterator<char*, std::__cxx11::basic_string<char, std::char_traits<char>, std::allocator<char> > >)
 .text$_ZNSt7__cxx1112basic_stringIcSt11char_traitsIcESaIcEE7replaceEN9__gnu_cxx17__normal_iteratorIPKcS4_EES9_PcSA_
                0x0000000068f61ee0       0x60 C:/mingw64/bin/../lib/gcc/x86_64-w64-mingw32/8.1.0\libstdc++.a(string-inst.o)
                0x0000000068f61ee0                std::__cxx11::basic_string<char, std::char_traits<char>, std::allocator<char> >::replace(__gnu_cxx::__normal_iterator<char const*, std::__cxx11::basic_string<char, std::char_traits<char>, std::allocator<char> > >, __gnu_cxx::__normal_iterator<char const*, std::__cxx11::basic_string<char, std::char_traits<char>, std::allocator<char> > >, char*, char*)
 .text$_ZNSt7__cxx1112basic_stringIcSt11char_traitsIcESaIcEE7replaceEN9__gnu_cxx17__normal_iteratorIPKcS4_EES9_RKS4_
                0x0000000068f61f40       0x60 C:/mingw64/bin/../lib/gcc/x86_64-w64-mingw32/8.1.0\libstdc++.a(string-inst.o)
                0x0000000068f61f40                std::__cxx11::basic_string<char, std::char_traits<char>, std::allocator<char> >::replace(__gnu_cxx::__normal_iterator<char const*, std::__cxx11::basic_string<char, std::char_traits<char>, std::allocator<char> > >, __gnu_cxx::__normal_iterator<char const*, std::__cxx11::basic_string<char, std::char_traits<char>, std::allocator<char> > >, std::__cxx11::basic_string<char, std::char_traits<char>, std::allocator<char> > const&)
 .text$_ZNSt7__cxx1112basic_stringIcSt11char_traitsIcESaIcEE7replaceEN9__gnu_cxx17__normal_iteratorIPKcS4_EES9_S8_
                0x0000000068f61fa0       0x80 C:/mingw64/bin/../lib/gcc/x86_64-w64-mingw32/8.1.0\libstdc++.a(string-inst.o)
                0x0000000068f61fa0                std::__cxx11::basic_string<char, std::char_traits<char>, std::allocator<char> >::replace(__gnu_cxx::__normal_iterator<char const*, std::__cxx11::basic_string<char, std::char_traits<char>, std::allocator<char> > >, __gnu_cxx::__normal_iterator<char const*, std::__cxx11::basic_string<char, std::char_traits<char>, std::allocator<char> > >, char const*)
 .text$_ZNSt7__cxx1112basic_stringIcSt11char_traitsIcESaIcEE7replaceEN9__gnu_cxx17__normal_iteratorIPKcS4_EES9_S8_S8_
                0x0000000068f62020       0x60 C:/mingw64/bin/../lib/gcc/x86_64-w64-mingw32/8.1.0\libstdc++.a(string-inst.o)
                0x0000000068f62020                std::__cxx11::basic_string<char, std::char_traits<char>, std::allocator<char> >::replace(__gnu_cxx::__normal_iterator<char const*, std::__cxx11::basic_string<char, std::char_traits<char>, std::allocator<char> > >, __gnu_cxx::__normal_iterator<char const*, std::__cxx11::basic_string<char, std::char_traits<char>, std::allocator<char> > >, char const*, char const*)
 .text$_ZNSt7__cxx1112basic_stringIcSt11char_traitsIcESaIcEE7replaceEN9__gnu_cxx17__normal_iteratorIPKcS4_EES9_S8_y
                0x0000000068f62080       0x50 C:/mingw64/bin/../lib/gcc/x86_64-w64-mingw32/8.1.0\libstdc++.a(string-inst.o)
                0x0000000068f62080                std::__cxx11::basic_string<char, std::char_traits<char>, std::allocator<char> >::replace(__gnu_cxx::__normal_iterator<char const*, std::__cxx11::basic_string<char, std::char_traits<char>, std::allocator<char> > >, __gnu_cxx::__normal_iterator<char const*, std::__cxx11::basic_string<char, std::char_traits<char>, std::allocator<char> > >, char const*, unsigned long long)
 .text$_ZNSt7__cxx1112basic_stringIcSt11char_traitsIcESaIcEE7replaceEN9__gnu_cxx17__normal_iteratorIPKcS4_EES9_S9_S9_
                0x0000000068f620d0       0x60 C:/mingw64/bin/../lib/gcc/x86_64-w64-mingw32/8.1.0\libstdc++.a(string-inst.o)
                0x0000000068f620d0                std::__cxx11::basic_string<char, std::char_traits<char>, std::allocator<char> >::replace(__gnu_cxx::__normal_iterator<char const*, std::__cxx11::basic_string<char, std::char_traits<char>, std::allocator<char> > >, __gnu_cxx::__normal_iterator<char const*, std::__cxx11::basic_string<char, std::char_traits<char>, std::allocator<char> > >, __gnu_cxx::__normal_iterator<char const*, std::__cxx11::basic_string<char, std::char_traits<char>, std::allocator<char> > >, __gnu_cxx::__normal_iterator<char const*, std::__cxx11::basic_string<char, std::char_traits<char>, std::allocator<char> > >)
 .text$_ZNSt7__cxx1112basic_stringIcSt11char_traitsIcESaIcEE7replaceEN9__gnu_cxx17__normal_iteratorIPKcS4_EES9_St16initializer_listIcE
                0x0000000068f62130       0x60 C:/mingw64/bin/../lib/gcc/x86_64-w64-mingw32/8.1.0\libstdc++.a(string-inst.o)
                0x0000000068f62130                std::__cxx11::basic_string<char, std::char_traits<char>, std::allocator<char> >::replace(__gnu_cxx::__normal_iterator<char const*, std::__cxx11::basic_string<char, std::char_traits<char>, std::allocator<char> > >, __gnu_cxx::__normal_iterator<char const*, std::__cxx11::basic_string<char, std::char_traits<char>, std::allocator<char> > >, std::initializer_list<char>)
 .text$_ZNSt7__cxx1112basic_stringIcSt11char_traitsIcESaIcEE7replaceEN9__gnu_cxx17__normal_iteratorIPKcS4_EES9_yc
                0x0000000068f62190       0x20 C:/mingw64/bin/../lib/gcc/x86_64-w64-mingw32/8.1.0\libstdc++.a(string-inst.o)
                0x0000000068f62190                std::__cxx11::basic_string<char, std::char_traits<char>, std::allocator<char> >::replace(__gnu_cxx::__normal_iterator<char const*, std::__cxx11::basic_string<char, std::char_traits<char>, std::allocator<char> > >, __gnu_cxx::__normal_iterator<char const*, std::__cxx11::basic_string<char, std::char_traits<char>, std::allocator<char> > >, unsigned long long, char)
 .text$_ZNSt7__cxx1112basic_stringIcSt11char_traitsIcESaIcEE7replaceEyyPKc
                0x0000000068f621b0       0x70 C:/mingw64/bin/../lib/gcc/x86_64-w64-mingw32/8.1.0\libstdc++.a(string-inst.o)
                0x0000000068f621b0                std::__cxx11::basic_string<char, std::char_traits<char>, std::allocator<char> >::replace(unsigned long long, unsigned long long, char const*)
 .text$_ZNSt7__cxx1112basic_stringIcSt11char_traitsIcESaIcEE7replaceEyyPKcy
                0x0000000068f62220       0x40 C:/mingw64/bin/../lib/gcc/x86_64-w64-mingw32/8.1.0\libstdc++.a(string-inst.o)
                0x0000000068f62220                std::__cxx11::basic_string<char, std::char_traits<char>, std::allocator<char> >::replace(unsigned long long, unsigned long long, char const*, unsigned long long)
 .text$_ZNSt7__cxx1112basic_stringIcSt11char_traitsIcESaIcEE7replaceEyyRKS4_
                0x0000000068f62260       0x50 C:/mingw64/bin/../lib/gcc/x86_64-w64-mingw32/8.1.0\libstdc++.a(string-inst.o)
                0x0000000068f62260                std::__cxx11::basic_string<char, std::char_traits<char>, std::allocator<char> >::replace(unsigned long long, unsigned long long, std::__cxx11::basic_string<char, std::char_traits<char>, std::allocator<char> > const&)
 .text$_ZNSt7__cxx1112basic_stringIcSt11char_traitsIcESaIcEE7replaceEyyRKS4_yy
                0x0000000068f622b0       0x90 C:/mingw64/bin/../lib/gcc/x86_64-w64-mingw32/8.1.0\libstdc++.a(string-inst.o)
                0x0000000068f622b0                std::__cxx11::basic_string<char, std::char_traits<char>, std::allocator<char> >::replace(unsigned long long, unsigned long long, std::__cxx11::basic_string<char, std::char_traits<char>, std::allocator<char> > const&, unsigned long long, unsigned long long)
 .text$_ZNSt7__cxx1112basic_stringIcSt11char_traitsIcESaIcEE7replaceEyyyc
                0x0000000068f62340       0x50 C:/mingw64/bin/../lib/gcc/x86_64-w64-mingw32/8.1.0\libstdc++.a(string-inst.o)
                0x0000000068f62340                std::__cxx11::basic_string<char, std::char_traits<char>, std::allocator<char> >::replace(unsigned long long, unsigned long long, unsigned long long, char)
 .text$_ZNSt7__cxx1112basic_stringIcSt11char_traitsIcESaIcEE7reserveEy
                0x0000000068f62390      0x110 C:/mingw64/bin/../lib/gcc/x86_64-w64-mingw32/8.1.0\libstdc++.a(string-inst.o)
                0x0000000068f62390                std::__cxx11::basic_string<char, std::char_traits<char>, std::allocator<char> >::reserve(unsigned long long)
 .text$_ZNSt7__cxx1112basic_stringIcSt11char_traitsIcESaIcEE8_M_eraseEyy
                0x0000000068f624a0       0x60 C:/mingw64/bin/../lib/gcc/x86_64-w64-mingw32/8.1.0\libstdc++.a(string-inst.o)
                0x0000000068f624a0                std::__cxx11::basic_string<char, std::char_traits<char>, std::allocator<char> >::_M_erase(unsigned long long, unsigned long long)
 .text$_ZNSt7__cxx1112basic_stringIcSt11char_traitsIcESaIcEE8pop_backEv
                0x0000000068f62500       0x20 C:/mingw64/bin/../lib/gcc/x86_64-w64-mingw32/8.1.0\libstdc++.a(string-inst.o)
                0x0000000068f62500                std::__cxx11::basic_string<char, std::char_traits<char>, std::allocator<char> >::pop_back()
 .text$_ZNSt7__cxx1112basic_stringIcSt11char_traitsIcESaIcEE9_M_appendEPKcy
                0x0000000068f62520       0x90 C:/mingw64/bin/../lib/gcc/x86_64-w64-mingw32/8.1.0\libstdc++.a(string-inst.o)
                0x0000000068f62520                std::__cxx11::basic_string<char, std::char_traits<char>, std::allocator<char> >::_M_append(char const*, unsigned long long)
 .text$_ZNSt7__cxx1112basic_stringIcSt11char_traitsIcESaIcEE9_M_assignERKS4_
                0x0000000068f625b0       0xb0 C:/mingw64/bin/../lib/gcc/x86_64-w64-mingw32/8.1.0\libstdc++.a(string-inst.o)
                0x0000000068f625b0                std::__cxx11::basic_string<char, std::char_traits<char>, std::allocator<char> >::_M_assign(std::__cxx11::basic_string<char, std::char_traits<char>, std::allocator<char> > const&)
 .text$_ZNSt7__cxx1112basic_stringIcSt11char_traitsIcESaIcEE9_M_createERyy
                0x0000000068f62660       0x70 C:/mingw64/bin/../lib/gcc/x86_64-w64-mingw32/8.1.0\libstdc++.a(string-inst.o)
                0x0000000068f62660                std::__cxx11::basic_string<char, std::char_traits<char>, std::allocator<char> >::_M_create(unsigned long long&, unsigned long long)
 .text$_ZNSt7__cxx1112basic_stringIcSt11char_traitsIcESaIcEE9_M_lengthEy
                0x0000000068f626d0       0x10 C:/mingw64/bin/../lib/gcc/x86_64-w64-mingw32/8.1.0\libstdc++.a(string-inst.o)
                0x0000000068f626d0                std::__cxx11::basic_string<char, std::char_traits<char>, std::allocator<char> >::_M_length(unsigned long long)
 .text$_ZNSt7__cxx1112basic_stringIcSt11char_traitsIcESaIcEE9_M_mutateEyyPKcy
                0x0000000068f626e0      0x100 Common__StringUtil.cpp.obj
                0x0000000068f626e0                std::__cxx11::basic_string<char, std::char_traits<char>, std::allocator<char> >::_M_mutate(unsigned long long, unsigned long long, char const*, unsigned long long)
 .text$_ZNSt7__cxx1112basic_stringIcSt11char_traitsIcESaIcEE9_S_assignEPcyc
                0x0000000068f627e0       0x30 C:/mingw64/bin/../lib/gcc/x86_64-w64-mingw32/8.1.0\libstdc++.a(string-inst.o)
                0x0000000068f627e0                std::__cxx11::basic_string<char, std::char_traits<char>, std::allocator<char> >::_S_assign(char*, unsigned long long, char)
 .text$_ZNSt7__cxx1112basic_stringIcSt11char_traitsIcESaIcEE9push_backEc
                0x0000000068f62810       0x70 C:/mingw64/bin/../lib/gcc/x86_64-w64-mingw32/8.1.0\libstdc++.a(string-inst.o)
                0x0000000068f62810                std::__cxx11::basic_string<char, std::char_traits<char>, std::allocator<char> >::push_back(char)
 .text$_ZNSt7__cxx1112basic_stringIcSt11char_traitsIcESaIcEEC1EOS4_
                0x0000000068f62880       0x50 C:/mingw64/bin/../lib/gcc/x86_64-w64-mingw32/8.1.0\libstdc++.a(string-inst.o)
                0x0000000068f62880                std::__cxx11::basic_string<char, std::char_traits<char>, std::allocator<char> >::basic_string(std::__cxx11::basic_string<char, std::char_traits<char>, std::allocator<char> >&&)
 .text$_ZNSt7__cxx1112basic_stringIcSt11char_traitsIcESaIcEEC1EOS4_RKS3_
                0x0000000068f628d0       0x60 C:/mingw64/bin/../lib/gcc/x86_64-w64-mingw32/8.1.0\libstdc++.a(string-inst.o)
                0x0000000068f628d0                std::__cxx11::basic_string<char, std::char_traits<char>, std::allocator<char> >::basic_string(std::__cxx11::basic_string<char, std::char_traits<char>, std::allocator<char> >&&, std::allocator<char> const&)
 .text$_ZNSt7__cxx1112basic_stringIcSt11char_traitsIcESaIcEEC1EPKcRKS3_
                0x0000000068f62930       0x40 C:/mingw64/bin/../lib/gcc/x86_64-w64-mingw32/8.1.0\libstdc++.a(string-inst.o)
                0x0000000068f62930                std::__cxx11::basic_string<char, std::char_traits<char>, std::allocator<char> >::basic_string(char const*, std::allocator<char> const&)
 .text$_ZNSt7__cxx1112basic_stringIcSt11char_traitsIcESaIcEEC1EPKcyRKS3_
                0x0000000068f62970       0x20 C:/mingw64/bin/../lib/gcc/x86_64-w64-mingw32/8.1.0\libstdc++.a(string-inst.o)
                0x0000000068f62970                std::__cxx11::basic_string<char, std::char_traits<char>, std::allocator<char> >::basic_string(char const*, unsigned long long, std::allocator<char> const&)
 .text$_ZNSt7__cxx1112basic_stringIcSt11char_traitsIcESaIcEEC1ERKS3_
                0x0000000068f62990       0x20 C:/mingw64/bin/../lib/gcc/x86_64-w64-mingw32/8.1.0\libstdc++.a(string-inst.o)
                0x0000000068f62990                std::__cxx11::basic_string<char, std::char_traits<char>, std::allocator<char> >::basic_string(std::allocator<char> const&)
 .text$_ZNSt7__cxx1112basic_stringIcSt11char_traitsIcESaIcEEC1ERKS4_
                0x0000000068f629b0       0x20 C:/mingw64/bin/../lib/gcc/x86_64-w64-mingw32/8.1.0\libstdc++.a(string-inst.o)
                0x0000000068f629b0                std::__cxx11::basic_string<char, std::char_traits<char>, std::allocator<char> >::basic_string(std::__cxx11::basic_string<char, std::char_traits<char>, std::allocator<char> > const&)
 .text$_ZNSt7__cxx1112basic_stringIcSt11char_traitsIcESaIcEEC1ERKS4_RKS3_
                0x0000000068f629d0       0x20 C:/mingw64/bin/../lib/gcc/x86_64-w64-mingw32/8.1.0\libstdc++.a(string-inst.o)
                0x0000000068f629d0                std::__cxx11::basic_string<char, std::char_traits<char>, std::allocator<char> >::basic_string(std::__cxx11::basic_string<char, std::char_traits<char>, std::allocator<char> > const&, std::allocator<char> const&)
 .text$_ZNSt7__cxx1112basic_stringIcSt11char_traitsIcESaIcEEC1ERKS4_yRKS3_
                0x0000000068f629f0       0x50 C:/mingw64/bin/../lib/gcc/x86_64-w64-mingw32/8.1.0\libstdc++.a(string-inst.o)
                0x0000000068f629f0                std::__cxx11::basic_string<char, std::char_traits<char>, std::allocator<char> >::basic_string(std::__cxx11::basic_string<char, std::char_traits<char>, std::allocator<char> > const&, unsigned long long, std::allocator<char> const&)
 .text$_ZNSt7__cxx1112basic_stringIcSt11char_traitsIcESaIcEEC1ERKS4_yy
                0x0000000068f62a40       0x50 C:/mingw64/bin/../lib/gcc/x86_64-w64-mingw32/8.1.0\libstdc++.a(string-inst.o)
                0x0000000068f62a40                std::__cxx11::basic_string<char, std::char_traits<char>, std::allocator<char> >::basic_string(std::__cxx11::basic_string<char, std::char_traits<char>, std::allocator<char> > const&, unsigned long long, unsigned long long)
 .text$_ZNSt7__cxx1112basic_stringIcSt11char_traitsIcESaIcEEC1ERKS4_yyRKS3_
                0x0000000068f62a90       0x50 C:/mingw64/bin/../lib/gcc/x86_64-w64-mingw32/8.1.0\libstdc++.a(string-inst.o)
                0x0000000068f62a90                std::__cxx11::basic_string<char, std::char_traits<char>, std::allocator<char> >::basic_string(std::__cxx11::basic_string<char, std::char_traits<char>, std::allocator<char> > const&, unsigned long long, unsigned long long, std::allocator<char> const&)
 .text$_ZNSt7__cxx1112basic_stringIcSt11char_traitsIcESaIcEEC1ESt16initializer_listIcERKS3_
                0x0000000068f62ae0       0x20 C:/mingw64/bin/../lib/gcc/x86_64-w64-mingw32/8.1.0\libstdc++.a(string-inst.o)
                0x0000000068f62ae0                std::__cxx11::basic_string<char, std::char_traits<char>, std::allocator<char> >::basic_string(std::initializer_list<char>, std::allocator<char> const&)
 .text$_ZNSt7__cxx1112basic_stringIcSt11char_traitsIcESaIcEEC1Ev
                0x0000000068f62b00       0x20 C:/mingw64/bin/../lib/gcc/x86_64-w64-mingw32/8.1.0\libstdc++.a(string-inst.o)
                0x0000000068f62b00                std::__cxx11::basic_string<char, std::char_traits<char>, std::allocator<char> >::basic_string()
 .text$_ZNSt7__cxx1112basic_stringIcSt11char_traitsIcESaIcEEC1EycRKS3_
                0x0000000068f62b20       0x10 C:/mingw64/bin/../lib/gcc/x86_64-w64-mingw32/8.1.0\libstdc++.a(string-inst.o)
                0x0000000068f62b20                std::__cxx11::basic_string<char, std::char_traits<char>, std::allocator<char> >::basic_string(unsigned long long, char, std::allocator<char> const&)
 .text$_ZNSt7__cxx1112basic_stringIcSt11char_traitsIcESaIcEEC1IN9__gnu_cxx17__normal_iteratorIPcS4_EEvEET_SA_RKS3_
                0x0000000068f62b30       0x10 C:/mingw64/bin/../lib/gcc/x86_64-w64-mingw32/8.1.0\libstdc++.a(string-inst.o)
                0x0000000068f62b30                std::__cxx11::basic_string<char, std::char_traits<char>, std::allocator<char> >::basic_string<__gnu_cxx::__normal_iterator<char*, std::__cxx11::basic_string<char, std::char_traits<char>, std::allocator<char> > >, void>(__gnu_cxx::__normal_iterator<char*, std::__cxx11::basic_string<char, std::char_traits<char>, std::allocator<char> > >, __gnu_cxx::__normal_iterator<char*, std::__cxx11::basic_string<char, std::char_traits<char>, std::allocator<char> > >, std::allocator<char> const&)
 .text$_ZNSt7__cxx1112basic_stringIcSt11char_traitsIcESaIcEEC1IPKcvEET_S8_RKS3_
                0x0000000068f62b40       0x10 C:/mingw64/bin/../lib/gcc/x86_64-w64-mingw32/8.1.0\libstdc++.a(string-inst.o)
                0x0000000068f62b40                std::__cxx11::basic_string<char, std::char_traits<char>, std::allocator<char> >::basic_string<char const*, void>(char const*, char const*, std::allocator<char> const&)
 .text$_ZNSt7__cxx1112basic_stringIcSt11char_traitsIcESaIcEEC1IPcvEET_S7_RKS3_
                0x0000000068f62b50       0x10 C:/mingw64/bin/../lib/gcc/x86_64-w64-mingw32/8.1.0\libstdc++.a(string-inst.o)
                0x0000000068f62b50                std::__cxx11::basic_string<char, std::char_traits<char>, std::allocator<char> >::basic_string<char*, void>(char*, char*, std::allocator<char> const&)
 .text$_ZNSt7__cxx1112basic_stringIcSt11char_traitsIcESaIcEEC2EOS4_
                0x0000000068f62b60       0x50 C:/mingw64/bin/../lib/gcc/x86_64-w64-mingw32/8.1.0\libstdc++.a(string-inst.o)
                0x0000000068f62b60                std::__cxx11::basic_string<char, std::char_traits<char>, std::allocator<char> >::basic_string(std::__cxx11::basic_string<char, std::char_traits<char>, std::allocator<char> >&&)
 .text$_ZNSt7__cxx1112basic_stringIcSt11char_traitsIcESaIcEEC2EOS4_RKS3_
                0x0000000068f62bb0       0x60 C:/mingw64/bin/../lib/gcc/x86_64-w64-mingw32/8.1.0\libstdc++.a(string-inst.o)
                0x0000000068f62bb0                std::__cxx11::basic_string<char, std::char_traits<char>, std::allocator<char> >::basic_string(std::__cxx11::basic_string<char, std::char_traits<char>, std::allocator<char> >&&, std::allocator<char> const&)
 .text$_ZNSt7__cxx1112basic_stringIcSt11char_traitsIcESaIcEEC2EPKcRKS3_
                0x0000000068f62c10       0x40 C:/mingw64/bin/../lib/gcc/x86_64-w64-mingw32/8.1.0\libstdc++.a(string-inst.o)
                0x0000000068f62c10                std::__cxx11::basic_string<char, std::char_traits<char>, std::allocator<char> >::basic_string(char const*, std::allocator<char> const&)
 .text$_ZNSt7__cxx1112basic_stringIcSt11char_traitsIcESaIcEEC2EPKcyRKS3_
                0x0000000068f62c50       0x20 C:/mingw64/bin/../lib/gcc/x86_64-w64-mingw32/8.1.0\libstdc++.a(string-inst.o)
                0x0000000068f62c50                std::__cxx11::basic_string<char, std::char_traits<char>, std::allocator<char> >::basic_string(char const*, unsigned long long, std::allocator<char> const&)
 .text$_ZNSt7__cxx1112basic_stringIcSt11char_traitsIcESaIcEEC2ERKS3_
                0x0000000068f62c70       0x20 C:/mingw64/bin/../lib/gcc/x86_64-w64-mingw32/8.1.0\libstdc++.a(string-inst.o)
                0x0000000068f62c70                std::__cxx11::basic_string<char, std::char_traits<char>, std::allocator<char> >::basic_string(std::allocator<char> const&)
 .text$_ZNSt7__cxx1112basic_stringIcSt11char_traitsIcESaIcEEC2ERKS4_
                0x0000000068f62c90       0x20 C:/mingw64/bin/../lib/gcc/x86_64-w64-mingw32/8.1.0\libstdc++.a(string-inst.o)
                0x0000000068f62c90                std::__cxx11::basic_string<char, std::char_traits<char>, std::allocator<char> >::basic_string(std::__cxx11::basic_string<char, std::char_traits<char>, std::allocator<char> > const&)
 .text$_ZNSt7__cxx1112basic_stringIcSt11char_traitsIcESaIcEEC2ERKS4_RKS3_
                0x0000000068f62cb0       0x20 C:/mingw64/bin/../lib/gcc/x86_64-w64-mingw32/8.1.0\libstdc++.a(string-inst.o)
                0x0000000068f62cb0                std::__cxx11::basic_string<char, std::char_traits<char>, std::allocator<char> >::basic_string(std::__cxx11::basic_string<char, std::char_traits<char>, std::allocator<char> > const&, std::allocator<char> const&)
 .text$_ZNSt7__cxx1112basic_stringIcSt11char_traitsIcESaIcEEC2ERKS4_yRKS3_
                0x0000000068f62cd0       0x50 C:/mingw64/bin/../lib/gcc/x86_64-w64-mingw32/8.1.0\libstdc++.a(string-inst.o)
                0x0000000068f62cd0                std::__cxx11::basic_string<char, std::char_traits<char>, std::allocator<char> >::basic_string(std::__cxx11::basic_string<char, std::char_traits<char>, std::allocator<char> > const&, unsigned long long, std::allocator<char> const&)
 .text$_ZNSt7__cxx1112basic_stringIcSt11char_traitsIcESaIcEEC2ERKS4_yy
                0x0000000068f62d20       0x50 C:/mingw64/bin/../lib/gcc/x86_64-w64-mingw32/8.1.0\libstdc++.a(string-inst.o)
                0x0000000068f62d20                std::__cxx11::basic_string<char, std::char_traits<char>, std::allocator<char> >::basic_string(std::__cxx11::basic_string<char, std::char_traits<char>, std::allocator<char> > const&, unsigned long long, unsigned long long)
 .text$_ZNSt7__cxx1112basic_stringIcSt11char_traitsIcESaIcEEC2ERKS4_yyRKS3_
                0x0000000068f62d70       0x50 C:/mingw64/bin/../lib/gcc/x86_64-w64-mingw32/8.1.0\libstdc++.a(string-inst.o)
                0x0000000068f62d70                std::__cxx11::basic_string<char, std::char_traits<char>, std::allocator<char> >::basic_string(std::__cxx11::basic_string<char, std::char_traits<char>, std::allocator<char> > const&, unsigned long long, unsigned long long, std::allocator<char> const&)
 .text$_ZNSt7__cxx1112basic_stringIcSt11char_traitsIcESaIcEEC2ESt16initializer_listIcERKS3_
                0x0000000068f62dc0       0x20 C:/mingw64/bin/../lib/gcc/x86_64-w64-mingw32/8.1.0\libstdc++.a(string-inst.o)
                0x0000000068f62dc0                std::__cxx11::basic_string<char, std::char_traits<char>, std::allocator<char> >::basic_string(std::initializer_list<char>, std::allocator<char> const&)
 .text$_ZNSt7__cxx1112basic_stringIcSt11char_traitsIcESaIcEEC2Ev
                0x0000000068f62de0       0x20 C:/mingw64/bin/../lib/gcc/x86_64-w64-mingw32/8.1.0\libstdc++.a(string-inst.o)
                0x0000000068f62de0                std::__cxx11::basic_string<char, std::char_traits<char>, std::allocator<char> >::basic_string()
 .text$_ZNSt7__cxx1112basic_stringIcSt11char_traitsIcESaIcEEC2EycRKS3_
                0x0000000068f62e00       0x10 C:/mingw64/bin/../lib/gcc/x86_64-w64-mingw32/8.1.0\libstdc++.a(string-inst.o)
                0x0000000068f62e00                std::__cxx11::basic_string<char, std::char_traits<char>, std::allocator<char> >::basic_string(unsigned long long, char, std::allocator<char> const&)
 .text$_ZNSt7__cxx1112basic_stringIcSt11char_traitsIcESaIcEEC2IN9__gnu_cxx17__normal_iteratorIPcS4_EEvEET_SA_RKS3_
                0x0000000068f62e10       0x10 C:/mingw64/bin/../lib/gcc/x86_64-w64-mingw32/8.1.0\libstdc++.a(string-inst.o)
                0x0000000068f62e10                std::__cxx11::basic_string<char, std::char_traits<char>, std::allocator<char> >::basic_string<__gnu_cxx::__normal_iterator<char*, std::__cxx11::basic_string<char, std::char_traits<char>, std::allocator<char> > >, void>(__gnu_cxx::__normal_iterator<char*, std::__cxx11::basic_string<char, std::char_traits<char>, std::allocator<char> > >, __gnu_cxx::__normal_iterator<char*, std::__cxx11::basic_string<char, std::char_traits<char>, std::allocator<char> > >, std::allocator<char> const&)
 .text$_ZNSt7__cxx1112basic_stringIcSt11char_traitsIcESaIcEEC2IPKcvEET_S8_RKS3_
                0x0000000068f62e20       0x10 C:/mingw64/bin/../lib/gcc/x86_64-w64-mingw32/8.1.0\libstdc++.a(string-inst.o)
                0x0000000068f62e20                std::__cxx11::basic_string<char, std::char_traits<char>, std::allocator<char> >::basic_string<char const*, void>(char const*, char const*, std::allocator<char> const&)
 .text$_ZNSt7__cxx1112basic_stringIcSt11char_traitsIcESaIcEEC2IPcvEET_S7_RKS3_
                0x0000000068f62e30       0x10 C:/mingw64/bin/../lib/gcc/x86_64-w64-mingw32/8.1.0\libstdc++.a(string-inst.o)
                0x0000000068f62e30                std::__cxx11::basic_string<char, std::char_traits<char>, std::allocator<char> >::basic_string<char*, void>(char*, char*, std::allocator<char> const&)
 .text$_ZNSt7__cxx1112basic_stringIcSt11char_traitsIcESaIcEED1Ev
                0x0000000068f62e40       0x20 C:/mingw64/bin/../lib/gcc/x86_64-w64-mingw32/8.1.0\libstdc++.a(string-inst.o)
                0x0000000068f62e40                std::__cxx11::basic_string<char, std::char_traits<char>, std::allocator<char> >::~basic_string()
 .text$_ZNSt7__cxx1112basic_stringIcSt11char_traitsIcESaIcEED2Ev
                0x0000000068f62e60       0x20 C:/mingw64/bin/../lib/gcc/x86_64-w64-mingw32/8.1.0\libstdc++.a(string-inst.o)
                0x0000000068f62e60                std::__cxx11::basic_string<char, std::char_traits<char>, std::allocator<char> >::~basic_string()
 .text$_ZNSt7__cxx1112basic_stringIcSt11char_traitsIcESaIcEEaSEOS4_
                0x0000000068f62e80       0xa0 C:/mingw64/bin/../lib/gcc/x86_64-w64-mingw32/8.1.0\libstdc++.a(string-inst.o)
                0x0000000068f62e80                std::__cxx11::basic_string<char, std::char_traits<char>, std::allocator<char> >::operator=(std::__cxx11::basic_string<char, std::char_traits<char>, std::allocator<char> >&&)
 .text$_ZNSt7__cxx1112basic_stringIcSt11char_traitsIcESaIcEEaSEPKc
                0x0000000068f62f20       0x40 C:/mingw64/bin/../lib/gcc/x86_64-w64-mingw32/8.1.0\libstdc++.a(string-inst.o)
                0x0000000068f62f20                std::__cxx11::basic_string<char, std::char_traits<char>, std::allocator<char> >::operator=(char const*)
 .text$_ZNSt7__cxx1112basic_stringIcSt11char_traitsIcESaIcEEaSERKS4_
                0x0000000068f62f60       0x20 C:/mingw64/bin/../lib/gcc/x86_64-w64-mingw32/8.1.0\libstdc++.a(string-inst.o)
                0x0000000068f62f60                std::__cxx11::basic_string<char, std::char_traits<char>, std::allocator<char> >::operator=(std::__cxx11::basic_string<char, std::char_traits<char>, std::allocator<char> > const&)
 .text$_ZNSt7__cxx1112basic_stringIcSt11char_traitsIcESaIcEEaSESt16initializer_listIcE
                0x0000000068f62f80       0x30 C:/mingw64/bin/../lib/gcc/x86_64-w64-mingw32/8.1.0\libstdc++.a(string-inst.o)
                0x0000000068f62f80                std::__cxx11::basic_string<char, std::char_traits<char>, std::allocator<char> >::operator=(std::initializer_list<char>)
 .text$_ZNSt7__cxx1112basic_stringIcSt11char_traitsIcESaIcEEaSEc
                0x0000000068f62fb0       0x30 C:/mingw64/bin/../lib/gcc/x86_64-w64-mingw32/8.1.0\libstdc++.a(string-inst.o)
                0x0000000068f62fb0                std::__cxx11::basic_string<char, std::char_traits<char>, std::allocator<char> >::operator=(char)
 .text$_ZNSt7__cxx1112basic_stringIcSt11char_traitsIcESaIcEEixEy
                0x0000000068f62fe0       0x10 C:/mingw64/bin/../lib/gcc/x86_64-w64-mingw32/8.1.0\libstdc++.a(string-inst.o)
                0x0000000068f62fe0                std::__cxx11::basic_string<char, std::char_traits<char>, std::allocator<char> >::operator[](unsigned long long)
 .text$_ZNSt7__cxx1112basic_stringIcSt11char_traitsIcESaIcEEpLEPKc
                0x0000000068f62ff0       0x50 C:/mingw64/bin/../lib/gcc/x86_64-w64-mingw32/8.1.0\libstdc++.a(string-inst.o)
                0x0000000068f62ff0                std::__cxx11::basic_string<char, std::char_traits<char>, std::allocator<char> >::operator+=(char const*)
 .text$_ZNSt7__cxx1112basic_stringIcSt11char_traitsIcESaIcEEpLERKS4_
                0x0000000068f63040       0x10 C:/mingw64/bin/../lib/gcc/x86_64-w64-mingw32/8.1.0\libstdc++.a(string-inst.o)
                0x0000000068f63040                std::__cxx11::basic_string<char, std::char_traits<char>, std::allocator<char> >::operator+=(std::__cxx11::basic_string<char, std::char_traits<char>, std::allocator<char> > const&)
 .text$_ZNSt7__cxx1112basic_stringIcSt11char_traitsIcESaIcEEpLESt16initializer_listIcE
                0x0000000068f63050       0x40 C:/mingw64/bin/../lib/gcc/x86_64-w64-mingw32/8.1.0\libstdc++.a(string-inst.o)
                0x0000000068f63050                std::__cxx11::basic_string<char, std::char_traits<char>, std::allocator<char> >::operator+=(std::initializer_list<char>)
 .text$_ZNSt7__cxx1112basic_stringIcSt11char_traitsIcESaIcEEpLEc
                0x0000000068f63090       0x80 C:/mingw64/bin/../lib/gcc/x86_64-w64-mingw32/8.1.0\libstdc++.a(string-inst.o)
                0x0000000068f63090                std::__cxx11::basic_string<char, std::char_traits<char>, std::allocator<char> >::operator+=(char)
 .text$_ZNSt7__cxx1112basic_stringIwSt11char_traitsIwESaIwEE10_M_disposeEv
                0x0000000068f63110       0x20 Common__CtrlCmdUtil.cpp.obj
                0x0000000068f63110                std::__cxx11::basic_string<wchar_t, std::char_traits<wchar_t>, std::allocator<wchar_t> >::_M_dispose()
 .text$_ZNSt7__cxx1112basic_stringIwSt11char_traitsIwESaIwEE10_M_replaceEyyPKwy
                0x0000000068f63130      0x1a0 Common__CtrlCmdUtil.cpp.obj
                0x0000000068f63130                std::__cxx11::basic_string<wchar_t, std::char_traits<wchar_t>, std::allocator<wchar_t> >::_M_replace(unsigned long long, unsigned long long, wchar_t const*, unsigned long long)
 .text$_ZNSt7__cxx1112basic_stringIwSt11char_traitsIwESaIwEE12_M_constructIPKwEEvT_S8_St20forward_iterator_tag
                0x0000000068f632d0       0x80 Common__PathUtil.cpp.obj
                0x0000000068f632d0                void std::__cxx11::basic_string<wchar_t, std::char_traits<wchar_t>, std::allocator<wchar_t> >::_M_construct<wchar_t const*>(wchar_t const*, wchar_t const*, std::forward_iterator_tag)
 .text$_ZNSt7__cxx1112basic_stringIwSt11char_traitsIwESaIwEE12_M_constructIPwEEvT_S7_St20forward_iterator_tag
                0x0000000068f63350       0x80 Common__PathUtil.cpp.obj
                0x0000000068f63350                void std::__cxx11::basic_string<wchar_t, std::char_traits<wchar_t>, std::allocator<wchar_t> >::_M_construct<wchar_t*>(wchar_t*, wchar_t*, std::forward_iterator_tag)
 .text$_ZNSt7__cxx1112basic_stringIwSt11char_traitsIwESaIwEE13_M_set_lengthEy
                0x0000000068f633d0       0x10 Common__PathUtil.cpp.obj
                0x0000000068f633d0                std::__cxx11::basic_string<wchar_t, std::char_traits<wchar_t>, std::allocator<wchar_t> >::_M_set_length(unsigned long long)
 .text$_ZNSt7__cxx1112basic_stringIwSt11char_traitsIwESaIwEE5eraseEyy
                0x0000000068f633e0       0x80 Common__PathUtil.cpp.obj
                0x0000000068f633e0                std::__cxx11::basic_string<wchar_t, std::char_traits<wchar_t>, std::allocator<wchar_t> >::erase(unsigned long long, unsigned long long)
 .text$_ZNSt7__cxx1112basic_stringIwSt11char_traitsIwESaIwEE6appendEPKw
                0x0000000068f63460       0x50 Common__PathUtil.cpp.obj
                0x0000000068f63460                std::__cxx11::basic_string<wchar_t, std::char_traits<wchar_t>, std::allocator<wchar_t> >::append(wchar_t const*)
 .text$_ZNSt7__cxx1112basic_stringIwSt11char_traitsIwESaIwEE6assignEPKw
                0x0000000068f634b0       0x40 Common__SendCtrlCmd.cpp.obj
                0x0000000068f634b0                std::__cxx11::basic_string<wchar_t, std::char_traits<wchar_t>, std::allocator<wchar_t> >::assign(wchar_t const*)
 .text$_ZNSt7__cxx1112basic_stringIwSt11char_traitsIwESaIwEE7_S_copyEPwPKwy
                0x0000000068f634f0       0x30 Common__CtrlCmdUtil.cpp.obj
                0x0000000068f634f0                std::__cxx11::basic_string<wchar_t, std::char_traits<wchar_t>, std::allocator<wchar_t> >::_S_copy(wchar_t*, wchar_t const*, unsigned long long)
 .text$_ZNSt7__cxx1112basic_stringIwSt11char_traitsIwESaIwEE7_S_moveEPwPKwy
                0x0000000068f63520       0x20 Common__CtrlCmdUtil.cpp.obj
                0x0000000068f63520                std::__cxx11::basic_string<wchar_t, std::char_traits<wchar_t>, std::allocator<wchar_t> >::_S_move(wchar_t*, wchar_t const*, unsigned long long)
 .text$_ZNSt7__cxx1112basic_stringIwSt11char_traitsIwESaIwEE7replaceEyyPKw
                0x0000000068f63540       0x70 Common__PipeServer.cpp.obj
                0x0000000068f63540                std::__cxx11::basic_string<wchar_t, std::char_traits<wchar_t>, std::allocator<wchar_t> >::replace(unsigned long long, unsigned long long, wchar_t const*)
 .text$_ZNSt7__cxx1112basic_stringIwSt11char_traitsIwESaIwEE7replaceEyyPKwy
                0x0000000068f635b0       0x40 Common__StringUtil.cpp.obj
                0x0000000068f635b0                std::__cxx11::basic_string<wchar_t, std::char_traits<wchar_t>, std::allocator<wchar_t> >::replace(unsigned long long, unsigned long long, wchar_t const*, unsigned long long)
 .text$_ZNSt7__cxx1112basic_stringIwSt11char_traitsIwESaIwEE9_M_appendEPKwy
                0x0000000068f635f0       0x70 Common__PathUtil.cpp.obj
                0x0000000068f635f0                std::__cxx11::basic_string<wchar_t, std::char_traits<wchar_t>, std::allocator<wchar_t> >::_M_append(wchar_t const*, unsigned long long)
 .text$_ZNSt7__cxx1112basic_stringIwSt11char_traitsIwESaIwEE9_M_assignERKS4_
                0x0000000068f63660       0x80 Common__StringUtil.cpp.obj
                0x0000000068f63660                std::__cxx11::basic_string<wchar_t, std::char_traits<wchar_t>, std::allocator<wchar_t> >::_M_assign(std::__cxx11::basic_string<wchar_t, std::char_traits<wchar_t>, std::allocator<wchar_t> > const&)
 .text$_ZNSt7__cxx1112basic_stringIwSt11char_traitsIwESaIwEE9_M_mutateEyyPKwy
                0x0000000068f636e0       0xd0 Common__CtrlCmdUtil.cpp.obj
                0x0000000068f636e0                std::__cxx11::basic_string<wchar_t, std::char_traits<wchar_t>, std::allocator<wchar_t> >::_M_mutate(unsigned long long, unsigned long long, wchar_t const*, unsigned long long)
 .text$_ZNSt7__cxx1112basic_stringIwSt11char_traitsIwESaIwEE9push_backEw
                0x0000000068f637b0       0x60 Common__PathUtil.cpp.obj
                0x0000000068f637b0                std::__cxx11::basic_string<wchar_t, std::char_traits<wchar_t>, std::allocator<wchar_t> >::push_back(wchar_t)
 .text$_ZNSt7__cxx1112basic_stringIwSt11char_traitsIwESaIwEEC4EOS4_
                0x0000000068f63810       0x50 Common__CtrlCmdUtil.cpp.obj
 .text$_ZNSt7__cxx1112basic_stringIwSt11char_traitsIwESaIwEEC4ERKS4_
                0x0000000068f63860       0x90 Common__CtrlCmdUtil.cpp.obj
 .text$_ZNSt7__cxx1112basic_stringIwSt11char_traitsIwESaIwEEC4ERKS4_
                0x0000000068f638f0       0x20 Common__PathUtil.cpp.obj
 .text$_ZNSt7__cxx1112basic_stringIwSt11char_traitsIwESaIwEEC4ERKS4_yy
                0x0000000068f63910       0x70 Common__PathUtil.cpp.obj
 .text$_ZNSt7__cxx1112basic_stringIwSt11char_traitsIwESaIwEEC4ERKS4_yy
                0x0000000068f63980       0xc0 Common__StringUtil.cpp.obj
 .text$_ZNSt7__cxx1112basic_stringIwSt11char_traitsIwESaIwEEaSEOS4_
                0x0000000068f63a40       0x80 Common__StringUtil.cpp.obj
                0x0000000068f63a40                std::__cxx11::basic_string<wchar_t, std::char_traits<wchar_t>, std::allocator<wchar_t> >::operator=(std::__cxx11::basic_string<wchar_t, std::char_traits<wchar_t>, std::allocator<wchar_t> >&&)
 .text$_ZNSt7__cxx1112basic_stringIwSt11char_traitsIwESaIwEEaSEPKw
                0x0000000068f63ac0       0x40 Common__CtrlCmdUtil.cpp.obj
                0x0000000068f63ac0                std::__cxx11::basic_string<wchar_t, std::char_traits<wchar_t>, std::allocator<wchar_t> >::operator=(wchar_t const*)
 .text$_ZNSt8bad_castD0Ev
                0x0000000068f63b00       0x30 C:/mingw64/bin/../lib/gcc/x86_64-w64-mingw32/8.1.0\libstdc++.a(bad_cast.o)
                0x0000000068f63b00                std::bad_cast::~bad_cast()
 .text$_ZNSt8bad_castD2Ev
                0x0000000068f63b30       0x10 C:/mingw64/bin/../lib/gcc/x86_64-w64-mingw32/8.1.0\libstdc++.a(bad_cast.o)
                0x0000000068f63b30                std::bad_cast::~bad_cast()
                0x0000000068f63b30                std::bad_cast::~bad_cast()
 .text$_ZNSt8functionIFvR10CCmdStreamS1_EEaSERKS3_
                0x0000000068f63b40       0xb0 Common__PipeServer.cpp.obj
                0x0000000068f63b40                std::function<void (CCmdStream&, CCmdStream&)>::operator=(std::function<void (CCmdStream&, CCmdStream&)> const&)
 .text$_ZNSt9bad_allocD0Ev
                0x0000000068f63bf0       0x30 C:/mingw64/bin/../lib/gcc/x86_64-w64-mingw32/8.1.0\libstdc++.a(bad_alloc.o)
                0x0000000068f63bf0                std::bad_alloc::~bad_alloc()
 .text$_ZNSt9bad_allocD2Ev
                0x0000000068f63c20       0x10 C:/mingw64/bin/../lib/gcc/x86_64-w64-mingw32/8.1.0\libstdc++.a(bad_alloc.o)
                0x0000000068f63c20                std::bad_alloc::~bad_alloc()
                0x0000000068f63c20                std::bad_alloc::~bad_alloc()
 .text$_ZNSt9exceptionD0Ev
                0x0000000068f63c30       0x10 C:/mingw64/bin/../lib/gcc/x86_64-w64-mingw32/8.1.0\libstdc++.a(eh_exception.o)
                0x0000000068f63c30                std::exception::~exception()
 .text$_ZNSt9exceptionD2Ev
                0x0000000068f63c40       0x10 C:/mingw64/bin/../lib/gcc/x86_64-w64-mingw32/8.1.0\libstdc++.a(eh_exception.o)
                0x0000000068f63c40                std::exception::~exception()
                0x0000000068f63c40                std::exception::~exception()
 .text$_ZNSt9type_infoD0Ev
                0x0000000068f63c50       0x10 C:/mingw64/bin/../lib/gcc/x86_64-w64-mingw32/8.1.0\libstdc++.a(tinfo.o)
                0x0000000068f63c50                std::type_info::~type_info()
 .text$_ZNSt9type_infoD2Ev
                0x0000000068f63c60       0x10 C:/mingw64/bin/../lib/gcc/x86_64-w64-mingw32/8.1.0\libstdc++.a(tinfo.o)
                0x0000000068f63c60                std::type_info::~type_info()
                0x0000000068f63c60                std::type_info::~type_info()
 .text$_ZSt10unexpectedv
                0x0000000068f63c70       0x20 C:/mingw64/bin/../lib/gcc/x86_64-w64-mingw32/8.1.0\libstdc++.a(eh_terminate.o)
                0x0000000068f63c70                std::unexpected()
 .text$_ZSt13get_terminatev
                0x0000000068f63c90       0x10 C:/mingw64/bin/../lib/gcc/x86_64-w64-mingw32/8.1.0\libstdc++.a(eh_terminate.o)
                0x0000000068f63c90                std::get_terminate()
 .text$_ZSt13set_terminatePFvvE
                0x0000000068f63ca0       0x10 C:/mingw64/bin/../lib/gcc/x86_64-w64-mingw32/8.1.0\libstdc++.a(eh_terminate.o)
                0x0000000068f63ca0                std::set_terminate(void (*)())
 .text$_ZSt14get_unexpectedv
                0x0000000068f63cb0       0x10 C:/mingw64/bin/../lib/gcc/x86_64-w64-mingw32/8.1.0\libstdc++.a(eh_terminate.o)
                0x0000000068f63cb0                std::get_unexpected()
 .text$_ZSt14set_unexpectedPFvvE
                0x0000000068f63cc0       0x10 C:/mingw64/bin/../lib/gcc/x86_64-w64-mingw32/8.1.0\libstdc++.a(eh_terminate.o)
                0x0000000068f63cc0                std::set_unexpected(void (*)())
 .text$_ZSt15get_new_handlerv
                0x0000000068f63cd0       0x10 C:/mingw64/bin/../lib/gcc/x86_64-w64-mingw32/8.1.0\libstdc++.a(new_handler.o)
                0x0000000068f63cd0                std::get_new_handler()
 .text$_ZSt15set_new_handlerPFvvE
                0x0000000068f63ce0       0x10 C:/mingw64/bin/../lib/gcc/x86_64-w64-mingw32/8.1.0\libstdc++.a(new_handler.o)
                0x0000000068f63ce0                std::set_new_handler(void (*)())
 .text$_ZSt16__throw_bad_castv
                0x0000000068f63cf0       0x40 C:/mingw64/bin/../lib/gcc/x86_64-w64-mingw32/8.1.0\libstdc++.a(functexcept.o)
                0x0000000068f63cf0                std::__throw_bad_cast()
 .text$_ZSt17__throw_bad_allocv
                0x0000000068f63d30       0x40 C:/mingw64/bin/../lib/gcc/x86_64-w64-mingw32/8.1.0\libstdc++.a(functexcept.o)
                0x0000000068f63d30                std::__throw_bad_alloc()
 .text$_ZSt18__throw_bad_typeidv
                0x0000000068f63d70       0x40 C:/mingw64/bin/../lib/gcc/x86_64-w64-mingw32/8.1.0\libstdc++.a(functexcept.o)
                0x0000000068f63d70                std::__throw_bad_typeid()
 .text$_ZSt18uncaught_exceptionv
                0x0000000068f63db0       0x20 C:/mingw64/bin/../lib/gcc/x86_64-w64-mingw32/8.1.0\libstdc++.a(eh_catch.o)
                0x0000000068f63db0                std::uncaught_exception()
 .text$_ZSt19__throw_logic_errorPKc
                0x0000000068f63dd0       0x50 C:/mingw64/bin/../lib/gcc/x86_64-w64-mingw32/8.1.0\libstdc++.a(functexcept.o)
                0x0000000068f63dd0                std::__throw_logic_error(char const*)
 .text$_ZSt19__throw_range_errorPKc
                0x0000000068f63e20       0x50 C:/mingw64/bin/../lib/gcc/x86_64-w64-mingw32/8.1.0\libstdc++.a(functexcept.o)
                0x0000000068f63e20                std::__throw_range_error(char const*)
 .text$_ZSt19uncaught_exceptionsv
                0x0000000068f63e70       0x20 C:/mingw64/bin/../lib/gcc/x86_64-w64-mingw32/8.1.0\libstdc++.a(eh_catch.o)
                0x0000000068f63e70                std::uncaught_exceptions()
 .text$_ZSt20__throw_domain_errorPKc
                0x0000000068f63e90       0x50 C:/mingw64/bin/../lib/gcc/x86_64-w64-mingw32/8.1.0\libstdc++.a(functexcept.o)
                0x0000000068f63e90                std::__throw_domain_error(char const*)
 .text$_ZSt20__throw_length_errorPKc
                0x0000000068f63ee0       0x50 C:/mingw64/bin/../lib/gcc/x86_64-w64-mingw32/8.1.0\libstdc++.a(functexcept.o)
                0x0000000068f63ee0                std::__throw_length_error(char const*)
 .text$_ZSt20__throw_out_of_rangePKc
                0x0000000068f63f30       0x50 C:/mingw64/bin/../lib/gcc/x86_64-w64-mingw32/8.1.0\libstdc++.a(functexcept.o)
                0x0000000068f63f30                std::__throw_out_of_range(char const*)
 .text$_ZSt21__throw_bad_exceptionv
                0x0000000068f63f80       0x40 C:/mingw64/bin/../lib/gcc/x86_64-w64-mingw32/8.1.0\libstdc++.a(functexcept.o)
                0x0000000068f63f80                std::__throw_bad_exception()
 .text$_ZSt21__throw_runtime_errorPKc
                0x0000000068f63fc0       0x50 C:/mingw64/bin/../lib/gcc/x86_64-w64-mingw32/8.1.0\libstdc++.a(functexcept.o)
                0x0000000068f63fc0                std::__throw_runtime_error(char const*)
 .text$_ZSt22__throw_overflow_errorPKc
                0x0000000068f64010       0x50 C:/mingw64/bin/../lib/gcc/x86_64-w64-mingw32/8.1.0\libstdc++.a(functexcept.o)
                0x0000000068f64010                std::__throw_overflow_error(char const*)
 .text$_ZSt23__throw_underflow_errorPKc
                0x0000000068f64060       0x50 C:/mingw64/bin/../lib/gcc/x86_64-w64-mingw32/8.1.0\libstdc++.a(functexcept.o)
                0x0000000068f64060                std::__throw_underflow_error(char const*)
 .text$_ZSt24__throw_invalid_argumentPKc
                0x0000000068f640b0       0x50 C:/mingw64/bin/../lib/gcc/x86_64-w64-mingw32/8.1.0\libstdc++.a(functexcept.o)
                0x0000000068f640b0                std::__throw_invalid_argument(char const*)
 .text$_ZSt24__throw_out_of_range_fmtPKcz
                0x0000000068f64100       0xa0 C:/mingw64/bin/../lib/gcc/x86_64-w64-mingw32/8.1.0\libstdc++.a(functexcept.o)
                0x0000000068f64100                std::__throw_out_of_range_fmt(char const*, ...)
 .text$_ZSt25__throw_bad_function_callv
                0x0000000068f641a0       0x30 C:/mingw64/bin/../lib/gcc/x86_64-w64-mingw32/8.1.0\libstdc++.a(functional.o)
                0x0000000068f641a0                std::__throw_bad_function_call()
 .text$_ZSt4swapI10CCmdStreamENSt9enable_ifIXsrSt6__and_IJSt6__not_ISt15__is_tuple_likeIT_EESt21is_move_constructibleIS5_ESt18is_move_assignableIS5_EEE5valueEvE4typeERS5_SF_
                0x0000000068f641d0       0x70 EpgTimerPlugIn.cpp.obj
                0x0000000068f641d0                std::enable_if<std::__and_<std::__not_<std::__is_tuple_like<CCmdStream> >, std::is_move_constructible<CCmdStream>, std::is_move_assignable<CCmdStream> >::value, void>::type std::swap<CCmdStream>(CCmdStream&, CCmdStream&)
 .text$_ZSt9terminatev
                0x0000000068f64240       0x20 C:/mingw64/bin/../lib/gcc/x86_64-w64-mingw32/8.1.0\libstdc++.a(eh_terminate.o)
                0x0000000068f64240                std::terminate()
 .text$_ZStplIcSt11char_traitsIcESaIcEENSt7__cxx1112basic_stringIT_T0_T1_EEPKS5_RKS8_
                0x0000000068f64260       0xb0 C:/mingw64/bin/../lib/gcc/x86_64-w64-mingw32/8.1.0\libstdc++.a(string-inst.o)
                0x0000000068f64260                std::__cxx11::basic_string<char, std::char_traits<char>, std::allocator<char> > std::operator+<char, std::char_traits<char>, std::allocator<char> >(char const*, std::__cxx11::basic_string<char, std::char_traits<char>, std::allocator<char> > const&)
 .text$_ZStplIcSt11char_traitsIcESaIcEENSt7__cxx1112basic_stringIT_T0_T1_EERKS8_SA_
                0x0000000068f64310       0x60 C:/mingw64/bin/../lib/gcc/x86_64-w64-mingw32/8.1.0\libstdc++.a(string-inst.o)
                0x0000000068f64310                std::__cxx11::basic_string<char, std::char_traits<char>, std::allocator<char> > std::operator+<char, std::char_traits<char>, std::allocator<char> >(std::__cxx11::basic_string<char, std::char_traits<char>, std::allocator<char> > const&, std::__cxx11::basic_string<char, std::char_traits<char>, std::allocator<char> > const&)
 .text$_ZStplIcSt11char_traitsIcESaIcEENSt7__cxx1112basic_stringIT_T0_T1_EES5_RKS8_
                0x0000000068f64370       0x90 C:/mingw64/bin/../lib/gcc/x86_64-w64-mingw32/8.1.0\libstdc++.a(string-inst.o)
                0x0000000068f64370                std::__cxx11::basic_string<char, std::char_traits<char>, std::allocator<char> > std::operator+<char, std::char_traits<char>, std::allocator<char> >(char, std::__cxx11::basic_string<char, std::char_traits<char>, std::allocator<char> > const&)
 .text$_ZStplIcSt11char_traitsIcESaIcEESbIT_T0_T1_EPKS3_RKS6_
                0x0000000068f64400       0x90 C:/mingw64/bin/../lib/gcc/x86_64-w64-mingw32/8.1.0\libstdc++.a(cow-string-inst.o)
                0x0000000068f64400                std::basic_string<char, std::char_traits<char>, std::allocator<char> > std::operator+<char, std::char_traits<char>, std::allocator<char> >(char const*, std::basic_string<char, std::char_traits<char>, std::allocator<char> > const&)
 .text$_ZStplIcSt11char_traitsIcESaIcEESbIT_T0_T1_ERKS6_S8_
                0x0000000068f64490       0x90 C:/mingw64/bin/../lib/gcc/x86_64-w64-mingw32/8.1.0\libstdc++.a(cow-string-inst.o)
                0x0000000068f64490                std::basic_string<char, std::char_traits<char>, std::allocator<char> > std::operator+<char, std::char_traits<char>, std::allocator<char> >(std::basic_string<char, std::char_traits<char>, std::allocator<char> > const&, std::basic_string<char, std::char_traits<char>, std::allocator<char> > const&)
 .text$_ZStplIcSt11char_traitsIcESaIcEESbIT_T0_T1_ES3_RKS6_
                0x0000000068f64520       0x80 C:/mingw64/bin/../lib/gcc/x86_64-w64-mingw32/8.1.0\libstdc++.a(cow-string-inst.o)
                0x0000000068f64520                std::basic_string<char, std::char_traits<char>, std::allocator<char> > std::operator+<char, std::char_traits<char>, std::allocator<char> >(char, std::basic_string<char, std::char_traits<char>, std::allocator<char> > const&)
 .text$_ZStplIwSt11char_traitsIwESaIwEENSt7__cxx1112basic_stringIT_T0_T1_EEPKS5_RKS8_
                0x0000000068f645a0       0xe0 Common__PipeServer.cpp.obj
                0x0000000068f645a0                std::__cxx11::basic_string<wchar_t, std::char_traits<wchar_t>, std::allocator<wchar_t> > std::operator+<wchar_t, std::char_traits<wchar_t>, std::allocator<wchar_t> >(wchar_t const*, std::__cxx11::basic_string<wchar_t, std::char_traits<wchar_t>, std::allocator<wchar_t> > const&)
 .text$_ZZN7thread_C4IP11CPipeServerEEPFvT_ES3_EN2Th4funcEPv
                0x0000000068f64680       0x40 Common__PipeServer.cpp.obj
                0x0000000068f64680                thread_::thread_<CPipeServer*>(void (*)(CPipeServer*), CPipeServer*)::Th::func(void*)
 .text$_ZdlPv   0x0000000068f646c0       0x10 C:/mingw64/bin/../lib/gcc/x86_64-w64-mingw32/8.1.0\libstdc++.a(del_op.o)
                0x0000000068f646c0                operator delete(void*)
 .text$_ZdlPvy  0x0000000068f646d0       0x10 C:/mingw64/bin/../lib/gcc/x86_64-w64-mingw32/8.1.0\libstdc++.a(del_ops.o)
                0x0000000068f646d0                operator delete(void*, unsigned long long)
 .text$_Znwy    0x0000000068f646e0       0x70 C:/mingw64/bin/../lib/gcc/x86_64-w64-mingw32/8.1.0\libstdc++.a(new_op.o)
                0x0000000068f646e0                operator new(unsigned long long)
 .text$__cxa_allocate_dependent_exception
                0x0000000068f64750       0x50 C:/mingw64/bin/../lib/gcc/x86_64-w64-mingw32/8.1.0\libstdc++.a(eh_alloc.o)
                0x0000000068f64750                __cxa_allocate_dependent_exception
 .text$__cxa_allocate_exception
                0x0000000068f647a0       0x60 C:/mingw64/bin/../lib/gcc/x86_64-w64-mingw32/8.1.0\libstdc++.a(eh_alloc.o)
                0x0000000068f647a0                __cxa_allocate_exception
 .text$__cxa_begin_catch
                0x0000000068f64800       0x80 C:/mingw64/bin/../lib/gcc/x86_64-w64-mingw32/8.1.0\libstdc++.a(eh_catch.o)
                0x0000000068f64800                __cxa_begin_catch
 .text$__cxa_call_terminate
                0x0000000068f64880       0x40 C:/mingw64/bin/../lib/gcc/x86_64-w64-mingw32/8.1.0\libstdc++.a(eh_call.o)
                0x0000000068f64880                __cxa_call_terminate
 .text$__cxa_call_unexpected
                0x0000000068f648c0       0xf0 C:/mingw64/bin/../lib/gcc/x86_64-w64-mingw32/8.1.0\libstdc++.a(eh_personality.o)
                0x0000000068f648c0                __cxa_call_unexpected
 .text$__cxa_current_exception_type
                0x0000000068f649b0       0x40 C:/mingw64/bin/../lib/gcc/x86_64-w64-mingw32/8.1.0\libstdc++.a(eh_type.o)
                0x0000000068f649b0                __cxa_current_exception_type
 .text$__cxa_deleted_virtual
                0x0000000068f649f0       0x30 C:/mingw64/bin/../lib/gcc/x86_64-w64-mingw32/8.1.0\libstdc++.a(pure.o)
                0x0000000068f649f0                __cxa_deleted_virtual
 .text$__cxa_end_catch
                0x0000000068f64a20       0x80 C:/mingw64/bin/../lib/gcc/x86_64-w64-mingw32/8.1.0\libstdc++.a(eh_catch.o)
                0x0000000068f64a20                __cxa_end_catch
 .text$__cxa_free_dependent_exception
                0x0000000068f64aa0       0x30 C:/mingw64/bin/../lib/gcc/x86_64-w64-mingw32/8.1.0\libstdc++.a(eh_alloc.o)
                0x0000000068f64aa0                __cxa_free_dependent_exception
 .text$__cxa_free_exception
                0x0000000068f64ad0       0x30 C:/mingw64/bin/../lib/gcc/x86_64-w64-mingw32/8.1.0\libstdc++.a(eh_alloc.o)
                0x0000000068f64ad0                __cxa_free_exception
 .text$__cxa_get_exception_ptr
                0x0000000068f64b00       0x10 C:/mingw64/bin/../lib/gcc/x86_64-w64-mingw32/8.1.0\libstdc++.a(eh_catch.o)
                0x0000000068f64b00                __cxa_get_exception_ptr
 .text$__cxa_get_globals
                0x0000000068f64b10       0x10 C:/mingw64/bin/../lib/gcc/x86_64-w64-mingw32/8.1.0\libstdc++.a(eh_globals.o)
                0x0000000068f64b10                __cxa_get_globals
 .text$__cxa_get_globals_fast
                0x0000000068f64b20       0x10 C:/mingw64/bin/../lib/gcc/x86_64-w64-mingw32/8.1.0\libstdc++.a(eh_globals.o)
                0x0000000068f64b20                __cxa_get_globals_fast
 .text$__cxa_init_primary_exception
                0x0000000068f64b30       0x60 C:/mingw64/bin/../lib/gcc/x86_64-w64-mingw32/8.1.0\libstdc++.a(eh_throw.o)
                0x0000000068f64b30                __cxa_init_primary_exception
 .text$__cxa_pure_virtual
                0x0000000068f64b90       0x30 C:/mingw64/bin/../lib/gcc/x86_64-w64-mingw32/8.1.0\libstdc++.a(pure.o)
                0x0000000068f64b90                __cxa_pure_virtual
 .text$__cxa_rethrow
                0x0000000068f64bc0       0x50 C:/mingw64/bin/../lib/gcc/x86_64-w64-mingw32/8.1.0\libstdc++.a(eh_throw.o)
                0x0000000068f64bc0                __cxa_rethrow
 .text$__cxa_throw
                0x0000000068f64c10       0x80 C:/mingw64/bin/../lib/gcc/x86_64-w64-mingw32/8.1.0\libstdc++.a(eh_throw.o)
                0x0000000068f64c10                __cxa_throw
 .text$__gxx_personality_seh0
                0x0000000068f64c90       0x20 C:/mingw64/bin/../lib/gcc/x86_64-w64-mingw32/8.1.0\libstdc++.a(eh_personality.o)
                0x0000000068f64c90                __gxx_personality_seh0
 .text$__tcf_0  0x0000000068f64cb0       0x20 C:/mingw64/bin/../lib/gcc/x86_64-w64-mingw32/8.1.0\libstdc++.a(eh_alloc.o)
 *(.text.*)
 .text.startup._GLOBAL__sub_I__ZN9__gnu_cxx9__freeresEv
                0x0000000068f64cd0       0x80 C:/mingw64/bin/../lib/gcc/x86_64-w64-mingw32/8.1.0\libstdc++.a(eh_alloc.o)
 .text.unlikely
                0x0000000068f64d50       0xb0 C:/mingw64/bin/../lib/gcc/x86_64-w64-mingw32/8.1.0\libstdc++.a(cp-demangle.o)
 .text.unlikely
                0x0000000068f64e00       0x70 C:/mingw64/bin/../lib/gcc/x86_64-w64-mingw32/8.1.0/../../../../x86_64-w64-mingw32/lib/../lib/libmingw32.a(lib64_libmingw32_a-pseudo-reloc.o)
 .text.startup  0x0000000068f64e70       0x10 C:/mingw64/bin/../lib/gcc/x86_64-w64-mingw32/8.1.0/crtend.o
 *(.gnu.linkonce.t.*)
 *(.glue_7t)
 *(.glue_7)
                0x0000000068f64e80                . = ALIGN (0x8)
                0x0000000068f64e80                ___CTOR_LIST__ = .
                0x0000000068f64e80                __CTOR_LIST__ = .
                0x0000000068f64e80        0x4 LONG 0xffffffffffffffff
                0x0000000068f64e84        0x4 LONG 0xffffffffffffffff
 *(.ctors)
 .ctors         0x0000000068f64e88        0x8 C:/mingw64/bin/../lib/gcc/x86_64-w64-mingw32/8.1.0\libstdc++.a(eh_alloc.o)
 *(.ctor)
 *(SORT_BY_NAME(.ctors.*))
 .ctors.65535   0x0000000068f64e90        0x8 C:/mingw64/bin/../lib/gcc/x86_64-w64-mingw32/8.1.0/crtend.o
                0x0000000068f64e98        0x4 LONG 0x0
                0x0000000068f64e9c        0x4 LONG 0x0
                0x0000000068f64ea0                ___DTOR_LIST__ = .
                0x0000000068f64ea0                __DTOR_LIST__ = .
                0x0000000068f64ea0        0x4 LONG 0xffffffffffffffff
                0x0000000068f64ea4        0x4 LONG 0xffffffffffffffff
 *(.dtors)
 *(.dtor)
 *(SORT_BY_NAME(.dtors.*))
                0x0000000068f64ea8        0x4 LONG 0x0
                0x0000000068f64eac        0x4 LONG 0x0
 *(.fini)
 *(.gcc_exc)
                [!provide]                        PROVIDE (etext = .)
 *(.gcc_except_table)

.data           0x0000000068f65000      0x200
                0x0000000068f65000                __data_start__ = .
 *(.data)
 .data          0x0000000068f65000        0x0 C:/mingw64/bin/../lib/gcc/x86_64-w64-mingw32/8.1.0/../../../../x86_64-w64-mingw32/lib/../lib/dllcrt2.o
 .data          0x0000000068f65000        0x0 C:/mingw64/bin/../lib/gcc/x86_64-w64-mingw32/8.1.0/crtbegin.o
 .data          0x0000000068f65000        0x0 Common__CtrlCmdUtil.cpp.obj
 .data          0x0000000068f65000        0x0 Common__PathUtil.cpp.obj
 .data          0x0000000068f65000        0x0 Common__PipeServer.cpp.obj
 .data          0x0000000068f65000        0x0 Common__SendCtrlCmd.cpp.obj
 .data          0x0000000068f65000        0x0 Common__StringUtil.cpp.obj
 .data          0x0000000068f65000        0x0 EpgTimerPlugIn.cpp.obj
 .data          0x0000000068f65000        0x0 stdafx.cpp.obj
 .data          0x0000000068f65000        0x0 StreamCtrlDlg.cpp.obj
 .data          0x0000000068f65000        0x0 C:/mingw64/bin/../lib/gcc/x86_64-w64-mingw32/8.1.0/../../../../x86_64-w64-mingw32/lib/../lib/libws2_32.a(dozfs00195.o)
 .data          0x0000000068f65000        0x0 C:/mingw64/bin/../lib/gcc/x86_64-w64-mingw32/8.1.0/../../../../x86_64-w64-mingw32/lib/../lib/libws2_32.a(dozfs00193.o)
 .data          0x0000000068f65000        0x0 C:/mingw64/bin/../lib/gcc/x86_64-w64-mingw32/8.1.0/../../../../x86_64-w64-mingw32/lib/../lib/libws2_32.a(dozfs00191.o)
 .data          0x0000000068f65000        0x0 C:/mingw64/bin/../lib/gcc/x86_64-w64-mingw32/8.1.0/../../../../x86_64-w64-mingw32/lib/../lib/libws2_32.a(dozfs00190.o)
 .data          0x0000000068f65000        0x0 C:/mingw64/bin/../lib/gcc/x86_64-w64-mingw32/8.1.0/../../../../x86_64-w64-mingw32/lib/../lib/libws2_32.a(dozfs00188.o)
 .data          0x0000000068f65000        0x0 C:/mingw64/bin/../lib/gcc/x86_64-w64-mingw32/8.1.0/../../../../x86_64-w64-mingw32/lib/../lib/libws2_32.a(dozfs00184.o)
 .data          0x0000000068f65000        0x0 C:/mingw64/bin/../lib/gcc/x86_64-w64-mingw32/8.1.0/../../../../x86_64-w64-mingw32/lib/../lib/libws2_32.a(dozfs00166.o)
 .data          0x0000000068f65000        0x0 C:/mingw64/bin/../lib/gcc/x86_64-w64-mingw32/8.1.0/../../../../x86_64-w64-mingw32/lib/../lib/libws2_32.a(dozfs00165.o)
 .data          0x0000000068f65000        0x0 C:/mingw64/bin/../lib/gcc/x86_64-w64-mingw32/8.1.0/../../../../x86_64-w64-mingw32/lib/../lib/libws2_32.a(dozfs00164.o)
 .data          0x0000000068f65000        0x0 C:/mingw64/bin/../lib/gcc/x86_64-w64-mingw32/8.1.0/../../../../x86_64-w64-mingw32/lib/../lib/libws2_32.a(dozfs00163.o)
 .data          0x0000000068f65000        0x0 C:/mingw64/bin/../lib/gcc/x86_64-w64-mingw32/8.1.0/../../../../x86_64-w64-mingw32/lib/../lib/libws2_32.a(dozfs00088.o)
 .data          0x0000000068f65000        0x0 C:/mingw64/bin/../lib/gcc/x86_64-w64-mingw32/8.1.0/../../../../x86_64-w64-mingw32/lib/../lib/libws2_32.a(dozfs00047.o)
 .data          0x0000000068f65000        0x0 C:/mingw64/bin/../lib/gcc/x86_64-w64-mingw32/8.1.0/../../../../x86_64-w64-mingw32/lib/../lib/libws2_32.a(dozfs00030.o)
 .data          0x0000000068f65000        0x0 C:/mingw64/bin/../lib/gcc/x86_64-w64-mingw32/8.1.0/../../../../x86_64-w64-mingw32/lib/../lib/libws2_32.a(dozfh.o)
 .data          0x0000000068f65000        0x0 C:/mingw64/bin/../lib/gcc/x86_64-w64-mingw32/8.1.0/../../../../x86_64-w64-mingw32/lib/../lib/libws2_32.a(dozft.o)
 .data          0x0000000068f65000        0x0 C:/mingw64/bin/../lib/gcc/x86_64-w64-mingw32/8.1.0\libstdc++.a(class_type_info.o)
 .data          0x0000000068f65000        0x0 C:/mingw64/bin/../lib/gcc/x86_64-w64-mingw32/8.1.0\libstdc++.a(del_op.o)
 .data          0x0000000068f65000        0x0 C:/mingw64/bin/../lib/gcc/x86_64-w64-mingw32/8.1.0\libstdc++.a(del_ops.o)
 .data          0x0000000068f65000        0x0 C:/mingw64/bin/../lib/gcc/x86_64-w64-mingw32/8.1.0\libstdc++.a(eh_alloc.o)
 .data          0x0000000068f65000        0x0 C:/mingw64/bin/../lib/gcc/x86_64-w64-mingw32/8.1.0\libstdc++.a(eh_catch.o)
 .data          0x0000000068f65000        0x0 C:/mingw64/bin/../lib/gcc/x86_64-w64-mingw32/8.1.0\libstdc++.a(eh_exception.o)
 .data          0x0000000068f65000        0x0 C:/mingw64/bin/../lib/gcc/x86_64-w64-mingw32/8.1.0\libstdc++.a(eh_globals.o)
 .data          0x0000000068f65000        0x0 C:/mingw64/bin/../lib/gcc/x86_64-w64-mingw32/8.1.0\libstdc++.a(eh_personality.o)
 .data          0x0000000068f65000        0x0 C:/mingw64/bin/../lib/gcc/x86_64-w64-mingw32/8.1.0\libstdc++.a(eh_terminate.o)
 .data          0x0000000068f65000        0x0 C:/mingw64/bin/../lib/gcc/x86_64-w64-mingw32/8.1.0\libstdc++.a(eh_term_handler.o)
 .data          0x0000000068f65000        0x0 C:/mingw64/bin/../lib/gcc/x86_64-w64-mingw32/8.1.0\libstdc++.a(eh_throw.o)
 .data          0x0000000068f65000        0x0 C:/mingw64/bin/../lib/gcc/x86_64-w64-mingw32/8.1.0\libstdc++.a(eh_unex_handler.o)
 .data          0x0000000068f65000        0x0 C:/mingw64/bin/../lib/gcc/x86_64-w64-mingw32/8.1.0\libstdc++.a(new_op.o)
 .data          0x0000000068f65000        0x0 C:/mingw64/bin/../lib/gcc/x86_64-w64-mingw32/8.1.0\libstdc++.a(pure.o)
 .data          0x0000000068f65000        0x0 C:/mingw64/bin/../lib/gcc/x86_64-w64-mingw32/8.1.0\libstdc++.a(si_class_type_info.o)
 .data          0x0000000068f65000        0x0 C:/mingw64/bin/../lib/gcc/x86_64-w64-mingw32/8.1.0\libstdc++.a(tinfo.o)
 .data          0x0000000068f65000        0x0 C:/mingw64/bin/../lib/gcc/x86_64-w64-mingw32/8.1.0\libstdc++.a(vterminate.o)
 .data          0x0000000068f65000        0x0 C:/mingw64/bin/../lib/gcc/x86_64-w64-mingw32/8.1.0\libstdc++.a(stdexcept.o)
 .data          0x0000000068f65000        0x0 C:/mingw64/bin/../lib/gcc/x86_64-w64-mingw32/8.1.0\libstdc++.a(cow-stdexcept.o)
 .data          0x0000000068f65000        0x0 C:/mingw64/bin/../lib/gcc/x86_64-w64-mingw32/8.1.0\libstdc++.a(cow-string-inst.o)
 .data          0x0000000068f65000        0x0 C:/mingw64/bin/../lib/gcc/x86_64-w64-mingw32/8.1.0\libstdc++.a(functexcept.o)
 .data          0x0000000068f65000        0x0 C:/mingw64/bin/../lib/gcc/x86_64-w64-mingw32/8.1.0\libstdc++.a(functional.o)
 .data          0x0000000068f65000        0x0 C:/mingw64/bin/../lib/gcc/x86_64-w64-mingw32/8.1.0\libstdc++.a(snprintf_lite.o)
 .data          0x0000000068f65000        0x0 C:/mingw64/bin/../lib/gcc/x86_64-w64-mingw32/8.1.0\libstdc++.a(sso_string.o)
 .data          0x0000000068f65000        0x0 C:/mingw64/bin/../lib/gcc/x86_64-w64-mingw32/8.1.0\libstdc++.a(string-inst.o)
 .data          0x0000000068f65000        0x0 C:/mingw64/bin/../lib/gcc/x86_64-w64-mingw32/8.1.0\libstdc++.a(bad_alloc.o)
 .data          0x0000000068f65000        0x0 C:/mingw64/bin/../lib/gcc/x86_64-w64-mingw32/8.1.0\libstdc++.a(bad_cast.o)
 .data          0x0000000068f65000        0x0 C:/mingw64/bin/../lib/gcc/x86_64-w64-mingw32/8.1.0\libstdc++.a(bad_typeid.o)
 .data          0x0000000068f65000        0x0 C:/mingw64/bin/../lib/gcc/x86_64-w64-mingw32/8.1.0\libstdc++.a(cp-demangle.o)
 .data          0x0000000068f65000        0x0 C:/mingw64/bin/../lib/gcc/x86_64-w64-mingw32/8.1.0\libstdc++.a(eh_call.o)
 .data          0x0000000068f65000        0x0 C:/mingw64/bin/../lib/gcc/x86_64-w64-mingw32/8.1.0\libstdc++.a(eh_type.o)
 .data          0x0000000068f65000        0x0 C:/mingw64/bin/../lib/gcc/x86_64-w64-mingw32/8.1.0\libstdc++.a(new_handler.o)
 .data          0x0000000068f65000       0x10 C:/mingw64/bin/../lib/gcc/x86_64-w64-mingw32/8.1.0/../../../../x86_64-w64-mingw32/lib/../lib/libmingw32.a(lib64_libmingw32_a-gccmain.o)
 .data          0x0000000068f65010       0x10 C:/mingw64/bin/../lib/gcc/x86_64-w64-mingw32/8.1.0/../../../../x86_64-w64-mingw32/lib/../lib/libmingw32.a(lib64_libmingw32_a-natstart.o)
                0x0000000068f65010                __native_vcclrit_reason
                0x0000000068f65014                __native_dllmain_reason
 .data          0x0000000068f65020        0x0 C:/mingw64/bin/../lib/gcc/x86_64-w64-mingw32/8.1.0/../../../../x86_64-w64-mingw32/lib/../lib/libmingw32.a(lib64_libmingw32_a-gs_support.o)
 .data          0x0000000068f65020        0x0 C:/mingw64/bin/../lib/gcc/x86_64-w64-mingw32/8.1.0/../../../../x86_64-w64-mingw32/lib/../lib/libmingw32.a(lib64_libmingw32_a-tlssup.o)
 .data          0x0000000068f65020        0x0 C:/mingw64/bin/../lib/gcc/x86_64-w64-mingw32/8.1.0/../../../../x86_64-w64-mingw32/lib/../lib/libmingw32.a(lib64_libmingw32_a-cinitexe.o)
 .data          0x0000000068f65020        0x0 C:/mingw64/bin/../lib/gcc/x86_64-w64-mingw32/8.1.0/../../../../x86_64-w64-mingw32/lib/../lib/libmingw32.a(lib64_libmingw32_a-mingw_helpers.o)
 .data          0x0000000068f65020        0x0 C:/mingw64/bin/../lib/gcc/x86_64-w64-mingw32/8.1.0/../../../../x86_64-w64-mingw32/lib/../lib/libmingw32.a(lib64_libmingw32_a-pseudo-reloc.o)
 .data          0x0000000068f65020        0x0 C:/mingw64/bin/../lib/gcc/x86_64-w64-mingw32/8.1.0/../../../../x86_64-w64-mingw32/lib/../lib/libmingw32.a(lib64_libmingw32_a-crt_handler.o)
 .data          0x0000000068f65020        0x0 C:/mingw64/bin/../lib/gcc/x86_64-w64-mingw32/8.1.0/../../../../x86_64-w64-mingw32/lib/../lib/libmingw32.a(lib64_libmingw32_a-tlsthrd.o)
 .data          0x0000000068f65020       0x10 C:/mingw64/bin/../lib/gcc/x86_64-w64-mingw32/8.1.0/../../../../x86_64-w64-mingw32/lib/../lib/libmingw32.a(lib64_libmingw32_a-tlsmcrt.o)
                0x0000000068f65020                _CRT_MT
 .data          0x0000000068f65030        0x0 C:/mingw64/bin/../lib/gcc/x86_64-w64-mingw32/8.1.0/../../../../x86_64-w64-mingw32/lib/../lib/libmingw32.a(lib64_libmingw32_a-pseudo-reloc-list.o)
 .data          0x0000000068f65030        0x0 C:/mingw64/bin/../lib/gcc/x86_64-w64-mingw32/8.1.0/../../../../x86_64-w64-mingw32/lib/../lib/libmingw32.a(lib64_libmingw32_a-pesect.o)
 .data          0x0000000068f65030        0x0 C:/mingw64/bin/../lib/gcc/x86_64-w64-mingw32/8.1.0/../../../../x86_64-w64-mingw32/lib/../lib/libmingw32.a(lib64_libmingw32_a-CRT_fp10.o)
 .data          0x0000000068f65030        0x0 C:/mingw64/bin/../lib/gcc/x86_64-w64-mingw32/8.1.0/libgcc.a(_chkstk_ms.o)
 .data          0x0000000068f65030        0x0 C:/mingw64/bin/../lib/gcc/x86_64-w64-mingw32/8.1.0/libgcc.a(_ctors.o)
 .data          0x0000000068f65030        0x0 C:/mingw64/bin/../lib/gcc/x86_64-w64-mingw32/8.1.0/libgcc.a(gthr-win32.o)
 .data          0x0000000068f65030        0x0 C:/mingw64/bin/../lib/gcc/x86_64-w64-mingw32/8.1.0/libgcc_eh.a(unwind-seh.o)
 .data          0x0000000068f65030       0x10 C:/mingw64/bin/../lib/gcc/x86_64-w64-mingw32/8.1.0/libgcc_eh.a(emutls.o)
 .data          0x0000000068f65040        0x0 C:/mingw64/bin/../lib/gcc/x86_64-w64-mingw32/8.1.0/../../../../x86_64-w64-mingw32/lib/../lib/libmingwex.a(lib64_libmingwex_a-dllentry.o)
 .data          0x0000000068f65040        0x0 C:/mingw64/bin/../lib/gcc/x86_64-w64-mingw32/8.1.0/../../../../x86_64-w64-mingw32/lib/../lib/libmsvcrt.a(duags01264.o)
 .data          0x0000000068f65040        0x0 C:/mingw64/bin/../lib/gcc/x86_64-w64-mingw32/8.1.0/../../../../x86_64-w64-mingw32/lib/../lib/libmsvcrt.a(duags01257.o)
 .data          0x0000000068f65040        0x0 C:/mingw64/bin/../lib/gcc/x86_64-w64-mingw32/8.1.0/../../../../x86_64-w64-mingw32/lib/../lib/libmsvcrt.a(duags01251.o)
 .data          0x0000000068f65040        0x0 C:/mingw64/bin/../lib/gcc/x86_64-w64-mingw32/8.1.0/../../../../x86_64-w64-mingw32/lib/../lib/libmsvcrt.a(duags01243.o)
 .data          0x0000000068f65040        0x0 C:/mingw64/bin/../lib/gcc/x86_64-w64-mingw32/8.1.0/../../../../x86_64-w64-mingw32/lib/../lib/libmsvcrt.a(duags01223.o)
 .data          0x0000000068f65040        0x0 C:/mingw64/bin/../lib/gcc/x86_64-w64-mingw32/8.1.0/../../../../x86_64-w64-mingw32/lib/../lib/libmsvcrt.a(duags01211.o)
 .data          0x0000000068f65040        0x0 C:/mingw64/bin/../lib/gcc/x86_64-w64-mingw32/8.1.0/../../../../x86_64-w64-mingw32/lib/../lib/libmsvcrt.a(duags01208.o)
 .data          0x0000000068f65040        0x0 C:/mingw64/bin/../lib/gcc/x86_64-w64-mingw32/8.1.0/../../../../x86_64-w64-mingw32/lib/../lib/libmsvcrt.a(duags01201.o)
 .data          0x0000000068f65040        0x0 C:/mingw64/bin/../lib/gcc/x86_64-w64-mingw32/8.1.0/../../../../x86_64-w64-mingw32/lib/../lib/libmsvcrt.a(duags01192.o)
 .data          0x0000000068f65040        0x0 C:/mingw64/bin/../lib/gcc/x86_64-w64-mingw32/8.1.0/../../../../x86_64-w64-mingw32/lib/../lib/libmsvcrt.a(duags01187.o)
 .data          0x0000000068f65040        0x0 C:/mingw64/bin/../lib/gcc/x86_64-w64-mingw32/8.1.0/../../../../x86_64-w64-mingw32/lib/../lib/libmsvcrt.a(duags01186.o)
 .data          0x0000000068f65040        0x0 C:/mingw64/bin/../lib/gcc/x86_64-w64-mingw32/8.1.0/../../../../x86_64-w64-mingw32/lib/../lib/libmsvcrt.a(duags01177.o)
 .data          0x0000000068f65040        0x0 C:/mingw64/bin/../lib/gcc/x86_64-w64-mingw32/8.1.0/../../../../x86_64-w64-mingw32/lib/../lib/libmsvcrt.a(duags01159.o)
 .data          0x0000000068f65040        0x0 C:/mingw64/bin/../lib/gcc/x86_64-w64-mingw32/8.1.0/../../../../x86_64-w64-mingw32/lib/../lib/libmsvcrt.a(duags01158.o)
 .data          0x0000000068f65040        0x0 C:/mingw64/bin/../lib/gcc/x86_64-w64-mingw32/8.1.0/../../../../x86_64-w64-mingw32/lib/../lib/libmsvcrt.a(duags01157.o)
 .data          0x0000000068f65040        0x0 C:/mingw64/bin/../lib/gcc/x86_64-w64-mingw32/8.1.0/../../../../x86_64-w64-mingw32/lib/../lib/libmsvcrt.a(duags01156.o)
 .data          0x0000000068f65040        0x0 C:/mingw64/bin/../lib/gcc/x86_64-w64-mingw32/8.1.0/../../../../x86_64-w64-mingw32/lib/../lib/libmsvcrt.a(duags01155.o)
 .data          0x0000000068f65040        0x0 C:/mingw64/bin/../lib/gcc/x86_64-w64-mingw32/8.1.0/../../../../x86_64-w64-mingw32/lib/../lib/libmsvcrt.a(duags01149.o)
 .data          0x0000000068f65040        0x0 C:/mingw64/bin/../lib/gcc/x86_64-w64-mingw32/8.1.0/../../../../x86_64-w64-mingw32/lib/../lib/libmsvcrt.a(duags01101.o)
 .data          0x0000000068f65040        0x0 C:/mingw64/bin/../lib/gcc/x86_64-w64-mingw32/8.1.0/../../../../x86_64-w64-mingw32/lib/../lib/libmsvcrt.a(duags01089.o)
 .data          0x0000000068f65040        0x0 C:/mingw64/bin/../lib/gcc/x86_64-w64-mingw32/8.1.0/../../../../x86_64-w64-mingw32/lib/../lib/libmsvcrt.a(duags01086.o)
 .data          0x0000000068f65040        0x0 C:/mingw64/bin/../lib/gcc/x86_64-w64-mingw32/8.1.0/../../../../x86_64-w64-mingw32/lib/../lib/libmsvcrt.a(duags01085.o)
 .data          0x0000000068f65040        0x0 C:/mingw64/bin/../lib/gcc/x86_64-w64-mingw32/8.1.0/../../../../x86_64-w64-mingw32/lib/../lib/libmsvcrt.a(duags01084.o)
 .data          0x0000000068f65040        0x0 C:/mingw64/bin/../lib/gcc/x86_64-w64-mingw32/8.1.0/../../../../x86_64-w64-mingw32/lib/../lib/libmsvcrt.a(duags01080.o)
 .data          0x0000000068f65040        0x0 C:/mingw64/bin/../lib/gcc/x86_64-w64-mingw32/8.1.0/../../../../x86_64-w64-mingw32/lib/../lib/libmsvcrt.a(duags01067.o)
 .data          0x0000000068f65040        0x0 C:/mingw64/bin/../lib/gcc/x86_64-w64-mingw32/8.1.0/../../../../x86_64-w64-mingw32/lib/../lib/libmsvcrt.a(duags01050.o)
 .data          0x0000000068f65040        0x0 C:/mingw64/bin/../lib/gcc/x86_64-w64-mingw32/8.1.0/../../../../x86_64-w64-mingw32/lib/../lib/libmsvcrt.a(duags01032.o)
 .data          0x0000000068f65040        0x0 C:/mingw64/bin/../lib/gcc/x86_64-w64-mingw32/8.1.0/../../../../x86_64-w64-mingw32/lib/../lib/libmsvcrt.a(duags00986.o)
 .data          0x0000000068f65040        0x0 C:/mingw64/bin/../lib/gcc/x86_64-w64-mingw32/8.1.0/../../../../x86_64-w64-mingw32/lib/../lib/libmsvcrt.a(duags00945.o)
 .data          0x0000000068f65040        0x0 C:/mingw64/bin/../lib/gcc/x86_64-w64-mingw32/8.1.0/../../../../x86_64-w64-mingw32/lib/../lib/libmsvcrt.a(duags00861.o)
 .data          0x0000000068f65040        0x0 C:/mingw64/bin/../lib/gcc/x86_64-w64-mingw32/8.1.0/../../../../x86_64-w64-mingw32/lib/../lib/libmsvcrt.a(duags00617.o)
 .data          0x0000000068f65040        0x0 C:/mingw64/bin/../lib/gcc/x86_64-w64-mingw32/8.1.0/../../../../x86_64-w64-mingw32/lib/../lib/libmsvcrt.a(duags00332.o)
 .data          0x0000000068f65040        0x0 C:/mingw64/bin/../lib/gcc/x86_64-w64-mingw32/8.1.0/../../../../x86_64-w64-mingw32/lib/../lib/libmsvcrt.a(duags00155.o)
 .data          0x0000000068f65040        0x0 C:/mingw64/bin/../lib/gcc/x86_64-w64-mingw32/8.1.0/../../../../x86_64-w64-mingw32/lib/../lib/libmsvcrt.a(duags00137.o)
 .data          0x0000000068f65040        0x0 C:/mingw64/bin/../lib/gcc/x86_64-w64-mingw32/8.1.0/../../../../x86_64-w64-mingw32/lib/../lib/libmsvcrt.a(duags00122.o)
 .data          0x0000000068f65040       0x20 C:/mingw64/bin/../lib/gcc/x86_64-w64-mingw32/8.1.0/../../../../x86_64-w64-mingw32/lib/../lib/libmsvcrt.a(lib64_libmsvcrt_os_a-onexit_table.o)
                0x0000000068f65040                __imp__execute_onexit_table
                0x0000000068f65048                __imp__register_onexit_function
                0x0000000068f65050                __imp__initialize_onexit_table
 .data          0x0000000068f65060       0x10 C:/mingw64/bin/../lib/gcc/x86_64-w64-mingw32/8.1.0/../../../../x86_64-w64-mingw32/lib/../lib/libmsvcrt.a(lib64_libmsvcrt_os_a-acrt_iob_func.o)
                0x0000000068f65060                __imp___acrt_iob_func
 .data          0x0000000068f65070       0x10 C:/mingw64/bin/../lib/gcc/x86_64-w64-mingw32/8.1.0/../../../../x86_64-w64-mingw32/lib/../lib/libmsvcrt.a(lib64_libmsvcrt_os_a-vsprintf_s.o)
                0x0000000068f65070                __imp_vsprintf_s
 .data          0x0000000068f65080        0x0 C:/mingw64/bin/../lib/gcc/x86_64-w64-mingw32/8.1.0/../../../../x86_64-w64-mingw32/lib/../lib/libmsvcrt.a(duagh.o)
 .data          0x0000000068f65080        0x0 C:/mingw64/bin/../lib/gcc/x86_64-w64-mingw32/8.1.0/../../../../x86_64-w64-mingw32/lib/../lib/libmsvcrt.a(duags00821.o)
 .data          0x0000000068f65080        0x0 C:/mingw64/bin/../lib/gcc/x86_64-w64-mingw32/8.1.0/../../../../x86_64-w64-mingw32/lib/../lib/libmsvcrt.a(duags00441.o)
 .data          0x0000000068f65080        0x0 C:/mingw64/bin/../lib/gcc/x86_64-w64-mingw32/8.1.0/../../../../x86_64-w64-mingw32/lib/../lib/libmsvcrt.a(duags00083.o)
 .data          0x0000000068f65080        0x0 C:/mingw64/bin/../lib/gcc/x86_64-w64-mingw32/8.1.0/../../../../x86_64-w64-mingw32/lib/../lib/libmsvcrt.a(duagt.o)
 .data          0x0000000068f65080        0x0 C:/mingw64/bin/../lib/gcc/x86_64-w64-mingw32/8.1.0/../../../../x86_64-w64-mingw32/lib/../lib/libadvapi32.a(diufs00741.o)
 .data          0x0000000068f65080        0x0 C:/mingw64/bin/../lib/gcc/x86_64-w64-mingw32/8.1.0/../../../../x86_64-w64-mingw32/lib/../lib/libadvapi32.a(diufs00720.o)
 .data          0x0000000068f65080        0x0 C:/mingw64/bin/../lib/gcc/x86_64-w64-mingw32/8.1.0/../../../../x86_64-w64-mingw32/lib/../lib/libadvapi32.a(diufs00354.o)
 .data          0x0000000068f65080        0x0 C:/mingw64/bin/../lib/gcc/x86_64-w64-mingw32/8.1.0/../../../../x86_64-w64-mingw32/lib/../lib/libadvapi32.a(diufs00146.o)
 .data          0x0000000068f65080        0x0 C:/mingw64/bin/../lib/gcc/x86_64-w64-mingw32/8.1.0/../../../../x86_64-w64-mingw32/lib/../lib/libadvapi32.a(diufh.o)
 .data          0x0000000068f65080        0x0 C:/mingw64/bin/../lib/gcc/x86_64-w64-mingw32/8.1.0/../../../../x86_64-w64-mingw32/lib/../lib/libadvapi32.a(diuft.o)
 .data          0x0000000068f65080        0x0 C:/mingw64/bin/../lib/gcc/x86_64-w64-mingw32/8.1.0/../../../../x86_64-w64-mingw32/lib/../lib/libuser32.a(dyqes00864.o)
 .data          0x0000000068f65080        0x0 C:/mingw64/bin/../lib/gcc/x86_64-w64-mingw32/8.1.0/../../../../x86_64-w64-mingw32/lib/../lib/libuser32.a(dyqes00852.o)
 .data          0x0000000068f65080        0x0 C:/mingw64/bin/../lib/gcc/x86_64-w64-mingw32/8.1.0/../../../../x86_64-w64-mingw32/lib/../lib/libuser32.a(dyqes00847.o)
 .data          0x0000000068f65080        0x0 C:/mingw64/bin/../lib/gcc/x86_64-w64-mingw32/8.1.0/../../../../x86_64-w64-mingw32/lib/../lib/libuser32.a(dyqes00844.o)
 .data          0x0000000068f65080        0x0 C:/mingw64/bin/../lib/gcc/x86_64-w64-mingw32/8.1.0/../../../../x86_64-w64-mingw32/lib/../lib/libuser32.a(dyqes00831.o)
 .data          0x0000000068f65080        0x0 C:/mingw64/bin/../lib/gcc/x86_64-w64-mingw32/8.1.0/../../../../x86_64-w64-mingw32/lib/../lib/libuser32.a(dyqes00778.o)
 .data          0x0000000068f65080        0x0 C:/mingw64/bin/../lib/gcc/x86_64-w64-mingw32/8.1.0/../../../../x86_64-w64-mingw32/lib/../lib/libuser32.a(dyqes00753.o)
 .data          0x0000000068f65080        0x0 C:/mingw64/bin/../lib/gcc/x86_64-w64-mingw32/8.1.0/../../../../x86_64-w64-mingw32/lib/../lib/libuser32.a(dyqes00752.o)
 .data          0x0000000068f65080        0x0 C:/mingw64/bin/../lib/gcc/x86_64-w64-mingw32/8.1.0/../../../../x86_64-w64-mingw32/lib/../lib/libuser32.a(dyqes00744.o)
 .data          0x0000000068f65080        0x0 C:/mingw64/bin/../lib/gcc/x86_64-w64-mingw32/8.1.0/../../../../x86_64-w64-mingw32/lib/../lib/libuser32.a(dyqes00738.o)
 .data          0x0000000068f65080        0x0 C:/mingw64/bin/../lib/gcc/x86_64-w64-mingw32/8.1.0/../../../../x86_64-w64-mingw32/lib/../lib/libuser32.a(dyqes00654.o)
 .data          0x0000000068f65080        0x0 C:/mingw64/bin/../lib/gcc/x86_64-w64-mingw32/8.1.0/../../../../x86_64-w64-mingw32/lib/../lib/libuser32.a(dyqes00623.o)
 .data          0x0000000068f65080        0x0 C:/mingw64/bin/../lib/gcc/x86_64-w64-mingw32/8.1.0/../../../../x86_64-w64-mingw32/lib/../lib/libuser32.a(dyqes00567.o)
 .data          0x0000000068f65080        0x0 C:/mingw64/bin/../lib/gcc/x86_64-w64-mingw32/8.1.0/../../../../x86_64-w64-mingw32/lib/../lib/libuser32.a(dyqes00477.o)
 .data          0x0000000068f65080        0x0 C:/mingw64/bin/../lib/gcc/x86_64-w64-mingw32/8.1.0/../../../../x86_64-w64-mingw32/lib/../lib/libuser32.a(dyqes00476.o)
 .data          0x0000000068f65080        0x0 C:/mingw64/bin/../lib/gcc/x86_64-w64-mingw32/8.1.0/../../../../x86_64-w64-mingw32/lib/../lib/libuser32.a(dyqes00470.o)
 .data          0x0000000068f65080        0x0 C:/mingw64/bin/../lib/gcc/x86_64-w64-mingw32/8.1.0/../../../../x86_64-w64-mingw32/lib/../lib/libuser32.a(dyqes00385.o)
 .data          0x0000000068f65080        0x0 C:/mingw64/bin/../lib/gcc/x86_64-w64-mingw32/8.1.0/../../../../x86_64-w64-mingw32/lib/../lib/libuser32.a(dyqes00326.o)
 .data          0x0000000068f65080        0x0 C:/mingw64/bin/../lib/gcc/x86_64-w64-mingw32/8.1.0/../../../../x86_64-w64-mingw32/lib/../lib/libuser32.a(dyqes00317.o)
 .data          0x0000000068f65080        0x0 C:/mingw64/bin/../lib/gcc/x86_64-w64-mingw32/8.1.0/../../../../x86_64-w64-mingw32/lib/../lib/libuser32.a(dyqes00303.o)
 .data          0x0000000068f65080        0x0 C:/mingw64/bin/../lib/gcc/x86_64-w64-mingw32/8.1.0/../../../../x86_64-w64-mingw32/lib/../lib/libuser32.a(dyqes00235.o)
 .data          0x0000000068f65080        0x0 C:/mingw64/bin/../lib/gcc/x86_64-w64-mingw32/8.1.0/../../../../x86_64-w64-mingw32/lib/../lib/libuser32.a(dyqes00176.o)
 .data          0x0000000068f65080        0x0 C:/mingw64/bin/../lib/gcc/x86_64-w64-mingw32/8.1.0/../../../../x86_64-w64-mingw32/lib/../lib/libuser32.a(dyqes00104.o)
 .data          0x0000000068f65080        0x0 C:/mingw64/bin/../lib/gcc/x86_64-w64-mingw32/8.1.0/../../../../x86_64-w64-mingw32/lib/../lib/libuser32.a(dyqeh.o)
 .data          0x0000000068f65080        0x0 C:/mingw64/bin/../lib/gcc/x86_64-w64-mingw32/8.1.0/../../../../x86_64-w64-mingw32/lib/../lib/libuser32.a(dyqet.o)
 .data          0x0000000068f65080        0x0 C:/mingw64/bin/../lib/gcc/x86_64-w64-mingw32/8.1.0/../../../../x86_64-w64-mingw32/lib/../lib/libkernel32.a(dqifs01516.o)
 .data          0x0000000068f65080        0x0 C:/mingw64/bin/../lib/gcc/x86_64-w64-mingw32/8.1.0/../../../../x86_64-w64-mingw32/lib/../lib/libkernel32.a(dqifs01510.o)
 .data          0x0000000068f65080        0x0 C:/mingw64/bin/../lib/gcc/x86_64-w64-mingw32/8.1.0/../../../../x86_64-w64-mingw32/lib/../lib/libkernel32.a(dqifs01490.o)
 .data          0x0000000068f65080        0x0 C:/mingw64/bin/../lib/gcc/x86_64-w64-mingw32/8.1.0/../../../../x86_64-w64-mingw32/lib/../lib/libkernel32.a(dqifs01453.o)
 .data          0x0000000068f65080        0x0 C:/mingw64/bin/../lib/gcc/x86_64-w64-mingw32/8.1.0/../../../../x86_64-w64-mingw32/lib/../lib/libkernel32.a(dqifs01451.o)
 .data          0x0000000068f65080        0x0 C:/mingw64/bin/../lib/gcc/x86_64-w64-mingw32/8.1.0/../../../../x86_64-w64-mingw32/lib/../lib/libkernel32.a(dqifs01445.o)
 .data          0x0000000068f65080        0x0 C:/mingw64/bin/../lib/gcc/x86_64-w64-mingw32/8.1.0/../../../../x86_64-w64-mingw32/lib/../lib/libkernel32.a(dqifs01443.o)
 .data          0x0000000068f65080        0x0 C:/mingw64/bin/../lib/gcc/x86_64-w64-mingw32/8.1.0/../../../../x86_64-w64-mingw32/lib/../lib/libkernel32.a(dqifs01409.o)
 .data          0x0000000068f65080        0x0 C:/mingw64/bin/../lib/gcc/x86_64-w64-mingw32/8.1.0/../../../../x86_64-w64-mingw32/lib/../lib/libkernel32.a(dqifs01396.o)
 .data          0x0000000068f65080        0x0 C:/mingw64/bin/../lib/gcc/x86_64-w64-mingw32/8.1.0/../../../../x86_64-w64-mingw32/lib/../lib/libkernel32.a(dqifs01395.o)
 .data          0x0000000068f65080        0x0 C:/mingw64/bin/../lib/gcc/x86_64-w64-mingw32/8.1.0/../../../../x86_64-w64-mingw32/lib/../lib/libkernel32.a(dqifs01394.o)
 .data          0x0000000068f65080        0x0 C:/mingw64/bin/../lib/gcc/x86_64-w64-mingw32/8.1.0/../../../../x86_64-w64-mingw32/lib/../lib/libkernel32.a(dqifs01393.o)
 .data          0x0000000068f65080        0x0 C:/mingw64/bin/../lib/gcc/x86_64-w64-mingw32/8.1.0/../../../../x86_64-w64-mingw32/lib/../lib/libkernel32.a(dqifs01375.o)
 .data          0x0000000068f65080        0x0 C:/mingw64/bin/../lib/gcc/x86_64-w64-mingw32/8.1.0/../../../../x86_64-w64-mingw32/lib/../lib/libkernel32.a(dqifs01360.o)
 .data          0x0000000068f65080        0x0 C:/mingw64/bin/../lib/gcc/x86_64-w64-mingw32/8.1.0/../../../../x86_64-w64-mingw32/lib/../lib/libkernel32.a(dqifs01346.o)
 .data          0x0000000068f65080        0x0 C:/mingw64/bin/../lib/gcc/x86_64-w64-mingw32/8.1.0/../../../../x86_64-w64-mingw32/lib/../lib/libkernel32.a(dqifs01290.o)
 .data          0x0000000068f65080        0x0 C:/mingw64/bin/../lib/gcc/x86_64-w64-mingw32/8.1.0/../../../../x86_64-w64-mingw32/lib/../lib/libkernel32.a(dqifs01263.o)
 .data          0x0000000068f65080        0x0 C:/mingw64/bin/../lib/gcc/x86_64-w64-mingw32/8.1.0/../../../../x86_64-w64-mingw32/lib/../lib/libkernel32.a(dqifs01194.o)
 .data          0x0000000068f65080        0x0 C:/mingw64/bin/../lib/gcc/x86_64-w64-mingw32/8.1.0/../../../../x86_64-w64-mingw32/lib/../lib/libkernel32.a(dqifs01193.o)
 .data          0x0000000068f65080        0x0 C:/mingw64/bin/../lib/gcc/x86_64-w64-mingw32/8.1.0/../../../../x86_64-w64-mingw32/lib/../lib/libkernel32.a(dqifs01187.o)
 .data          0x0000000068f65080        0x0 C:/mingw64/bin/../lib/gcc/x86_64-w64-mingw32/8.1.0/../../../../x86_64-w64-mingw32/lib/../lib/libkernel32.a(dqifs01180.o)
 .data          0x0000000068f65080        0x0 C:/mingw64/bin/../lib/gcc/x86_64-w64-mingw32/8.1.0/../../../../x86_64-w64-mingw32/lib/../lib/libkernel32.a(dqifs01179.o)
 .data          0x0000000068f65080        0x0 C:/mingw64/bin/../lib/gcc/x86_64-w64-mingw32/8.1.0/../../../../x86_64-w64-mingw32/lib/../lib/libkernel32.a(dqifs01172.o)
 .data          0x0000000068f65080        0x0 C:/mingw64/bin/../lib/gcc/x86_64-w64-mingw32/8.1.0/../../../../x86_64-w64-mingw32/lib/../lib/libkernel32.a(dqifs01154.o)
 .data          0x0000000068f65080        0x0 C:/mingw64/bin/../lib/gcc/x86_64-w64-mingw32/8.1.0/../../../../x86_64-w64-mingw32/lib/../lib/libkernel32.a(dqifs01128.o)
 .data          0x0000000068f65080        0x0 C:/mingw64/bin/../lib/gcc/x86_64-w64-mingw32/8.1.0/../../../../x86_64-w64-mingw32/lib/../lib/libkernel32.a(dqifs01112.o)
 .data          0x0000000068f65080        0x0 C:/mingw64/bin/../lib/gcc/x86_64-w64-mingw32/8.1.0/../../../../x86_64-w64-mingw32/lib/../lib/libkernel32.a(dqifs01093.o)
 .data          0x0000000068f65080        0x0 C:/mingw64/bin/../lib/gcc/x86_64-w64-mingw32/8.1.0/../../../../x86_64-w64-mingw32/lib/../lib/libkernel32.a(dqifs01042.o)
 .data          0x0000000068f65080        0x0 C:/mingw64/bin/../lib/gcc/x86_64-w64-mingw32/8.1.0/../../../../x86_64-w64-mingw32/lib/../lib/libkernel32.a(dqifs01020.o)
 .data          0x0000000068f65080        0x0 C:/mingw64/bin/../lib/gcc/x86_64-w64-mingw32/8.1.0/../../../../x86_64-w64-mingw32/lib/../lib/libkernel32.a(dqifs00999.o)
 .data          0x0000000068f65080        0x0 C:/mingw64/bin/../lib/gcc/x86_64-w64-mingw32/8.1.0/../../../../x86_64-w64-mingw32/lib/../lib/libkernel32.a(dqifs00967.o)
 .data          0x0000000068f65080        0x0 C:/mingw64/bin/../lib/gcc/x86_64-w64-mingw32/8.1.0/../../../../x86_64-w64-mingw32/lib/../lib/libkernel32.a(dqifs00951.o)
 .data          0x0000000068f65080        0x0 C:/mingw64/bin/../lib/gcc/x86_64-w64-mingw32/8.1.0/../../../../x86_64-w64-mingw32/lib/../lib/libkernel32.a(dqifs00863.o)
 .data          0x0000000068f65080        0x0 C:/mingw64/bin/../lib/gcc/x86_64-w64-mingw32/8.1.0/../../../../x86_64-w64-mingw32/lib/../lib/libkernel32.a(dqifs00801.o)
 .data          0x0000000068f65080        0x0 C:/mingw64/bin/../lib/gcc/x86_64-w64-mingw32/8.1.0/../../../../x86_64-w64-mingw32/lib/../lib/libkernel32.a(dqifs00799.o)
 .data          0x0000000068f65080        0x0 C:/mingw64/bin/../lib/gcc/x86_64-w64-mingw32/8.1.0/../../../../x86_64-w64-mingw32/lib/../lib/libkernel32.a(dqifs00774.o)
 .data          0x0000000068f65080        0x0 C:/mingw64/bin/../lib/gcc/x86_64-w64-mingw32/8.1.0/../../../../x86_64-w64-mingw32/lib/../lib/libkernel32.a(dqifs00746.o)
 .data          0x0000000068f65080        0x0 C:/mingw64/bin/../lib/gcc/x86_64-w64-mingw32/8.1.0/../../../../x86_64-w64-mingw32/lib/../lib/libkernel32.a(dqifs00689.o)
 .data          0x0000000068f65080        0x0 C:/mingw64/bin/../lib/gcc/x86_64-w64-mingw32/8.1.0/../../../../x86_64-w64-mingw32/lib/../lib/libkernel32.a(dqifs00686.o)
 .data          0x0000000068f65080        0x0 C:/mingw64/bin/../lib/gcc/x86_64-w64-mingw32/8.1.0/../../../../x86_64-w64-mingw32/lib/../lib/libkernel32.a(dqifs00680.o)
 .data          0x0000000068f65080        0x0 C:/mingw64/bin/../lib/gcc/x86_64-w64-mingw32/8.1.0/../../../../x86_64-w64-mingw32/lib/../lib/libkernel32.a(dqifs00633.o)
 .data          0x0000000068f65080        0x0 C:/mingw64/bin/../lib/gcc/x86_64-w64-mingw32/8.1.0/../../../../x86_64-w64-mingw32/lib/../lib/libkernel32.a(dqifs00629.o)
 .data          0x0000000068f65080        0x0 C:/mingw64/bin/../lib/gcc/x86_64-w64-mingw32/8.1.0/../../../../x86_64-w64-mingw32/lib/../lib/libkernel32.a(dqifs00609.o)
 .data          0x0000000068f65080        0x0 C:/mingw64/bin/../lib/gcc/x86_64-w64-mingw32/8.1.0/../../../../x86_64-w64-mingw32/lib/../lib/libkernel32.a(dqifs00583.o)
 .data          0x0000000068f65080        0x0 C:/mingw64/bin/../lib/gcc/x86_64-w64-mingw32/8.1.0/../../../../x86_64-w64-mingw32/lib/../lib/libkernel32.a(dqifs00554.o)
 .data          0x0000000068f65080        0x0 C:/mingw64/bin/../lib/gcc/x86_64-w64-mingw32/8.1.0/../../../../x86_64-w64-mingw32/lib/../lib/libkernel32.a(dqifs00540.o)
 .data          0x0000000068f65080        0x0 C:/mingw64/bin/../lib/gcc/x86_64-w64-mingw32/8.1.0/../../../../x86_64-w64-mingw32/lib/../lib/libkernel32.a(dqifs00536.o)
 .data          0x0000000068f65080        0x0 C:/mingw64/bin/../lib/gcc/x86_64-w64-mingw32/8.1.0/../../../../x86_64-w64-mingw32/lib/../lib/libkernel32.a(dqifs00535.o)
 .data          0x0000000068f65080        0x0 C:/mingw64/bin/../lib/gcc/x86_64-w64-mingw32/8.1.0/../../../../x86_64-w64-mingw32/lib/../lib/libkernel32.a(dqifs00415.o)
 .data          0x0000000068f65080        0x0 C:/mingw64/bin/../lib/gcc/x86_64-w64-mingw32/8.1.0/../../../../x86_64-w64-mingw32/lib/../lib/libkernel32.a(dqifs00396.o)
 .data          0x0000000068f65080        0x0 C:/mingw64/bin/../lib/gcc/x86_64-w64-mingw32/8.1.0/../../../../x86_64-w64-mingw32/lib/../lib/libkernel32.a(dqifs00384.o)
 .data          0x0000000068f65080        0x0 C:/mingw64/bin/../lib/gcc/x86_64-w64-mingw32/8.1.0/../../../../x86_64-w64-mingw32/lib/../lib/libkernel32.a(dqifs00373.o)
 .data          0x0000000068f65080        0x0 C:/mingw64/bin/../lib/gcc/x86_64-w64-mingw32/8.1.0/../../../../x86_64-w64-mingw32/lib/../lib/libkernel32.a(dqifs00304.o)
 .data          0x0000000068f65080        0x0 C:/mingw64/bin/../lib/gcc/x86_64-w64-mingw32/8.1.0/../../../../x86_64-w64-mingw32/lib/../lib/libkernel32.a(dqifs00289.o)
 .data          0x0000000068f65080        0x0 C:/mingw64/bin/../lib/gcc/x86_64-w64-mingw32/8.1.0/../../../../x86_64-w64-mingw32/lib/../lib/libkernel32.a(dqifs00268.o)
 .data          0x0000000068f65080        0x0 C:/mingw64/bin/../lib/gcc/x86_64-w64-mingw32/8.1.0/../../../../x86_64-w64-mingw32/lib/../lib/libkernel32.a(dqifs00231.o)
 .data          0x0000000068f65080        0x0 C:/mingw64/bin/../lib/gcc/x86_64-w64-mingw32/8.1.0/../../../../x86_64-w64-mingw32/lib/../lib/libkernel32.a(dqifs00216.o)
 .data          0x0000000068f65080        0x0 C:/mingw64/bin/../lib/gcc/x86_64-w64-mingw32/8.1.0/../../../../x86_64-w64-mingw32/lib/../lib/libkernel32.a(dqifs00199.o)
 .data          0x0000000068f65080        0x0 C:/mingw64/bin/../lib/gcc/x86_64-w64-mingw32/8.1.0/../../../../x86_64-w64-mingw32/lib/../lib/libkernel32.a(dqifs00187.o)
 .data          0x0000000068f65080        0x0 C:/mingw64/bin/../lib/gcc/x86_64-w64-mingw32/8.1.0/../../../../x86_64-w64-mingw32/lib/../lib/libkernel32.a(dqifs00183.o)
 .data          0x0000000068f65080        0x0 C:/mingw64/bin/../lib/gcc/x86_64-w64-mingw32/8.1.0/../../../../x86_64-w64-mingw32/lib/../lib/libkernel32.a(dqifs00151.o)
 .data          0x0000000068f65080        0x0 C:/mingw64/bin/../lib/gcc/x86_64-w64-mingw32/8.1.0/../../../../x86_64-w64-mingw32/lib/../lib/libkernel32.a(dqifs00130.o)
 .data          0x0000000068f65080        0x0 C:/mingw64/bin/../lib/gcc/x86_64-w64-mingw32/8.1.0/../../../../x86_64-w64-mingw32/lib/../lib/libkernel32.a(dqifs00109.o)
 .data          0x0000000068f65080        0x0 C:/mingw64/bin/../lib/gcc/x86_64-w64-mingw32/8.1.0/../../../../x86_64-w64-mingw32/lib/../lib/libkernel32.a(dqifh.o)
 .data          0x0000000068f65080        0x0 C:/mingw64/bin/../lib/gcc/x86_64-w64-mingw32/8.1.0/../../../../x86_64-w64-mingw32/lib/../lib/libkernel32.a(dqift.o)
 .data          0x0000000068f65080        0x0 C:/mingw64/bin/../lib/gcc/x86_64-w64-mingw32/8.1.0/../../../../x86_64-w64-mingw32/lib/../lib/libmingw32.a(lib64_libmingw32_a-tlsmthread.o)
 .data          0x0000000068f65080        0x0 C:/mingw64/bin/../lib/gcc/x86_64-w64-mingw32/8.1.0/../../../../x86_64-w64-mingw32/lib/../lib/libmingwex.a(lib64_libmingwex_a-vsnprintf.o)
 .data          0x0000000068f65080        0x0 C:/mingw64/bin/../lib/gcc/x86_64-w64-mingw32/8.1.0/../../../../x86_64-w64-mingw32/lib/../lib/libmsvcrt.a(duags00852.o)
 .data          0x0000000068f65080        0x0 C:/mingw64/bin/../lib/gcc/x86_64-w64-mingw32/8.1.0/crtend.o
 *(.data2)
 *(SORT_BY_NAME(.data$*))
 .data$.LDFCM0  0x0000000068f65080       0x10 C:/mingw64/bin/../lib/gcc/x86_64-w64-mingw32/8.1.0\libstdc++.a(vterminate.o)
 .data$_ZN10__cxxabiv119__terminate_handlerE
                0x0000000068f65090       0x10 C:/mingw64/bin/../lib/gcc/x86_64-w64-mingw32/8.1.0\libstdc++.a(eh_term_handler.o)
                0x0000000068f65090                __cxxabiv1::__terminate_handler
 .data$_ZN10__cxxabiv120__unexpected_handlerE
                0x0000000068f650a0       0x10 C:/mingw64/bin/../lib/gcc/x86_64-w64-mingw32/8.1.0\libstdc++.a(eh_unex_handler.o)
                0x0000000068f650a0                __cxxabiv1::__unexpected_handler
 .data$_ZN12_GLOBAL__N_113__new_handlerE
                0x0000000068f650b0       0x10 C:/mingw64/bin/../lib/gcc/x86_64-w64-mingw32/8.1.0\libstdc++.a(new_handler.o)
 .data$_ZN12_GLOBAL__N_114emergency_poolE
                0x0000000068f650c0       0x40 C:/mingw64/bin/../lib/gcc/x86_64-w64-mingw32/8.1.0\libstdc++.a(eh_alloc.o)
 .data$_ZNSs4_Rep20_S_empty_rep_storageE
                0x0000000068f65100       0x20 C:/mingw64/bin/../lib/gcc/x86_64-w64-mingw32/8.1.0\libstdc++.a(cow-string-inst.o)
                0x0000000068f65100                std::string::_Rep::_S_empty_rep_storage
 .data$_ZZN9__gnu_cxx27__verbose_terminate_handlerEvE11terminating
                0x0000000068f65120       0x10 C:/mingw64/bin/../lib/gcc/x86_64-w64-mingw32/8.1.0\libstdc++.a(vterminate.o)
 *fill*         0x0000000068f65130       0x10 
 .data$__emutls_v._ZZN12_GLOBAL__N_110get_globalEvE6global
                0x0000000068f65140       0x20 C:/mingw64/bin/../lib/gcc/x86_64-w64-mingw32/8.1.0\libstdc++.a(eh_globals.o)
 .data$__security_cookie
                0x0000000068f65160       0x10 C:/mingw64/bin/../lib/gcc/x86_64-w64-mingw32/8.1.0/../../../../x86_64-w64-mingw32/lib/../lib/libmingw32.a(lib64_libmingw32_a-gs_support.o)
                0x0000000068f65160                __security_cookie
 .data$__security_cookie_complement
                0x0000000068f65170       0x10 C:/mingw64/bin/../lib/gcc/x86_64-w64-mingw32/8.1.0/../../../../x86_64-w64-mingw32/lib/../lib/libmingw32.a(lib64_libmingw32_a-gs_support.o)
                0x0000000068f65170                __security_cookie_complement
 *(.jcr)
                0x0000000068f65180                __data_end__ = .
 *(.data_cygwin_nocopy)

.rdata          0x0000000068f66000     0x4c00
 *(.rdata)
 .rdata         0x0000000068f66000      0x3b0 Common__CtrlCmdUtil.cpp.obj
 .rdata         0x0000000068f663b0      0x270 Common__PathUtil.cpp.obj
 .rdata         0x0000000068f66620      0x290 Common__PipeServer.cpp.obj
 .rdata         0x0000000068f668b0      0x150 Common__SendCtrlCmd.cpp.obj
 .rdata         0x0000000068f66a00      0x100 Common__StringUtil.cpp.obj
 .rdata         0x0000000068f66b00      0x940 EpgTimerPlugIn.cpp.obj
 .rdata         0x0000000068f67440       0xc0 StreamCtrlDlg.cpp.obj
 .rdata         0x0000000068f67500       0x50 C:/mingw64/bin/../lib/gcc/x86_64-w64-mingw32/8.1.0\libstdc++.a(eh_alloc.o)
 .rdata         0x0000000068f67550       0x30 C:/mingw64/bin/../lib/gcc/x86_64-w64-mingw32/8.1.0\libstdc++.a(eh_exception.o)
 .rdata         0x0000000068f67580       0x40 C:/mingw64/bin/../lib/gcc/x86_64-w64-mingw32/8.1.0\libstdc++.a(eh_personality.o)
 .rdata         0x0000000068f675c0       0x40 C:/mingw64/bin/../lib/gcc/x86_64-w64-mingw32/8.1.0\libstdc++.a(pure.o)
 .rdata         0x0000000068f67600       0xa0 C:/mingw64/bin/../lib/gcc/x86_64-w64-mingw32/8.1.0\libstdc++.a(vterminate.o)
 .rdata         0x0000000068f676a0      0x220 C:/mingw64/bin/../lib/gcc/x86_64-w64-mingw32/8.1.0\libstdc++.a(cow-string-inst.o)
 .rdata         0x0000000068f678c0       0x20 C:/mingw64/bin/../lib/gcc/x86_64-w64-mingw32/8.1.0\libstdc++.a(functional.o)
 .rdata         0x0000000068f678e0       0x10 C:/mingw64/bin/../lib/gcc/x86_64-w64-mingw32/8.1.0\libstdc++.a(snprintf_lite.o)
 .rdata         0x0000000068f678f0      0x1d0 C:/mingw64/bin/../lib/gcc/x86_64-w64-mingw32/8.1.0\libstdc++.a(string-inst.o)
 .rdata         0x0000000068f67ac0       0x10 C:/mingw64/bin/../lib/gcc/x86_64-w64-mingw32/8.1.0\libstdc++.a(bad_alloc.o)
 .rdata         0x0000000068f67ad0       0x10 C:/mingw64/bin/../lib/gcc/x86_64-w64-mingw32/8.1.0\libstdc++.a(bad_cast.o)
 .rdata         0x0000000068f67ae0       0x10 C:/mingw64/bin/../lib/gcc/x86_64-w64-mingw32/8.1.0\libstdc++.a(bad_typeid.o)
 *fill*         0x0000000068f67af0       0x10 
 .rdata         0x0000000068f67b00     0x1da0 C:/mingw64/bin/../lib/gcc/x86_64-w64-mingw32/8.1.0\libstdc++.a(cp-demangle.o)
 .rdata         0x0000000068f698a0       0x10 C:/mingw64/bin/../lib/gcc/x86_64-w64-mingw32/8.1.0/../../../../x86_64-w64-mingw32/lib/../lib/libmingw32.a(lib64_libmingw32_a-gs_support.o)
 *fill*         0x0000000068f698b0       0x10 
 .rdata         0x0000000068f698c0       0x60 C:/mingw64/bin/../lib/gcc/x86_64-w64-mingw32/8.1.0/../../../../x86_64-w64-mingw32/lib/../lib/libmingw32.a(lib64_libmingw32_a-tlssup.o)
                0x0000000068f698c0                __dyn_tls_init_callback
                0x0000000068f698e0                _tls_used
 .rdata         0x0000000068f69920      0x110 C:/mingw64/bin/../lib/gcc/x86_64-w64-mingw32/8.1.0/../../../../x86_64-w64-mingw32/lib/../lib/libmingw32.a(lib64_libmingw32_a-pseudo-reloc.o)
 .rdata         0x0000000068f69a30       0x10 C:/mingw64/bin/../lib/gcc/x86_64-w64-mingw32/8.1.0/../../../../x86_64-w64-mingw32/lib/../lib/libmingw32.a(lib64_libmingw32_a-crt_handler.o)
 .rdata         0x0000000068f69a40       0x30 C:/mingw64/bin/../lib/gcc/x86_64-w64-mingw32/8.1.0/../../../../x86_64-w64-mingw32/lib/../lib/libmsvcrt.a(lib64_libmsvcrt_os_a-vsprintf_s.o)
 *(SORT_BY_NAME(.rdata$*))
 .rdata$.refptr._CRT_MT
                0x0000000068f69a70       0x10 C:/mingw64/bin/../lib/gcc/x86_64-w64-mingw32/8.1.0\libstdc++.a(eh_alloc.o)
                0x0000000068f69a70                .refptr._CRT_MT
 .rdata$.refptr._ZN10__cxxabiv119__terminate_handlerE
                0x0000000068f69a80       0x10 C:/mingw64/bin/../lib/gcc/x86_64-w64-mingw32/8.1.0\libstdc++.a(eh_terminate.o)
                0x0000000068f69a80                .refptr._ZN10__cxxabiv119__terminate_handlerE
 .rdata$.refptr._ZN10__cxxabiv120__unexpected_handlerE
                0x0000000068f69a90       0x10 C:/mingw64/bin/../lib/gcc/x86_64-w64-mingw32/8.1.0\libstdc++.a(eh_terminate.o)
                0x0000000068f69a90                .refptr._ZN10__cxxabiv120__unexpected_handlerE
 .rdata$.refptr._ZNSt10bad_typeidD1Ev
                0x0000000068f69aa0       0x10 C:/mingw64/bin/../lib/gcc/x86_64-w64-mingw32/8.1.0\libstdc++.a(functexcept.o)
                0x0000000068f69aa0                .refptr._ZNSt10bad_typeidD1Ev
 .rdata$.refptr._ZNSt11logic_errorD1Ev
                0x0000000068f69ab0       0x10 C:/mingw64/bin/../lib/gcc/x86_64-w64-mingw32/8.1.0\libstdc++.a(functexcept.o)
                0x0000000068f69ab0                .refptr._ZNSt11logic_errorD1Ev
 .rdata$.refptr._ZNSt11range_errorD1Ev
                0x0000000068f69ac0       0x10 C:/mingw64/bin/../lib/gcc/x86_64-w64-mingw32/8.1.0\libstdc++.a(functexcept.o)
                0x0000000068f69ac0                .refptr._ZNSt11range_errorD1Ev
 .rdata$.refptr._ZNSt12domain_errorD1Ev
                0x0000000068f69ad0       0x10 C:/mingw64/bin/../lib/gcc/x86_64-w64-mingw32/8.1.0\libstdc++.a(functexcept.o)
                0x0000000068f69ad0                .refptr._ZNSt12domain_errorD1Ev
 .rdata$.refptr._ZNSt12length_errorD1Ev
                0x0000000068f69ae0       0x10 C:/mingw64/bin/../lib/gcc/x86_64-w64-mingw32/8.1.0\libstdc++.a(functexcept.o)
                0x0000000068f69ae0                .refptr._ZNSt12length_errorD1Ev
 .rdata$.refptr._ZNSt12out_of_rangeD1Ev
                0x0000000068f69af0       0x10 C:/mingw64/bin/../lib/gcc/x86_64-w64-mingw32/8.1.0\libstdc++.a(functexcept.o)
                0x0000000068f69af0                .refptr._ZNSt12out_of_rangeD1Ev
 .rdata$.refptr._ZNSt13bad_exceptionD1Ev
                0x0000000068f69b00       0x10 C:/mingw64/bin/../lib/gcc/x86_64-w64-mingw32/8.1.0\libstdc++.a(eh_personality.o)
                0x0000000068f69b00                .refptr._ZNSt13bad_exceptionD1Ev
 .rdata$.refptr._ZNSt13runtime_errorD1Ev
                0x0000000068f69b10       0x10 Common__CtrlCmdUtil.cpp.obj
                0x0000000068f69b10                .refptr._ZNSt13runtime_errorD1Ev
 .rdata$.refptr._ZNSt14overflow_errorD1Ev
                0x0000000068f69b20       0x10 C:/mingw64/bin/../lib/gcc/x86_64-w64-mingw32/8.1.0\libstdc++.a(functexcept.o)
                0x0000000068f69b20                .refptr._ZNSt14overflow_errorD1Ev
 .rdata$.refptr._ZNSt15underflow_errorD1Ev
                0x0000000068f69b30       0x10 C:/mingw64/bin/../lib/gcc/x86_64-w64-mingw32/8.1.0\libstdc++.a(functexcept.o)
                0x0000000068f69b30                .refptr._ZNSt15underflow_errorD1Ev
 .rdata$.refptr._ZNSt16invalid_argumentD1Ev
                0x0000000068f69b40       0x10 C:/mingw64/bin/../lib/gcc/x86_64-w64-mingw32/8.1.0\libstdc++.a(functexcept.o)
                0x0000000068f69b40                .refptr._ZNSt16invalid_argumentD1Ev
 .rdata$.refptr._ZNSt8bad_castD1Ev
                0x0000000068f69b50       0x10 C:/mingw64/bin/../lib/gcc/x86_64-w64-mingw32/8.1.0\libstdc++.a(functexcept.o)
                0x0000000068f69b50                .refptr._ZNSt8bad_castD1Ev
 .rdata$.refptr._ZNSt9bad_allocD1Ev
                0x0000000068f69b60       0x10 C:/mingw64/bin/../lib/gcc/x86_64-w64-mingw32/8.1.0\libstdc++.a(new_op.o)
                0x0000000068f69b60                .refptr._ZNSt9bad_allocD1Ev
 .rdata$.refptr._ZTVSt10bad_typeid
                0x0000000068f69b70       0x10 C:/mingw64/bin/../lib/gcc/x86_64-w64-mingw32/8.1.0\libstdc++.a(functexcept.o)
                0x0000000068f69b70                .refptr._ZTVSt10bad_typeid
 .rdata$.refptr._ZTVSt11logic_error
                0x0000000068f69b80       0x10 C:/mingw64/bin/../lib/gcc/x86_64-w64-mingw32/8.1.0\libstdc++.a(cow-stdexcept.o)
                0x0000000068f69b80                .refptr._ZTVSt11logic_error
 .rdata$.refptr._ZTVSt11range_error
                0x0000000068f69b90       0x10 C:/mingw64/bin/../lib/gcc/x86_64-w64-mingw32/8.1.0\libstdc++.a(cow-stdexcept.o)
                0x0000000068f69b90                .refptr._ZTVSt11range_error
 .rdata$.refptr._ZTVSt12domain_error
                0x0000000068f69ba0       0x10 C:/mingw64/bin/../lib/gcc/x86_64-w64-mingw32/8.1.0\libstdc++.a(cow-stdexcept.o)
                0x0000000068f69ba0                .refptr._ZTVSt12domain_error
 .rdata$.refptr._ZTVSt12length_error
                0x0000000068f69bb0       0x10 C:/mingw64/bin/../lib/gcc/x86_64-w64-mingw32/8.1.0\libstdc++.a(cow-stdexcept.o)
                0x0000000068f69bb0                .refptr._ZTVSt12length_error
 .rdata$.refptr._ZTVSt12out_of_range
                0x0000000068f69bc0       0x10 C:/mingw64/bin/../lib/gcc/x86_64-w64-mingw32/8.1.0\libstdc++.a(cow-stdexcept.o)
                0x0000000068f69bc0                .refptr._ZTVSt12out_of_range
 .rdata$.refptr._ZTVSt13bad_exception
                0x0000000068f69bd0       0x10 C:/mingw64/bin/../lib/gcc/x86_64-w64-mingw32/8.1.0\libstdc++.a(eh_personality.o)
                0x0000000068f69bd0                .refptr._ZTVSt13bad_exception
 .rdata$.refptr._ZTVSt13runtime_error
                0x0000000068f69be0       0x10 C:/mingw64/bin/../lib/gcc/x86_64-w64-mingw32/8.1.0\libstdc++.a(cow-stdexcept.o)
                0x0000000068f69be0                .refptr._ZTVSt13runtime_error
 .rdata$.refptr._ZTVSt14overflow_error
                0x0000000068f69bf0       0x10 C:/mingw64/bin/../lib/gcc/x86_64-w64-mingw32/8.1.0\libstdc++.a(cow-stdexcept.o)
                0x0000000068f69bf0                .refptr._ZTVSt14overflow_error
 .rdata$.refptr._ZTVSt15underflow_error
                0x0000000068f69c00       0x10 C:/mingw64/bin/../lib/gcc/x86_64-w64-mingw32/8.1.0\libstdc++.a(cow-stdexcept.o)
                0x0000000068f69c00                .refptr._ZTVSt15underflow_error
 .rdata$.refptr._ZTVSt16invalid_argument
                0x0000000068f69c10       0x10 C:/mingw64/bin/../lib/gcc/x86_64-w64-mingw32/8.1.0\libstdc++.a(cow-stdexcept.o)
                0x0000000068f69c10                .refptr._ZTVSt16invalid_argument
 .rdata$.refptr._ZTVSt8bad_cast
                0x0000000068f69c20       0x10 C:/mingw64/bin/../lib/gcc/x86_64-w64-mingw32/8.1.0\libstdc++.a(functexcept.o)
                0x0000000068f69c20                .refptr._ZTVSt8bad_cast
 .rdata$.refptr._ZTVSt9bad_alloc
                0x0000000068f69c30       0x10 C:/mingw64/bin/../lib/gcc/x86_64-w64-mingw32/8.1.0\libstdc++.a(new_op.o)
                0x0000000068f69c30                .refptr._ZTVSt9bad_alloc
 .rdata$.refptr.__CTOR_LIST__
                0x0000000068f69c40       0x10 C:/mingw64/bin/../lib/gcc/x86_64-w64-mingw32/8.1.0/../../../../x86_64-w64-mingw32/lib/../lib/libmingw32.a(lib64_libmingw32_a-gccmain.o)
                0x0000000068f69c40                .refptr.__CTOR_LIST__
 .rdata$.refptr.__RUNTIME_PSEUDO_RELOC_LIST_END__
                0x0000000068f69c50       0x10 C:/mingw64/bin/../lib/gcc/x86_64-w64-mingw32/8.1.0/../../../../x86_64-w64-mingw32/lib/../lib/libmingw32.a(lib64_libmingw32_a-pseudo-reloc.o)
                0x0000000068f69c50                .refptr.__RUNTIME_PSEUDO_RELOC_LIST_END__
 .rdata$.refptr.__RUNTIME_PSEUDO_RELOC_LIST__
                0x0000000068f69c60       0x10 C:/mingw64/bin/../lib/gcc/x86_64-w64-mingw32/8.1.0/../../../../x86_64-w64-mingw32/lib/../lib/libmingw32.a(lib64_libmingw32_a-pseudo-reloc.o)
                0x0000000068f69c60                .refptr.__RUNTIME_PSEUDO_RELOC_LIST__
 .rdata$.refptr.__dyn_tls_init_callback
                0x0000000068f69c70       0x10 C:/mingw64/bin/../lib/gcc/x86_64-w64-mingw32/8.1.0/../../../../x86_64-w64-mingw32/lib/../lib/dllcrt2.o
                0x0000000068f69c70                .refptr.__dyn_tls_init_callback
 .rdata$.refptr.__image_base__
                0x0000000068f69c80       0x10 C:/mingw64/bin/../lib/gcc/x86_64-w64-mingw32/8.1.0/../../../../x86_64-w64-mingw32/lib/../lib/libmingw32.a(lib64_libmingw32_a-pseudo-reloc.o)
                0x0000000068f69c80                .refptr.__image_base__
 .rdata$.refptr.__native_dllmain_reason
                0x0000000068f69c90       0x10 C:/mingw64/bin/../lib/gcc/x86_64-w64-mingw32/8.1.0/../../../../x86_64-w64-mingw32/lib/../lib/dllcrt2.o
                0x0000000068f69c90                .refptr.__native_dllmain_reason
 .rdata$.refptr.__native_startup_lock
                0x0000000068f69ca0       0x10 C:/mingw64/bin/../lib/gcc/x86_64-w64-mingw32/8.1.0/../../../../x86_64-w64-mingw32/lib/../lib/dllcrt2.o
                0x0000000068f69ca0                .refptr.__native_startup_lock
 .rdata$.refptr.__native_startup_state
                0x0000000068f69cb0       0x10 C:/mingw64/bin/../lib/gcc/x86_64-w64-mingw32/8.1.0/../../../../x86_64-w64-mingw32/lib/../lib/dllcrt2.o
                0x0000000068f69cb0                .refptr.__native_startup_state
 .rdata$.refptr.__xc_a
                0x0000000068f69cc0       0x10 C:/mingw64/bin/../lib/gcc/x86_64-w64-mingw32/8.1.0/../../../../x86_64-w64-mingw32/lib/../lib/dllcrt2.o
                0x0000000068f69cc0                .refptr.__xc_a
 .rdata$.refptr.__xc_z
                0x0000000068f69cd0       0x10 C:/mingw64/bin/../lib/gcc/x86_64-w64-mingw32/8.1.0/../../../../x86_64-w64-mingw32/lib/../lib/dllcrt2.o
                0x0000000068f69cd0                .refptr.__xc_z
 .rdata$.refptr.__xi_a
                0x0000000068f69ce0       0x10 C:/mingw64/bin/../lib/gcc/x86_64-w64-mingw32/8.1.0/../../../../x86_64-w64-mingw32/lib/../lib/dllcrt2.o
                0x0000000068f69ce0                .refptr.__xi_a
 .rdata$.refptr.__xi_z
                0x0000000068f69cf0       0x10 C:/mingw64/bin/../lib/gcc/x86_64-w64-mingw32/8.1.0/../../../../x86_64-w64-mingw32/lib/../lib/dllcrt2.o
                0x0000000068f69cf0                .refptr.__xi_z
 .rdata$.refptr.mingw_app_type
                0x0000000068f69d00       0x10 C:/mingw64/bin/../lib/gcc/x86_64-w64-mingw32/8.1.0/../../../../x86_64-w64-mingw32/lib/../lib/dllcrt2.o
                0x0000000068f69d00                .refptr.mingw_app_type
 .rdata$_ZNSs4_Rep11_S_max_sizeE
                0x0000000068f69d10       0x10 C:/mingw64/bin/../lib/gcc/x86_64-w64-mingw32/8.1.0\libstdc++.a(cow-string-inst.o)
                0x0000000068f69d10                std::string::_Rep::_S_max_size
 .rdata$_ZNSs4_Rep11_S_terminalE
                0x0000000068f69d20       0x10 C:/mingw64/bin/../lib/gcc/x86_64-w64-mingw32/8.1.0\libstdc++.a(cow-string-inst.o)
                0x0000000068f69d20                std::string::_Rep::_S_terminal
 .rdata$_ZNSs4nposE
                0x0000000068f69d30       0x10 C:/mingw64/bin/../lib/gcc/x86_64-w64-mingw32/8.1.0\libstdc++.a(cow-string-inst.o)
                0x0000000068f69d30                std::string::npos
 .rdata$_ZNSt7__cxx1112basic_stringIcSt11char_traitsIcESaIcEE4nposE
                0x0000000068f69d40       0x10 C:/mingw64/bin/../lib/gcc/x86_64-w64-mingw32/8.1.0\libstdc++.a(string-inst.o)
                0x0000000068f69d40                std::__cxx11::basic_string<char, std::char_traits<char>, std::allocator<char> >::npos
 .rdata$_ZSt7nothrow
                0x0000000068f69d50       0x10 C:/mingw64/bin/../lib/gcc/x86_64-w64-mingw32/8.1.0\libstdc++.a(new_handler.o)
                0x0000000068f69d50                std::nothrow
 .rdata$_ZTI15CEpgTimerPlugIn
                0x0000000068f69d60       0x20 EpgTimerPlugIn.cpp.obj
                0x0000000068f69d60                typeinfo for CEpgTimerPlugIn
 .rdata$_ZTIN10__cxxabiv115__forced_unwindE
                0x0000000068f69d80       0x10 C:/mingw64/bin/../lib/gcc/x86_64-w64-mingw32/8.1.0\libstdc++.a(eh_exception.o)
                0x0000000068f69d80                typeinfo for __cxxabiv1::__forced_unwind
 .rdata$_ZTIN10__cxxabiv117__class_type_infoE
                0x0000000068f69d90       0x20 C:/mingw64/bin/../lib/gcc/x86_64-w64-mingw32/8.1.0\libstdc++.a(class_type_info.o)
                0x0000000068f69d90                typeinfo for __cxxabiv1::__class_type_info
 .rdata$_ZTIN10__cxxabiv119__foreign_exceptionE
                0x0000000068f69db0       0x10 C:/mingw64/bin/../lib/gcc/x86_64-w64-mingw32/8.1.0\libstdc++.a(eh_exception.o)
                0x0000000068f69db0                typeinfo for __cxxabiv1::__foreign_exception
 .rdata$_ZTIN10__cxxabiv120__si_class_type_infoE
                0x0000000068f69dc0       0x20 C:/mingw64/bin/../lib/gcc/x86_64-w64-mingw32/8.1.0\libstdc++.a(si_class_type_info.o)
                0x0000000068f69dc0                typeinfo for __cxxabiv1::__si_class_type_info
 .rdata$_ZTIN6TVTest10CTVTestAppE
                0x0000000068f69de0       0x10 EpgTimerPlugIn.cpp.obj
                0x0000000068f69de0                typeinfo for TVTest::CTVTestApp
 .rdata$_ZTIN6TVTest13CTVTestPluginE
                0x0000000068f69df0       0x10 EpgTimerPlugIn.cpp.obj
                0x0000000068f69df0                typeinfo for TVTest::CTVTestPlugin
 .rdata$_ZTIN9__gnu_cxx24__concurrence_lock_errorE
                0x0000000068f69e00       0x20 C:/mingw64/bin/../lib/gcc/x86_64-w64-mingw32/8.1.0\libstdc++.a(eh_alloc.o)
                0x0000000068f69e00                typeinfo for __gnu_cxx::__concurrence_lock_error
 .rdata$_ZTIN9__gnu_cxx26__concurrence_unlock_errorE
                0x0000000068f69e20       0x20 C:/mingw64/bin/../lib/gcc/x86_64-w64-mingw32/8.1.0\libstdc++.a(eh_alloc.o)
                0x0000000068f69e20                typeinfo for __gnu_cxx::__concurrence_unlock_error
 .rdata$_ZTISt10bad_typeid
                0x0000000068f69e40       0x20 C:/mingw64/bin/../lib/gcc/x86_64-w64-mingw32/8.1.0\libstdc++.a(functexcept.o)
                0x0000000068f69e40                typeinfo for std::bad_typeid
 .rdata$_ZTISt11logic_error
                0x0000000068f69e60       0x20 C:/mingw64/bin/../lib/gcc/x86_64-w64-mingw32/8.1.0\libstdc++.a(stdexcept.o)
                0x0000000068f69e60                typeinfo for std::logic_error
 .rdata$_ZTISt11range_error
                0x0000000068f69e80       0x20 C:/mingw64/bin/../lib/gcc/x86_64-w64-mingw32/8.1.0\libstdc++.a(stdexcept.o)
                0x0000000068f69e80                typeinfo for std::range_error
 .rdata$_ZTISt12domain_error
                0x0000000068f69ea0       0x20 C:/mingw64/bin/../lib/gcc/x86_64-w64-mingw32/8.1.0\libstdc++.a(stdexcept.o)
                0x0000000068f69ea0                typeinfo for std::domain_error
 .rdata$_ZTISt12length_error
                0x0000000068f69ec0       0x20 C:/mingw64/bin/../lib/gcc/x86_64-w64-mingw32/8.1.0\libstdc++.a(stdexcept.o)
                0x0000000068f69ec0                typeinfo for std::length_error
 .rdata$_ZTISt12out_of_range
                0x0000000068f69ee0       0x20 C:/mingw64/bin/../lib/gcc/x86_64-w64-mingw32/8.1.0\libstdc++.a(stdexcept.o)
                0x0000000068f69ee0                typeinfo for std::out_of_range
 .rdata$_ZTISt13bad_exception
                0x0000000068f69f00       0x20 C:/mingw64/bin/../lib/gcc/x86_64-w64-mingw32/8.1.0\libstdc++.a(eh_exception.o)
                0x0000000068f69f00                typeinfo for std::bad_exception
 .rdata$_ZTISt13runtime_error
                0x0000000068f69f20       0x20 Common__CtrlCmdUtil.cpp.obj
                0x0000000068f69f20                typeinfo for std::runtime_error
 .rdata$_ZTISt14overflow_error
                0x0000000068f69f40       0x20 C:/mingw64/bin/../lib/gcc/x86_64-w64-mingw32/8.1.0\libstdc++.a(stdexcept.o)
                0x0000000068f69f40                typeinfo for std::overflow_error
 .rdata$_ZTISt15underflow_error
                0x0000000068f69f60       0x20 C:/mingw64/bin/../lib/gcc/x86_64-w64-mingw32/8.1.0\libstdc++.a(stdexcept.o)
                0x0000000068f69f60                typeinfo for std::underflow_error
 .rdata$_ZTISt16invalid_argument
                0x0000000068f69f80       0x20 C:/mingw64/bin/../lib/gcc/x86_64-w64-mingw32/8.1.0\libstdc++.a(stdexcept.o)
                0x0000000068f69f80                typeinfo for std::invalid_argument
 .rdata$_ZTISt17bad_function_call
                0x0000000068f69fa0       0x20 C:/mingw64/bin/../lib/gcc/x86_64-w64-mingw32/8.1.0\libstdc++.a(functional.o)
                0x0000000068f69fa0                typeinfo for std::bad_function_call
 .rdata$_ZTISt8bad_cast
                0x0000000068f69fc0       0x20 C:/mingw64/bin/../lib/gcc/x86_64-w64-mingw32/8.1.0\libstdc++.a(functexcept.o)
                0x0000000068f69fc0                typeinfo for std::bad_cast
 .rdata$_ZTISt9bad_alloc
                0x0000000068f69fe0       0x20 C:/mingw64/bin/../lib/gcc/x86_64-w64-mingw32/8.1.0\libstdc++.a(new_op.o)
                0x0000000068f69fe0                typeinfo for std::bad_alloc
 .rdata$_ZTISt9exception
                0x0000000068f6a000       0x10 Common__CtrlCmdUtil.cpp.obj
                0x0000000068f6a000                typeinfo for std::exception
 .rdata$_ZTISt9type_info
                0x0000000068f6a010       0x10 C:/mingw64/bin/../lib/gcc/x86_64-w64-mingw32/8.1.0\libstdc++.a(class_type_info.o)
                0x0000000068f6a010                typeinfo for std::type_info
 .rdata$_ZTS15CEpgTimerPlugIn
                0x0000000068f6a020       0x20 EpgTimerPlugIn.cpp.obj
                0x0000000068f6a020                typeinfo name for CEpgTimerPlugIn
 .rdata$_ZTSN10__cxxabiv115__forced_unwindE
                0x0000000068f6a040       0x20 C:/mingw64/bin/../lib/gcc/x86_64-w64-mingw32/8.1.0\libstdc++.a(eh_exception.o)
                0x0000000068f6a040                typeinfo name for __cxxabiv1::__forced_unwind
 .rdata$_ZTSN10__cxxabiv117__class_type_infoE
                0x0000000068f6a060       0x40 C:/mingw64/bin/../lib/gcc/x86_64-w64-mingw32/8.1.0\libstdc++.a(class_type_info.o)
                0x0000000068f6a060                typeinfo name for __cxxabiv1::__class_type_info
 .rdata$_ZTSN10__cxxabiv119__foreign_exceptionE
                0x0000000068f6a0a0       0x40 C:/mingw64/bin/../lib/gcc/x86_64-w64-mingw32/8.1.0\libstdc++.a(eh_exception.o)
                0x0000000068f6a0a0                typeinfo name for __cxxabiv1::__foreign_exception
 .rdata$_ZTSN10__cxxabiv120__si_class_type_infoE
                0x0000000068f6a0e0       0x40 C:/mingw64/bin/../lib/gcc/x86_64-w64-mingw32/8.1.0\libstdc++.a(si_class_type_info.o)
                0x0000000068f6a0e0                typeinfo name for __cxxabiv1::__si_class_type_info
 .rdata$_ZTSN6TVTest10CTVTestAppE
                0x0000000068f6a120       0x20 EpgTimerPlugIn.cpp.obj
                0x0000000068f6a120                typeinfo name for TVTest::CTVTestApp
 .rdata$_ZTSN6TVTest13CTVTestPluginE
                0x0000000068f6a140       0x20 EpgTimerPlugIn.cpp.obj
                0x0000000068f6a140                typeinfo name for TVTest::CTVTestPlugin
 .rdata$_ZTSN9__gnu_cxx24__concurrence_lock_errorE
                0x0000000068f6a160       0x40 C:/mingw64/bin/../lib/gcc/x86_64-w64-mingw32/8.1.0\libstdc++.a(eh_alloc.o)
                0x0000000068f6a160                typeinfo name for __gnu_cxx::__concurrence_lock_error
 .rdata$_ZTSN9__gnu_cxx26__concurrence_unlock_errorE
                0x0000000068f6a1a0       0x40 C:/mingw64/bin/../lib/gcc/x86_64-w64-mingw32/8.1.0\libstdc++.a(eh_alloc.o)
                0x0000000068f6a1a0                typeinfo name for __gnu_cxx::__concurrence_unlock_error
 .rdata$_ZTSSt10bad_typeid
                0x0000000068f6a1e0       0x10 C:/mingw64/bin/../lib/gcc/x86_64-w64-mingw32/8.1.0\libstdc++.a(functexcept.o)
                0x0000000068f6a1e0                typeinfo name for std::bad_typeid
 .rdata$_ZTSSt11logic_error
                0x0000000068f6a1f0       0x10 C:/mingw64/bin/../lib/gcc/x86_64-w64-mingw32/8.1.0\libstdc++.a(stdexcept.o)
                0x0000000068f6a1f0                typeinfo name for std::logic_error
 .rdata$_ZTSSt11range_error
                0x0000000068f6a200       0x10 C:/mingw64/bin/../lib/gcc/x86_64-w64-mingw32/8.1.0\libstdc++.a(stdexcept.o)
                0x0000000068f6a200                typeinfo name for std::range_error
 .rdata$_ZTSSt12domain_error
                0x0000000068f6a210       0x20 C:/mingw64/bin/../lib/gcc/x86_64-w64-mingw32/8.1.0\libstdc++.a(stdexcept.o)
                0x0000000068f6a210                typeinfo name for std::domain_error
 .rdata$_ZTSSt12length_error
                0x0000000068f6a230       0x20 C:/mingw64/bin/../lib/gcc/x86_64-w64-mingw32/8.1.0\libstdc++.a(stdexcept.o)
                0x0000000068f6a230                typeinfo name for std::length_error
 .rdata$_ZTSSt12out_of_range
                0x0000000068f6a250       0x20 C:/mingw64/bin/../lib/gcc/x86_64-w64-mingw32/8.1.0\libstdc++.a(stdexcept.o)
                0x0000000068f6a250                typeinfo name for std::out_of_range
 .rdata$_ZTSSt13bad_exception
                0x0000000068f6a270       0x20 C:/mingw64/bin/../lib/gcc/x86_64-w64-mingw32/8.1.0\libstdc++.a(eh_exception.o)
                0x0000000068f6a270                typeinfo name for std::bad_exception
 .rdata$_ZTSSt13runtime_error
                0x0000000068f6a290       0x20 Common__CtrlCmdUtil.cpp.obj
                0x0000000068f6a290                typeinfo name for std::runtime_error
 .rdata$_ZTSSt14overflow_error
                0x0000000068f6a2b0       0x20 C:/mingw64/bin/../lib/gcc/x86_64-w64-mingw32/8.1.0\libstdc++.a(stdexcept.o)
                0x0000000068f6a2b0                typeinfo name for std::overflow_error
 .rdata$_ZTSSt15underflow_error
                0x0000000068f6a2d0       0x20 C:/mingw64/bin/../lib/gcc/x86_64-w64-mingw32/8.1.0\libstdc++.a(stdexcept.o)
                0x0000000068f6a2d0                typeinfo name for std::underflow_error
 .rdata$_ZTSSt16invalid_argument
                0x0000000068f6a2f0       0x20 C:/mingw64/bin/../lib/gcc/x86_64-w64-mingw32/8.1.0\libstdc++.a(stdexcept.o)
                0x0000000068f6a2f0                typeinfo name for std::invalid_argument
 .rdata$_ZTSSt17bad_function_call
                0x0000000068f6a310       0x20 C:/mingw64/bin/../lib/gcc/x86_64-w64-mingw32/8.1.0\libstdc++.a(functional.o)
                0x0000000068f6a310                typeinfo name for std::bad_function_call
 .rdata$_ZTSSt8bad_cast
                0x0000000068f6a330       0x10 C:/mingw64/bin/../lib/gcc/x86_64-w64-mingw32/8.1.0\libstdc++.a(functexcept.o)
                0x0000000068f6a330                typeinfo name for std::bad_cast
 .rdata$_ZTSSt9bad_alloc
                0x0000000068f6a340       0x10 C:/mingw64/bin/../lib/gcc/x86_64-w64-mingw32/8.1.0\libstdc++.a(new_op.o)
                0x0000000068f6a340                typeinfo name for std::bad_alloc
 .rdata$_ZTSSt9exception
                0x0000000068f6a350       0x10 Common__CtrlCmdUtil.cpp.obj
                0x0000000068f6a350                typeinfo name for std::exception
 .rdata$_ZTSSt9type_info
                0x0000000068f6a360       0x10 C:/mingw64/bin/../lib/gcc/x86_64-w64-mingw32/8.1.0\libstdc++.a(class_type_info.o)
                0x0000000068f6a360                typeinfo name for std::type_info
 .rdata$_ZTV15CEpgTimerPlugIn
                0x0000000068f6a370       0x40 EpgTimerPlugIn.cpp.obj
                0x0000000068f6a370                vtable for CEpgTimerPlugIn
 .rdata$_ZTVN10__cxxabiv115__forced_unwindE
                0x0000000068f6a3b0       0x30 C:/mingw64/bin/../lib/gcc/x86_64-w64-mingw32/8.1.0\libstdc++.a(eh_exception.o)
                0x0000000068f6a3b0                vtable for __cxxabiv1::__forced_unwind
 .rdata$_ZTVN10__cxxabiv117__class_type_infoE
                0x0000000068f6a3e0       0x60 C:/mingw64/bin/../lib/gcc/x86_64-w64-mingw32/8.1.0\libstdc++.a(class_type_info.o)
                0x0000000068f6a3e0                vtable for __cxxabiv1::__class_type_info
 .rdata$_ZTVN10__cxxabiv119__foreign_exceptionE
                0x0000000068f6a440       0x30 C:/mingw64/bin/../lib/gcc/x86_64-w64-mingw32/8.1.0\libstdc++.a(eh_exception.o)
                0x0000000068f6a440                vtable for __cxxabiv1::__foreign_exception
 .rdata$_ZTVN10__cxxabiv120__si_class_type_infoE
                0x0000000068f6a470       0x60 C:/mingw64/bin/../lib/gcc/x86_64-w64-mingw32/8.1.0\libstdc++.a(si_class_type_info.o)
                0x0000000068f6a470                vtable for __cxxabiv1::__si_class_type_info
 .rdata$_ZTVN6TVTest10CTVTestAppE
                0x0000000068f6a4d0       0x20 EpgTimerPlugIn.cpp.obj
                0x0000000068f6a4d0                vtable for TVTest::CTVTestApp
 .rdata$_ZTVN6TVTest13CTVTestPluginE
                0x0000000068f6a4f0       0x40 EpgTimerPlugIn.cpp.obj
                0x0000000068f6a4f0                vtable for TVTest::CTVTestPlugin
 .rdata$_ZTVN9__gnu_cxx24__concurrence_lock_errorE
                0x0000000068f6a530       0x30 C:/mingw64/bin/../lib/gcc/x86_64-w64-mingw32/8.1.0\libstdc++.a(eh_alloc.o)
                0x0000000068f6a530                vtable for __gnu_cxx::__concurrence_lock_error
 .rdata$_ZTVN9__gnu_cxx26__concurrence_unlock_errorE
                0x0000000068f6a560       0x30 C:/mingw64/bin/../lib/gcc/x86_64-w64-mingw32/8.1.0\libstdc++.a(eh_alloc.o)
                0x0000000068f6a560                vtable for __gnu_cxx::__concurrence_unlock_error
 .rdata$_ZTVSt10bad_typeid
                0x0000000068f6a590       0x30 C:/mingw64/bin/../lib/gcc/x86_64-w64-mingw32/8.1.0\libstdc++.a(bad_typeid.o)
                0x0000000068f6a590                vtable for std::bad_typeid
 .rdata$_ZTVSt11logic_error
                0x0000000068f6a5c0       0x30 C:/mingw64/bin/../lib/gcc/x86_64-w64-mingw32/8.1.0\libstdc++.a(stdexcept.o)
                0x0000000068f6a5c0                vtable for std::logic_error
 .rdata$_ZTVSt11range_error
                0x0000000068f6a5f0       0x30 C:/mingw64/bin/../lib/gcc/x86_64-w64-mingw32/8.1.0\libstdc++.a(stdexcept.o)
                0x0000000068f6a5f0                vtable for std::range_error
 .rdata$_ZTVSt12domain_error
                0x0000000068f6a620       0x30 C:/mingw64/bin/../lib/gcc/x86_64-w64-mingw32/8.1.0\libstdc++.a(stdexcept.o)
                0x0000000068f6a620                vtable for std::domain_error
 .rdata$_ZTVSt12length_error
                0x0000000068f6a650       0x30 C:/mingw64/bin/../lib/gcc/x86_64-w64-mingw32/8.1.0\libstdc++.a(stdexcept.o)
                0x0000000068f6a650                vtable for std::length_error
 .rdata$_ZTVSt12out_of_range
                0x0000000068f6a680       0x30 C:/mingw64/bin/../lib/gcc/x86_64-w64-mingw32/8.1.0\libstdc++.a(stdexcept.o)
                0x0000000068f6a680                vtable for std::out_of_range
 .rdata$_ZTVSt13bad_exception
                0x0000000068f6a6b0       0x30 C:/mingw64/bin/../lib/gcc/x86_64-w64-mingw32/8.1.0\libstdc++.a(eh_exception.o)
                0x0000000068f6a6b0                vtable for std::bad_exception
 .rdata$_ZTVSt13runtime_error
                0x0000000068f6a6e0       0x30 C:/mingw64/bin/../lib/gcc/x86_64-w64-mingw32/8.1.0\libstdc++.a(stdexcept.o)
                0x0000000068f6a6e0                vtable for std::runtime_error
 .rdata$_ZTVSt14overflow_error
                0x0000000068f6a710       0x30 C:/mingw64/bin/../lib/gcc/x86_64-w64-mingw32/8.1.0\libstdc++.a(stdexcept.o)
                0x0000000068f6a710                vtable for std::overflow_error
 .rdata$_ZTVSt15underflow_error
                0x0000000068f6a740       0x30 C:/mingw64/bin/../lib/gcc/x86_64-w64-mingw32/8.1.0\libstdc++.a(stdexcept.o)
                0x0000000068f6a740                vtable for std::underflow_error
 .rdata$_ZTVSt16invalid_argument
                0x0000000068f6a770       0x30 C:/mingw64/bin/../lib/gcc/x86_64-w64-mingw32/8.1.0\libstdc++.a(stdexcept.o)
                0x0000000068f6a770                vtable for std::invalid_argument
 .rdata$_ZTVSt17bad_function_call
                0x0000000068f6a7a0       0x30 C:/mingw64/bin/../lib/gcc/x86_64-w64-mingw32/8.1.0\libstdc++.a(functional.o)
                0x0000000068f6a7a0                vtable for std::bad_function_call
 .rdata$_ZTVSt8bad_cast
                0x0000000068f6a7d0       0x30 C:/mingw64/bin/../lib/gcc/x86_64-w64-mingw32/8.1.0\libstdc++.a(bad_cast.o)
                0x0000000068f6a7d0                vtable for std::bad_cast
 .rdata$_ZTVSt9bad_alloc
                0x0000000068f6a800       0x30 C:/mingw64/bin/../lib/gcc/x86_64-w64-mingw32/8.1.0\libstdc++.a(bad_alloc.o)
                0x0000000068f6a800                vtable for std::bad_alloc
 .rdata$_ZTVSt9exception
                0x0000000068f6a830       0x30 C:/mingw64/bin/../lib/gcc/x86_64-w64-mingw32/8.1.0\libstdc++.a(eh_exception.o)
                0x0000000068f6a830                vtable for std::exception
 .rdata$_ZTVSt9type_info
                0x0000000068f6a860       0x40 C:/mingw64/bin/../lib/gcc/x86_64-w64-mingw32/8.1.0\libstdc++.a(tinfo.o)
                0x0000000068f6a860                vtable for std::type_info
 .rdata$zzz     0x0000000068f6a8a0       0x40 Common__CtrlCmdUtil.cpp.obj
 .rdata$zzz     0x0000000068f6a8e0       0x40 Common__PathUtil.cpp.obj
 .rdata$zzz     0x0000000068f6a920       0x40 Common__PipeServer.cpp.obj
 .rdata$zzz     0x0000000068f6a960       0x40 Common__SendCtrlCmd.cpp.obj
 .rdata$zzz     0x0000000068f6a9a0       0x40 Common__StringUtil.cpp.obj
 .rdata$zzz     0x0000000068f6a9e0       0x40 EpgTimerPlugIn.cpp.obj
 .rdata$zzz     0x0000000068f6aa20       0x40 stdafx.cpp.obj
 .rdata$zzz     0x0000000068f6aa60       0x40 StreamCtrlDlg.cpp.obj
                0x0000000068f6aaa0                __rt_psrelocs_start = .
 *(.rdata_runtime_pseudo_reloc)
                0x0000000068f6aaa0                __rt_psrelocs_end = .
                0x0000000000000000                __rt_psrelocs_size = (__rt_psrelocs_end - __rt_psrelocs_start)
                0x0000000068f6aaa0                ___RUNTIME_PSEUDO_RELOC_LIST_END__ = .
                0x0000000068f6aaa0                __RUNTIME_PSEUDO_RELOC_LIST_END__ = .
                0x0000000068f6aaa0                ___RUNTIME_PSEUDO_RELOC_LIST__ = (. - __rt_psrelocs_size)
                0x0000000068f6aaa0                __RUNTIME_PSEUDO_RELOC_LIST__ = (. - __rt_psrelocs_size)

.eh_frame
 *(.eh_frame*)

.pdata          0x0000000068f6b000     0x3000
 *(.pdata*)
 .pdata         0x0000000068f6b000       0x3c C:/mingw64/bin/../lib/gcc/x86_64-w64-mingw32/8.1.0/../../../../x86_64-w64-mingw32/lib/../lib/dllcrt2.o
 .pdata         0x0000000068f6b03c       0x18 C:/mingw64/bin/../lib/gcc/x86_64-w64-mingw32/8.1.0/crtbegin.o
 .pdata         0x0000000068f6b054      0x438 Common__CtrlCmdUtil.cpp.obj
 .pdata$_ZNSt7__cxx1112basic_stringIwSt11char_traitsIwESaIwEEC4EOS4_
                0x0000000068f6b48c        0xc Common__CtrlCmdUtil.cpp.obj
 .pdata$_ZN17REC_FILE_SET_INFOC4EOS_
                0x0000000068f6b498        0xc Common__CtrlCmdUtil.cpp.obj
 .pdata$_ZN21EPGDB_SEARCH_KEY_INFOC4EOS_
                0x0000000068f6b4a4        0xc Common__CtrlCmdUtil.cpp.obj
 .pdata$_ZN16EPGDB_EVENT_INFOC4EOS_
                0x0000000068f6b4b0        0xc Common__CtrlCmdUtil.cpp.obj
 .pdata$_ZNSt11char_traitsIwE7compareEPKwS2_y
                0x0000000068f6b4bc        0xc Common__CtrlCmdUtil.cpp.obj
 .pdata$_ZNSt11char_traitsIwE6lengthEPKw
                0x0000000068f6b4c8        0xc Common__CtrlCmdUtil.cpp.obj
 .pdata$_ZN16CtrlCmdUtilImpl_9ReadVALUEEtPPKhS1_P11_SYSTEMTIME
                0x0000000068f6b4d4        0xc Common__CtrlCmdUtil.cpp.obj
 .pdata$_ZN16CtrlCmdUtilImpl_24CCUTIL_WriteVectorVALUE_ItEEmtPhmRKSt6vectorIT_SaIS3_EE
                0x0000000068f6b4e0        0xc Common__CtrlCmdUtil.cpp.obj
 .pdata$_ZN16CtrlCmdUtilImpl_23CCUTIL_ReadVectorVALUE_ItEEbtPPKhS2_PSt6vectorIT_SaIS5_EE
                0x0000000068f6b4ec        0xc Common__CtrlCmdUtil.cpp.obj
 .pdata$_ZN16CtrlCmdUtilImpl_24CCUTIL_WriteVectorVALUE_I11EPG_CONTENTEEmtPhmRKSt6vectorIT_SaIS4_EE
                0x0000000068f6b4f8        0xc Common__CtrlCmdUtil.cpp.obj
 .pdata$_ZN16CtrlCmdUtilImpl_23CCUTIL_ReadVectorVALUE_I14EPG_EVENT_DATAEEbtPPKhS3_PSt6vectorIT_SaIS6_EE
                0x0000000068f6b504        0xc Common__CtrlCmdUtil.cpp.obj
 .pdata$_ZN16CtrlCmdUtilImpl_24CCUTIL_WriteVectorVALUE_I17REC_FILE_SET_INFOEEmtPhmRKSt6vectorIT_SaIS4_EE
                0x0000000068f6b510        0xc Common__CtrlCmdUtil.cpp.obj
 .pdata$_Z10swprintf_sILy32EEiRAT__wPKwz
                0x0000000068f6b51c        0xc Common__CtrlCmdUtil.cpp.obj
 .pdata$_ZNKSt7__cxx1112basic_stringIwSt11char_traitsIwESaIwEE7compareEyyPKw
                0x0000000068f6b528        0xc Common__CtrlCmdUtil.cpp.obj
 .pdata$_ZNSt7__cxx1112basic_stringIwSt11char_traitsIwESaIwEE10_M_disposeEv
                0x0000000068f6b534        0xc Common__CtrlCmdUtil.cpp.obj
 .pdata$_ZNSt6vectorINSt7__cxx1112basic_stringIwSt11char_traitsIwESaIwEEESaIS5_EE7reserveEy
                0x0000000068f6b540        0xc Common__CtrlCmdUtil.cpp.obj
 .pdata$_ZNSt6vectorI21EPGDB_SEARCH_KEY_INFOSaIS0_EE7reserveEy
                0x0000000068f6b54c        0xc Common__CtrlCmdUtil.cpp.obj
 .pdata$_ZNSt7__cxx1112basic_stringIwSt11char_traitsIwESaIwEE7_S_copyEPwPKwy
                0x0000000068f6b558        0xc Common__CtrlCmdUtil.cpp.obj
 .pdata$_ZNSt7__cxx1112basic_stringIwSt11char_traitsIwESaIwEEC4ERKS4_
                0x0000000068f6b564        0xc Common__CtrlCmdUtil.cpp.obj
 .pdata$_ZN17REC_FILE_SET_INFOC4ERKS_
                0x0000000068f6b570        0xc Common__CtrlCmdUtil.cpp.obj
 .pdata$_ZNSt7__cxx1112basic_stringIwSt11char_traitsIwESaIwEE9_M_mutateEyyPKwy
                0x0000000068f6b57c        0xc Common__CtrlCmdUtil.cpp.obj
 .pdata$_ZN16CtrlCmdUtilImpl_23CCUTIL_ReadVectorVALUE_INSt7__cxx1112basic_stringIwSt11char_traitsIwESaIwEEEEEbtPPKhS8_PSt6vectorIT_SaISB_EE
                0x0000000068f6b588        0xc Common__CtrlCmdUtil.cpp.obj
 .pdata$_ZNKSt6vectorI17REC_FILE_SET_INFOSaIS0_EE12_M_check_lenEyPKc
                0x0000000068f6b594        0xc Common__CtrlCmdUtil.cpp.obj
 .pdata$_ZNKSt6vectorI11EPG_CONTENTSaIS0_EE12_M_check_lenEyPKc
                0x0000000068f6b5a0        0xc Common__CtrlCmdUtil.cpp.obj
 .pdata$_ZNKSt6vectorI22EPGDB_SEARCH_DATE_INFOSaIS0_EE12_M_check_lenEyPKc
                0x0000000068f6b5ac        0xc Common__CtrlCmdUtil.cpp.obj
 .pdata$_ZNKSt6vectorIxSaIxEE12_M_check_lenEyPKc
                0x0000000068f6b5b8        0xc Common__CtrlCmdUtil.cpp.obj
 .pdata$_ZNSt7__cxx1112basic_stringIwSt11char_traitsIwESaIwEE7_S_moveEPwPKwy
                0x0000000068f6b5c4        0xc Common__CtrlCmdUtil.cpp.obj
 .pdata$_ZNSt7__cxx1112basic_stringIwSt11char_traitsIwESaIwEE10_M_replaceEyyPKwy
                0x0000000068f6b5d0        0xc Common__CtrlCmdUtil.cpp.obj
 .pdata$_ZNSt7__cxx1112basic_stringIwSt11char_traitsIwESaIwEEaSEPKw
                0x0000000068f6b5dc        0xc Common__CtrlCmdUtil.cpp.obj
 .pdata$_ZNSt12_Destroy_auxILb0EE9__destroyIP31EPGDB_AUDIO_COMPONENT_INFO_DATAEEvT_S4_
                0x0000000068f6b5e8        0xc Common__CtrlCmdUtil.cpp.obj
 .pdata$_ZNSt6vectorI16EPGDB_EVENT_INFOSaIS0_EE7reserveEy
                0x0000000068f6b5f4        0xc Common__CtrlCmdUtil.cpp.obj
 .pdata$_ZNSt12_Destroy_auxILb0EE9__destroyIP17REC_FILE_SET_INFOEEvT_S4_
                0x0000000068f6b600        0xc Common__CtrlCmdUtil.cpp.obj
 .pdata$_ZNSt6vectorI17REC_FILE_SET_INFOSaIS0_EE17_M_realloc_insertIJRKS0_EEEvN9__gnu_cxx17__normal_iteratorIPS0_S2_EEDpOT_
                0x0000000068f6b60c        0xc Common__CtrlCmdUtil.cpp.obj
 .pdata$_ZNSt6vectorI17REC_FILE_SET_INFOSaIS0_EE9push_backERKS0_
                0x0000000068f6b618        0xc Common__CtrlCmdUtil.cpp.obj
 .pdata$_ZNSt20__uninitialized_copyILb0EE13__uninit_copyISt13move_iteratorIP31EPGDB_AUDIO_COMPONENT_INFO_DATAES4_EET0_T_S7_S6_
                0x0000000068f6b624        0xc Common__CtrlCmdUtil.cpp.obj
 .pdata$_ZNSt27__uninitialized_default_n_1ILb0EE18__uninit_default_nIP31EPGDB_AUDIO_COMPONENT_INFO_DATAyEET_S4_T0_
                0x0000000068f6b630        0xc Common__CtrlCmdUtil.cpp.obj
 .pdata$_ZN16CtrlCmdUtilImpl_23CCUTIL_ReadVectorVALUE_I31EPGDB_AUDIO_COMPONENT_INFO_DATAEEbtPPKhS3_PSt6vectorIT_SaIS6_EE
                0x0000000068f6b63c        0xc Common__CtrlCmdUtil.cpp.obj
 .pdata$_ZNSt27__uninitialized_default_n_1ILb0EE18__uninit_default_nIP16EPGDB_EVENT_INFOyEET_S4_T0_
                0x0000000068f6b648        0xc Common__CtrlCmdUtil.cpp.obj
 .pdata$_ZNSt27__uninitialized_default_n_1ILb1EE18__uninit_default_nIP22EPGDB_SEARCH_DATE_INFOyEET_S4_T0_
                0x0000000068f6b654        0xc Common__CtrlCmdUtil.cpp.obj
 .pdata$_ZNSt27__uninitialized_default_n_1ILb0EE18__uninit_default_nIP21EPGDB_SEARCH_KEY_INFOyEET_S4_T0_
                0x0000000068f6b660        0xc Common__CtrlCmdUtil.cpp.obj
 .pdata$_ZNSt27__uninitialized_default_n_1ILb0EE18__uninit_default_nIP17REC_FILE_SET_INFOyEET_S4_T0_
                0x0000000068f6b66c        0xc Common__CtrlCmdUtil.cpp.obj
 .pdata$_ZN16CtrlCmdUtilImpl_23CCUTIL_ReadVectorVALUE_I17REC_FILE_SET_INFOEEbtPPKhS3_PSt6vectorIT_SaIS6_EE
                0x0000000068f6b678        0xc Common__CtrlCmdUtil.cpp.obj
 .pdata$_ZNSt11__copy_moveILb1ELb1ESt26random_access_iterator_tagE8__copy_mIxEEPT_PKS3_S6_S4_
                0x0000000068f6b684        0xc Common__CtrlCmdUtil.cpp.obj
 .pdata$_ZN16CtrlCmdUtilImpl_23CCUTIL_ReadVectorVALUE_IxEEbtPPKhS2_PSt6vectorIT_SaIS5_EE
                0x0000000068f6b690        0xc Common__CtrlCmdUtil.cpp.obj
 .pdata$_ZNSt6vectorIxSaIxEE9push_backERKx
                0x0000000068f6b69c        0xc Common__CtrlCmdUtil.cpp.obj
 .pdata$_ZNSt11__copy_moveILb1ELb1ESt26random_access_iterator_tagE8__copy_mI11EPG_CONTENTEEPT_PKS4_S7_S5_
                0x0000000068f6b6a8        0xc Common__CtrlCmdUtil.cpp.obj
 .pdata$_ZN16CtrlCmdUtilImpl_23CCUTIL_ReadVectorVALUE_I11EPG_CONTENTEEbtPPKhS3_PSt6vectorIT_SaIS6_EE
                0x0000000068f6b6b4        0xc Common__CtrlCmdUtil.cpp.obj
 .pdata$_ZN16CtrlCmdUtilImpl_23CCUTIL_ReadVectorVALUE_I16EPGDB_EVENT_INFOEEbtPPKhS3_PSt6vectorIT_SaIS6_EE
                0x0000000068f6b6c0        0xc Common__CtrlCmdUtil.cpp.obj
 .pdata$_ZNSt6vectorI11EPG_CONTENTSaIS0_EE9push_backERKS0_
                0x0000000068f6b6cc        0xc Common__CtrlCmdUtil.cpp.obj
 .pdata$_ZNSt11__copy_moveILb1ELb1ESt26random_access_iterator_tagE8__copy_mI22EPGDB_SEARCH_DATE_INFOEEPT_PKS4_S7_S5_
                0x0000000068f6b6d8        0xc Common__CtrlCmdUtil.cpp.obj
 .pdata$_ZN16CtrlCmdUtilImpl_23CCUTIL_ReadVectorVALUE_I22EPGDB_SEARCH_DATE_INFOEEbtPPKhS3_PSt6vectorIT_SaIS6_EE
                0x0000000068f6b6e4        0xc Common__CtrlCmdUtil.cpp.obj
 .pdata$_ZN16CtrlCmdUtilImpl_23CCUTIL_ReadVectorVALUE_I21EPGDB_SEARCH_KEY_INFOEEbtPPKhS3_PSt6vectorIT_SaIS6_EE
                0x0000000068f6b6f0        0xc Common__CtrlCmdUtil.cpp.obj
 .pdata$_ZNSt6vectorI22EPGDB_SEARCH_DATE_INFOSaIS0_EE9push_backERKS0_
                0x0000000068f6b6fc        0xc Common__CtrlCmdUtil.cpp.obj
 .pdata         0x0000000068f6b708      0x1bc Common__PathUtil.cpp.obj
 .pdata$_ZNSt11char_traitsIwE4findEPKwyRS1_
                0x0000000068f6b8c4        0xc Common__PathUtil.cpp.obj
 .pdata$_ZNKSt7__cxx1112basic_stringIwSt11char_traitsIwESaIwEE5rfindEwy
                0x0000000068f6b8d0        0xc Common__PathUtil.cpp.obj
 .pdata$_ZNKSt7__cxx1112basic_stringIwSt11char_traitsIwESaIwEE13find_first_ofEPKwy
                0x0000000068f6b8dc        0xc Common__PathUtil.cpp.obj
 .pdata$_ZNKSt7__cxx1112basic_stringIwSt11char_traitsIwESaIwEE17find_first_not_ofEwy
                0x0000000068f6b8e8        0xc Common__PathUtil.cpp.obj
 .pdata$_ZNSt7__cxx1112basic_stringIwSt11char_traitsIwESaIwEE13_M_set_lengthEy
                0x0000000068f6b8f4        0xc Common__PathUtil.cpp.obj
 .pdata$_ZNKSt7__cxx1112basic_stringIwSt11char_traitsIwESaIwEE8_M_checkEyPKc
                0x0000000068f6b900        0xc Common__PathUtil.cpp.obj
 .pdata$_ZNKSt7__cxx1112basic_stringIwSt11char_traitsIwESaIwEE7compareEPKw
                0x0000000068f6b90c        0xc Common__PathUtil.cpp.obj
 .pdata$_ZNSt7__cxx1112basic_stringIwSt11char_traitsIwESaIwEE5eraseEyy
                0x0000000068f6b918        0xc Common__PathUtil.cpp.obj
 .pdata$_ZNSt7__cxx1112basic_stringIwSt11char_traitsIwESaIwEE12_M_constructIPKwEEvT_S8_St20forward_iterator_tag
                0x0000000068f6b924        0xc Common__PathUtil.cpp.obj
 .pdata$_ZNSt7__cxx1112basic_stringIwSt11char_traitsIwESaIwEEC4ERKS4_yy
                0x0000000068f6b930        0xc Common__PathUtil.cpp.obj
 .pdata$_ZNSt7__cxx1112basic_stringIwSt11char_traitsIwESaIwEE12_M_constructIPwEEvT_S7_St20forward_iterator_tag
                0x0000000068f6b93c        0xc Common__PathUtil.cpp.obj
 .pdata$_ZNSt7__cxx1112basic_stringIwSt11char_traitsIwESaIwEEC4ERKS4_
                0x0000000068f6b948        0xc Common__PathUtil.cpp.obj
 .pdata$_ZNK11filesystem_4path13has_root_nameEv
                0x0000000068f6b954        0xc Common__PathUtil.cpp.obj
 .pdata$_ZNK11filesystem_4path18has_root_directoryEv
                0x0000000068f6b960        0xc Common__PathUtil.cpp.obj
 .pdata$_ZNK11filesystem_4path11is_absoluteEv
                0x0000000068f6b96c        0xc Common__PathUtil.cpp.obj
 .pdata$_ZNSt7__cxx1112basic_stringIwSt11char_traitsIwESaIwEE9push_backEw
                0x0000000068f6b978        0xc Common__PathUtil.cpp.obj
 .pdata$_ZNSt7__cxx1112basic_stringIwSt11char_traitsIwESaIwEE9_M_appendEPKwy
                0x0000000068f6b984        0xc Common__PathUtil.cpp.obj
 .pdata$_ZNSt7__cxx1112basic_stringIwSt11char_traitsIwESaIwEE6appendEPKw
                0x0000000068f6b990        0xc Common__PathUtil.cpp.obj
 .pdata         0x0000000068f6b99c       0x78 Common__PipeServer.cpp.obj
 .pdata$_ZZN7thread_C4IP11CPipeServerEEPFvT_ES3_EN2Th4funcEPv
                0x0000000068f6ba14        0xc Common__PipeServer.cpp.obj
 .pdata$_Z26AddDebugLogFormatNoNewlinePKwz
                0x0000000068f6ba20        0xc Common__PipeServer.cpp.obj
 .pdata$_ZNSt8functionIFvR10CCmdStreamS1_EEaSERKS3_
                0x0000000068f6ba2c        0xc Common__PipeServer.cpp.obj
 .pdata$_ZNKSt7__cxx1112basic_stringIwSt11char_traitsIwESaIwEE4findEPKwyy
                0x0000000068f6ba38        0xc Common__PipeServer.cpp.obj
 .pdata$_ZNKSt7__cxx1112basic_stringIwSt11char_traitsIwESaIwEE4findEPKwy
                0x0000000068f6ba44        0xc Common__PipeServer.cpp.obj
 .pdata$_ZStplIwSt11char_traitsIwESaIwEENSt7__cxx1112basic_stringIT_T0_T1_EEPKS5_RKS8_
                0x0000000068f6ba50        0xc Common__PipeServer.cpp.obj
 .pdata$_ZNSt7__cxx1112basic_stringIwSt11char_traitsIwESaIwEE7replaceEyyPKw
                0x0000000068f6ba5c        0xc Common__PipeServer.cpp.obj
 .pdata         0x0000000068f6ba68       0x90 Common__SendCtrlCmd.cpp.obj
 .pdata$_Z9sprintf_sILy16EEiRAT__cPKcz
                0x0000000068f6baf8        0xc Common__SendCtrlCmd.cpp.obj
 .pdata$_ZNSt7__cxx1112basic_stringIwSt11char_traitsIwESaIwEE6assignEPKw
                0x0000000068f6bb04        0xc Common__SendCtrlCmd.cpp.obj
 .pdata         0x0000000068f6bb10       0x84 Common__StringUtil.cpp.obj
 .pdata$_ZNSt6vectorIwSaIwEE17_M_default_appendEy
                0x0000000068f6bb94        0xc Common__StringUtil.cpp.obj
 .pdata$_ZNSt6vectorIwSaIwEE6resizeEy
                0x0000000068f6bba0        0xc Common__StringUtil.cpp.obj
 .pdata$_ZNSt6vectorIcSaIcEE17_M_default_appendEy
                0x0000000068f6bbac        0xc Common__StringUtil.cpp.obj
 .pdata$_ZNSt6vectorIcSaIcEE6resizeEy
                0x0000000068f6bbb8        0xc Common__StringUtil.cpp.obj
 .pdata$_ZNSt7__cxx1112basic_stringIwSt11char_traitsIwESaIwEE7replaceEyyPKwy
                0x0000000068f6bbc4        0xc Common__StringUtil.cpp.obj
 .pdata$_ZNSt7__cxx1112basic_stringIwSt11char_traitsIwESaIwEEC4ERKS4_yy
                0x0000000068f6bbd0        0xc Common__StringUtil.cpp.obj
 .pdata$_ZNSt7__cxx1112basic_stringIwSt11char_traitsIwESaIwEE9_M_assignERKS4_
                0x0000000068f6bbdc        0xc Common__StringUtil.cpp.obj
 .pdata$_ZNSt7__cxx1112basic_stringIwSt11char_traitsIwESaIwEEaSEOS4_
                0x0000000068f6bbe8        0xc Common__StringUtil.cpp.obj
 .pdata$_ZNSt7__cxx1112basic_stringIcSt11char_traitsIcESaIcEE7_S_moveEPcPKcy
                0x0000000068f6bbf4        0xc Common__StringUtil.cpp.obj
 .pdata$_ZNSt7__cxx1112basic_stringIcSt11char_traitsIcESaIcEE7_S_copyEPcPKcy
                0x0000000068f6bc00        0xc Common__StringUtil.cpp.obj
 .pdata$_ZNSt7__cxx1112basic_stringIcSt11char_traitsIcESaIcEE9_M_mutateEyyPKcy
                0x0000000068f6bc0c        0xc Common__StringUtil.cpp.obj
 .pdata$_ZNSt7__cxx1112basic_stringIcSt11char_traitsIcESaIcEE10_M_replaceEyyPKcy
                0x0000000068f6bc18        0xc Common__StringUtil.cpp.obj
 .pdata$_ZN6TVTest10CTVTestAppD1Ev
                0x0000000068f6bc24        0xc EpgTimerPlugIn.cpp.obj
 .pdata$_ZN6TVTest13CTVTestPlugin10GetVersionEv
                0x0000000068f6bc30        0xc EpgTimerPlugIn.cpp.obj
 .pdata$_ZN6TVTest13CTVTestPlugin10InitializeEv
                0x0000000068f6bc3c        0xc EpgTimerPlugIn.cpp.obj
 .pdata$_ZN6TVTest13CTVTestPlugin8FinalizeEv
                0x0000000068f6bc48        0xc EpgTimerPlugIn.cpp.obj
 .pdata         0x0000000068f6bc54      0x108 EpgTimerPlugIn.cpp.obj
 .pdata$_ZN6TVTest10CTVTestAppD0Ev
                0x0000000068f6bd5c        0xc EpgTimerPlugIn.cpp.obj
 .pdata$_ZN6TVTest10CTVTestApp10SetChannelEiit
                0x0000000068f6bd68        0xc EpgTimerPlugIn.cpp.obj
 .pdata$_ZN6TVTest10CTVTestApp13SetDriverNameEPKw
                0x0000000068f6bd74        0xc EpgTimerPlugIn.cpp.obj
 .pdata$_ZN6TVTest13CTVTestPluginD4Ev
                0x0000000068f6bd80        0xc EpgTimerPlugIn.cpp.obj
 .pdata$_ZN10CCmdStreamaSEOS_
                0x0000000068f6bd8c        0xc EpgTimerPlugIn.cpp.obj
 .pdata$_ZSt4swapI10CCmdStreamENSt9enable_ifIXsrSt6__and_IJSt6__not_ISt15__is_tuple_likeIT_EESt21is_move_constructibleIS5_ESt18is_move_assignableIS5_EEE5valueEvE4typeERS5_SF_
                0x0000000068f6bd98        0xc EpgTimerPlugIn.cpp.obj
 .pdata$_ZN15CEpgTimerPlugInD4Ev
                0x0000000068f6bda4        0xc EpgTimerPlugIn.cpp.obj
 .pdata$_ZN15CEpgTimerPlugInD1Ev
                0x0000000068f6bdb0        0xc EpgTimerPlugIn.cpp.obj
 .pdata$_ZN15CEpgTimerPlugInD0Ev
                0x0000000068f6bdbc        0xc EpgTimerPlugIn.cpp.obj
 .pdata         0x0000000068f6bdc8       0x9c StreamCtrlDlg.cpp.obj
 .pdata$_ZN12CSendCtrlCmd11SendCmdDataImEEmmRKT_P10CCmdStream
                0x0000000068f6be64        0xc StreamCtrlDlg.cpp.obj
 .pdata$_ZN12CSendCtrlCmd15SendNwPlayStartEm
                0x0000000068f6be70        0xc StreamCtrlDlg.cpp.obj
 .pdata$_ZN12CSendCtrlCmd14SendNwPlayStopEm
                0x0000000068f6be7c        0xc StreamCtrlDlg.cpp.obj
 .pdata$_ZN12CSendCtrlCmd11SendCmdDataI14NWPLAY_POS_CMDEEmmRKT_P10CCmdStream
                0x0000000068f6be88        0xc StreamCtrlDlg.cpp.obj
 .pdata$_ZN12CSendCtrlCmd16SendNwPlayGetPosEP14NWPLAY_POS_CMD
                0x0000000068f6be94        0xc StreamCtrlDlg.cpp.obj
 .pdata$_ZN12CSendCtrlCmd21SendAndReceiveCmdDataI16NWPLAY_PLAY_INFOS1_EEmmRKT_PT0_
                0x0000000068f6bea0        0xc StreamCtrlDlg.cpp.obj
 .pdata$_ZNK10__cxxabiv117__class_type_info11__do_upcastEPKS0_PPv
                0x0000000068f6beac        0xc C:/mingw64/bin/../lib/gcc/x86_64-w64-mingw32/8.1.0\libstdc++.a(class_type_info.o)
 .pdata$_ZNK10__cxxabiv117__class_type_info20__do_find_public_srcExPKvPKS0_S2_
                0x0000000068f6beb8        0xc C:/mingw64/bin/../lib/gcc/x86_64-w64-mingw32/8.1.0\libstdc++.a(class_type_info.o)
 .pdata$_ZN10__cxxabiv117__class_type_infoD2Ev
                0x0000000068f6bec4        0xc C:/mingw64/bin/../lib/gcc/x86_64-w64-mingw32/8.1.0\libstdc++.a(class_type_info.o)
 .pdata$_ZN10__cxxabiv117__class_type_infoD0Ev
                0x0000000068f6bed0        0xc C:/mingw64/bin/../lib/gcc/x86_64-w64-mingw32/8.1.0\libstdc++.a(class_type_info.o)
 .pdata$_ZNK10__cxxabiv117__class_type_info12__do_dyncastExNS0_10__sub_kindEPKS0_PKvS3_S5_RNS0_16__dyncast_resultE
                0x0000000068f6bedc        0xc C:/mingw64/bin/../lib/gcc/x86_64-w64-mingw32/8.1.0\libstdc++.a(class_type_info.o)
 .pdata$_ZNK10__cxxabiv117__class_type_info11__do_upcastEPKS0_PKvRNS0_15__upcast_resultE
                0x0000000068f6bee8        0xc C:/mingw64/bin/../lib/gcc/x86_64-w64-mingw32/8.1.0\libstdc++.a(class_type_info.o)
 .pdata$_ZNK10__cxxabiv117__class_type_info10__do_catchEPKSt9type_infoPPvj
                0x0000000068f6bef4        0xc C:/mingw64/bin/../lib/gcc/x86_64-w64-mingw32/8.1.0\libstdc++.a(class_type_info.o)
 .pdata$_ZdlPv  0x0000000068f6bf00        0xc C:/mingw64/bin/../lib/gcc/x86_64-w64-mingw32/8.1.0\libstdc++.a(del_op.o)
 .pdata$_ZdlPvy
                0x0000000068f6bf0c        0xc C:/mingw64/bin/../lib/gcc/x86_64-w64-mingw32/8.1.0\libstdc++.a(del_ops.o)
 .pdata$_ZNK9__gnu_cxx24__concurrence_lock_error4whatEv
                0x0000000068f6bf18        0xc C:/mingw64/bin/../lib/gcc/x86_64-w64-mingw32/8.1.0\libstdc++.a(eh_alloc.o)
 .pdata$_ZNK9__gnu_cxx26__concurrence_unlock_error4whatEv
                0x0000000068f6bf24        0xc C:/mingw64/bin/../lib/gcc/x86_64-w64-mingw32/8.1.0\libstdc++.a(eh_alloc.o)
 .pdata$_ZN9__gnu_cxx24__concurrence_lock_errorD1Ev
                0x0000000068f6bf30        0xc C:/mingw64/bin/../lib/gcc/x86_64-w64-mingw32/8.1.0\libstdc++.a(eh_alloc.o)
 .pdata$_ZN9__gnu_cxx26__concurrence_unlock_errorD1Ev
                0x0000000068f6bf3c        0xc C:/mingw64/bin/../lib/gcc/x86_64-w64-mingw32/8.1.0\libstdc++.a(eh_alloc.o)
 .pdata$_ZN9__gnu_cxx24__concurrence_lock_errorD0Ev
                0x0000000068f6bf48        0xc C:/mingw64/bin/../lib/gcc/x86_64-w64-mingw32/8.1.0\libstdc++.a(eh_alloc.o)
 .pdata$_ZN9__gnu_cxx26__concurrence_unlock_errorD0Ev
                0x0000000068f6bf54        0xc C:/mingw64/bin/../lib/gcc/x86_64-w64-mingw32/8.1.0\libstdc++.a(eh_alloc.o)
 .pdata$__tcf_0
                0x0000000068f6bf60        0xc C:/mingw64/bin/../lib/gcc/x86_64-w64-mingw32/8.1.0\libstdc++.a(eh_alloc.o)
 .pdata$_ZN9__gnu_cxx30__throw_concurrence_lock_errorEv
                0x0000000068f6bf6c        0xc C:/mingw64/bin/../lib/gcc/x86_64-w64-mingw32/8.1.0\libstdc++.a(eh_alloc.o)
 .pdata$_ZN9__gnu_cxx32__throw_concurrence_unlock_errorEv
                0x0000000068f6bf78        0xc C:/mingw64/bin/../lib/gcc/x86_64-w64-mingw32/8.1.0\libstdc++.a(eh_alloc.o)
 .pdata$_ZN12_GLOBAL__N_14pool4freeEPv.constprop.2
                0x0000000068f6bf84        0xc C:/mingw64/bin/../lib/gcc/x86_64-w64-mingw32/8.1.0\libstdc++.a(eh_alloc.o)
 .pdata$_ZN12_GLOBAL__N_14pool8allocateEy.constprop.3
                0x0000000068f6bf90        0xc C:/mingw64/bin/../lib/gcc/x86_64-w64-mingw32/8.1.0\libstdc++.a(eh_alloc.o)
 .pdata$_ZN9__gnu_cxx9__freeresEv
                0x0000000068f6bf9c        0xc C:/mingw64/bin/../lib/gcc/x86_64-w64-mingw32/8.1.0\libstdc++.a(eh_alloc.o)
 .pdata$__cxa_allocate_exception
                0x0000000068f6bfa8        0xc C:/mingw64/bin/../lib/gcc/x86_64-w64-mingw32/8.1.0\libstdc++.a(eh_alloc.o)
 .pdata$__cxa_free_exception
                0x0000000068f6bfb4        0xc C:/mingw64/bin/../lib/gcc/x86_64-w64-mingw32/8.1.0\libstdc++.a(eh_alloc.o)
 .pdata$__cxa_allocate_dependent_exception
                0x0000000068f6bfc0        0xc C:/mingw64/bin/../lib/gcc/x86_64-w64-mingw32/8.1.0\libstdc++.a(eh_alloc.o)
 .pdata$__cxa_free_dependent_exception
                0x0000000068f6bfcc        0xc C:/mingw64/bin/../lib/gcc/x86_64-w64-mingw32/8.1.0\libstdc++.a(eh_alloc.o)
 .pdata.startup._GLOBAL__sub_I__ZN9__gnu_cxx9__freeresEv
                0x0000000068f6bfd8        0xc C:/mingw64/bin/../lib/gcc/x86_64-w64-mingw32/8.1.0\libstdc++.a(eh_alloc.o)
 .pdata$__cxa_get_exception_ptr
                0x0000000068f6bfe4        0xc C:/mingw64/bin/../lib/gcc/x86_64-w64-mingw32/8.1.0\libstdc++.a(eh_catch.o)
 .pdata$__cxa_begin_catch
                0x0000000068f6bff0        0xc C:/mingw64/bin/../lib/gcc/x86_64-w64-mingw32/8.1.0\libstdc++.a(eh_catch.o)
 .pdata$__cxa_end_catch
                0x0000000068f6bffc        0xc C:/mingw64/bin/../lib/gcc/x86_64-w64-mingw32/8.1.0\libstdc++.a(eh_catch.o)
 .pdata$_ZSt18uncaught_exceptionv
                0x0000000068f6c008        0xc C:/mingw64/bin/../lib/gcc/x86_64-w64-mingw32/8.1.0\libstdc++.a(eh_catch.o)
 .pdata$_ZSt19uncaught_exceptionsv
                0x0000000068f6c014        0xc C:/mingw64/bin/../lib/gcc/x86_64-w64-mingw32/8.1.0\libstdc++.a(eh_catch.o)
 .pdata$_ZNSt9exceptionD2Ev
                0x0000000068f6c020        0xc C:/mingw64/bin/../lib/gcc/x86_64-w64-mingw32/8.1.0\libstdc++.a(eh_exception.o)
 .pdata$_ZNSt13bad_exceptionD2Ev
                0x0000000068f6c02c        0xc C:/mingw64/bin/../lib/gcc/x86_64-w64-mingw32/8.1.0\libstdc++.a(eh_exception.o)
 .pdata$_ZNKSt9exception4whatEv
                0x0000000068f6c038        0xc C:/mingw64/bin/../lib/gcc/x86_64-w64-mingw32/8.1.0\libstdc++.a(eh_exception.o)
 .pdata$_ZNKSt13bad_exception4whatEv
                0x0000000068f6c044        0xc C:/mingw64/bin/../lib/gcc/x86_64-w64-mingw32/8.1.0\libstdc++.a(eh_exception.o)
 .pdata$_ZNSt9exceptionD0Ev
                0x0000000068f6c050        0xc C:/mingw64/bin/../lib/gcc/x86_64-w64-mingw32/8.1.0\libstdc++.a(eh_exception.o)
 .pdata$_ZNSt13bad_exceptionD0Ev
                0x0000000068f6c05c        0xc C:/mingw64/bin/../lib/gcc/x86_64-w64-mingw32/8.1.0\libstdc++.a(eh_exception.o)
 .pdata$_ZN10__cxxabiv115__forced_unwindD2Ev
                0x0000000068f6c068        0xc C:/mingw64/bin/../lib/gcc/x86_64-w64-mingw32/8.1.0\libstdc++.a(eh_exception.o)
 .pdata$_ZN10__cxxabiv115__forced_unwindD0Ev
                0x0000000068f6c074        0xc C:/mingw64/bin/../lib/gcc/x86_64-w64-mingw32/8.1.0\libstdc++.a(eh_exception.o)
 .pdata$_ZN10__cxxabiv119__foreign_exceptionD2Ev
                0x0000000068f6c080        0xc C:/mingw64/bin/../lib/gcc/x86_64-w64-mingw32/8.1.0\libstdc++.a(eh_exception.o)
 .pdata$_ZN10__cxxabiv119__foreign_exceptionD0Ev
                0x0000000068f6c08c        0xc C:/mingw64/bin/../lib/gcc/x86_64-w64-mingw32/8.1.0\libstdc++.a(eh_exception.o)
 .pdata$_ZGTtNKSt9exceptionD1Ev
                0x0000000068f6c098        0xc C:/mingw64/bin/../lib/gcc/x86_64-w64-mingw32/8.1.0\libstdc++.a(eh_exception.o)
 .pdata$_ZGTtNKSt13bad_exceptionD1Ev
                0x0000000068f6c0a4        0xc C:/mingw64/bin/../lib/gcc/x86_64-w64-mingw32/8.1.0\libstdc++.a(eh_exception.o)
 .pdata$__cxa_get_globals
                0x0000000068f6c0b0        0xc C:/mingw64/bin/../lib/gcc/x86_64-w64-mingw32/8.1.0\libstdc++.a(eh_globals.o)
 .pdata$__cxa_get_globals_fast
                0x0000000068f6c0bc        0xc C:/mingw64/bin/../lib/gcc/x86_64-w64-mingw32/8.1.0\libstdc++.a(eh_globals.o)
 .pdata$_ZL16get_adjusted_ptrPKSt9type_infoS1_PPv
                0x0000000068f6c0c8        0xc C:/mingw64/bin/../lib/gcc/x86_64-w64-mingw32/8.1.0\libstdc++.a(eh_personality.o)
 .pdata$_ZL21base_of_encoded_valuehP15_Unwind_Context
                0x0000000068f6c0d4        0xc C:/mingw64/bin/../lib/gcc/x86_64-w64-mingw32/8.1.0\libstdc++.a(eh_personality.o)
 .pdata$_ZL28read_encoded_value_with_basehyPKhPy
                0x0000000068f6c0e0        0xc C:/mingw64/bin/../lib/gcc/x86_64-w64-mingw32/8.1.0\libstdc++.a(eh_personality.o)
 .pdata$_ZL17parse_lsda_headerP15_Unwind_ContextPKhP16lsda_header_info
                0x0000000068f6c0ec        0xc C:/mingw64/bin/../lib/gcc/x86_64-w64-mingw32/8.1.0\libstdc++.a(eh_personality.o)
 .pdata$_ZL15get_ttype_entryP16lsda_header_infoy
                0x0000000068f6c0f8        0xc C:/mingw64/bin/../lib/gcc/x86_64-w64-mingw32/8.1.0\libstdc++.a(eh_personality.o)
 .pdata$_ZL20check_exception_specP16lsda_header_infoPKSt9type_infoPvx
                0x0000000068f6c104        0xc C:/mingw64/bin/../lib/gcc/x86_64-w64-mingw32/8.1.0\libstdc++.a(eh_personality.o)
 .pdata$_ZN10__cxxabiv1L21__gxx_personality_impEiiyP17_Unwind_ExceptionP15_Unwind_Context
                0x0000000068f6c110        0xc C:/mingw64/bin/../lib/gcc/x86_64-w64-mingw32/8.1.0\libstdc++.a(eh_personality.o)
 .pdata$__cxa_call_unexpected
                0x0000000068f6c11c        0xc C:/mingw64/bin/../lib/gcc/x86_64-w64-mingw32/8.1.0\libstdc++.a(eh_personality.o)
 .pdata$__gxx_personality_seh0
                0x0000000068f6c128        0xc C:/mingw64/bin/../lib/gcc/x86_64-w64-mingw32/8.1.0\libstdc++.a(eh_personality.o)
 .pdata$_ZN10__cxxabiv111__terminateEPFvvE
                0x0000000068f6c134        0xc C:/mingw64/bin/../lib/gcc/x86_64-w64-mingw32/8.1.0\libstdc++.a(eh_terminate.o)
 .pdata$_ZSt9terminatev
                0x0000000068f6c140        0xc C:/mingw64/bin/../lib/gcc/x86_64-w64-mingw32/8.1.0\libstdc++.a(eh_terminate.o)
 .pdata$_ZN10__cxxabiv112__unexpectedEPFvvE
                0x0000000068f6c14c        0xc C:/mingw64/bin/../lib/gcc/x86_64-w64-mingw32/8.1.0\libstdc++.a(eh_terminate.o)
 .pdata$_ZSt10unexpectedv
                0x0000000068f6c158        0xc C:/mingw64/bin/../lib/gcc/x86_64-w64-mingw32/8.1.0\libstdc++.a(eh_terminate.o)
 .pdata$_ZSt13set_terminatePFvvE
                0x0000000068f6c164        0xc C:/mingw64/bin/../lib/gcc/x86_64-w64-mingw32/8.1.0\libstdc++.a(eh_terminate.o)
 .pdata$_ZSt13get_terminatev
                0x0000000068f6c170        0xc C:/mingw64/bin/../lib/gcc/x86_64-w64-mingw32/8.1.0\libstdc++.a(eh_terminate.o)
 .pdata$_ZSt14set_unexpectedPFvvE
                0x0000000068f6c17c        0xc C:/mingw64/bin/../lib/gcc/x86_64-w64-mingw32/8.1.0\libstdc++.a(eh_terminate.o)
 .pdata$_ZSt14get_unexpectedv
                0x0000000068f6c188        0xc C:/mingw64/bin/../lib/gcc/x86_64-w64-mingw32/8.1.0\libstdc++.a(eh_terminate.o)
 .pdata$_ZL23__gxx_exception_cleanup19_Unwind_Reason_CodeP17_Unwind_Exception
                0x0000000068f6c194        0xc C:/mingw64/bin/../lib/gcc/x86_64-w64-mingw32/8.1.0\libstdc++.a(eh_throw.o)
 .pdata$__cxa_init_primary_exception
                0x0000000068f6c1a0        0xc C:/mingw64/bin/../lib/gcc/x86_64-w64-mingw32/8.1.0\libstdc++.a(eh_throw.o)
 .pdata$__cxa_throw
                0x0000000068f6c1ac        0xc C:/mingw64/bin/../lib/gcc/x86_64-w64-mingw32/8.1.0\libstdc++.a(eh_throw.o)
 .pdata$__cxa_rethrow
                0x0000000068f6c1b8        0xc C:/mingw64/bin/../lib/gcc/x86_64-w64-mingw32/8.1.0\libstdc++.a(eh_throw.o)
 .pdata$_Znwy   0x0000000068f6c1c4        0xc C:/mingw64/bin/../lib/gcc/x86_64-w64-mingw32/8.1.0\libstdc++.a(new_op.o)
 .pdata$__cxa_pure_virtual
                0x0000000068f6c1d0        0xc C:/mingw64/bin/../lib/gcc/x86_64-w64-mingw32/8.1.0\libstdc++.a(pure.o)
 .pdata$__cxa_deleted_virtual
                0x0000000068f6c1dc        0xc C:/mingw64/bin/../lib/gcc/x86_64-w64-mingw32/8.1.0\libstdc++.a(pure.o)
 .pdata$_ZN10__cxxabiv120__si_class_type_infoD2Ev
                0x0000000068f6c1e8        0xc C:/mingw64/bin/../lib/gcc/x86_64-w64-mingw32/8.1.0\libstdc++.a(si_class_type_info.o)
 .pdata$_ZN10__cxxabiv120__si_class_type_infoD0Ev
                0x0000000068f6c1f4        0xc C:/mingw64/bin/../lib/gcc/x86_64-w64-mingw32/8.1.0\libstdc++.a(si_class_type_info.o)
 .pdata$_ZNK10__cxxabiv120__si_class_type_info20__do_find_public_srcExPKvPKNS_17__class_type_infoES2_
                0x0000000068f6c200        0xc C:/mingw64/bin/../lib/gcc/x86_64-w64-mingw32/8.1.0\libstdc++.a(si_class_type_info.o)
 .pdata$_ZNK10__cxxabiv120__si_class_type_info12__do_dyncastExNS_17__class_type_info10__sub_kindEPKS1_PKvS4_S6_RNS1_16__dyncast_resultE
                0x0000000068f6c20c        0xc C:/mingw64/bin/../lib/gcc/x86_64-w64-mingw32/8.1.0\libstdc++.a(si_class_type_info.o)
 .pdata$_ZNK10__cxxabiv120__si_class_type_info11__do_upcastEPKNS_17__class_type_infoEPKvRNS1_15__upcast_resultE
                0x0000000068f6c218        0xc C:/mingw64/bin/../lib/gcc/x86_64-w64-mingw32/8.1.0\libstdc++.a(si_class_type_info.o)
 .pdata$_ZNSt9type_infoD2Ev
                0x0000000068f6c224        0xc C:/mingw64/bin/../lib/gcc/x86_64-w64-mingw32/8.1.0\libstdc++.a(tinfo.o)
 .pdata$_ZNKSt9type_info14__is_pointer_pEv
                0x0000000068f6c230        0xc C:/mingw64/bin/../lib/gcc/x86_64-w64-mingw32/8.1.0\libstdc++.a(tinfo.o)
 .pdata$_ZNKSt9type_info11__do_upcastEPKN10__cxxabiv117__class_type_infoEPPv
                0x0000000068f6c23c        0xc C:/mingw64/bin/../lib/gcc/x86_64-w64-mingw32/8.1.0\libstdc++.a(tinfo.o)
 .pdata$_ZNSt9type_infoD0Ev
                0x0000000068f6c248        0xc C:/mingw64/bin/../lib/gcc/x86_64-w64-mingw32/8.1.0\libstdc++.a(tinfo.o)
 .pdata$_ZNKSt9type_infoeqERKS_
                0x0000000068f6c254        0xc C:/mingw64/bin/../lib/gcc/x86_64-w64-mingw32/8.1.0\libstdc++.a(tinfo.o)
 .pdata$_ZNKSt9type_info10__do_catchEPKS_PPvj
                0x0000000068f6c260        0xc C:/mingw64/bin/../lib/gcc/x86_64-w64-mingw32/8.1.0\libstdc++.a(tinfo.o)
 .pdata$_ZN9__gnu_cxx27__verbose_terminate_handlerEv
                0x0000000068f6c26c        0xc C:/mingw64/bin/../lib/gcc/x86_64-w64-mingw32/8.1.0\libstdc++.a(vterminate.o)
 .pdata$_ZNKSt11logic_error4whatEv
                0x0000000068f6c278        0xc C:/mingw64/bin/../lib/gcc/x86_64-w64-mingw32/8.1.0\libstdc++.a(stdexcept.o)
 .pdata$_ZNKSt13runtime_error4whatEv
                0x0000000068f6c284        0xc C:/mingw64/bin/../lib/gcc/x86_64-w64-mingw32/8.1.0\libstdc++.a(stdexcept.o)
 .pdata$_ZNSt11logic_errorD2Ev
                0x0000000068f6c290        0xc C:/mingw64/bin/../lib/gcc/x86_64-w64-mingw32/8.1.0\libstdc++.a(stdexcept.o)
 .pdata$_ZNSt12domain_errorD2Ev
                0x0000000068f6c29c        0xc C:/mingw64/bin/../lib/gcc/x86_64-w64-mingw32/8.1.0\libstdc++.a(stdexcept.o)
 .pdata$_ZNSt16invalid_argumentD2Ev
                0x0000000068f6c2a8        0xc C:/mingw64/bin/../lib/gcc/x86_64-w64-mingw32/8.1.0\libstdc++.a(stdexcept.o)
 .pdata$_ZNSt12length_errorD2Ev
                0x0000000068f6c2b4        0xc C:/mingw64/bin/../lib/gcc/x86_64-w64-mingw32/8.1.0\libstdc++.a(stdexcept.o)
 .pdata$_ZNSt12out_of_rangeD2Ev
                0x0000000068f6c2c0        0xc C:/mingw64/bin/../lib/gcc/x86_64-w64-mingw32/8.1.0\libstdc++.a(stdexcept.o)
 .pdata$_ZNSt11logic_errorD0Ev
                0x0000000068f6c2cc        0xc C:/mingw64/bin/../lib/gcc/x86_64-w64-mingw32/8.1.0\libstdc++.a(stdexcept.o)
 .pdata$_ZNSt12domain_errorD0Ev
                0x0000000068f6c2d8        0xc C:/mingw64/bin/../lib/gcc/x86_64-w64-mingw32/8.1.0\libstdc++.a(stdexcept.o)
 .pdata$_ZNSt16invalid_argumentD0Ev
                0x0000000068f6c2e4        0xc C:/mingw64/bin/../lib/gcc/x86_64-w64-mingw32/8.1.0\libstdc++.a(stdexcept.o)
 .pdata$_ZNSt12length_errorD0Ev
                0x0000000068f6c2f0        0xc C:/mingw64/bin/../lib/gcc/x86_64-w64-mingw32/8.1.0\libstdc++.a(stdexcept.o)
 .pdata$_ZNSt12out_of_rangeD0Ev
                0x0000000068f6c2fc        0xc C:/mingw64/bin/../lib/gcc/x86_64-w64-mingw32/8.1.0\libstdc++.a(stdexcept.o)
 .pdata$_ZNSt13runtime_errorD2Ev
                0x0000000068f6c308        0xc C:/mingw64/bin/../lib/gcc/x86_64-w64-mingw32/8.1.0\libstdc++.a(stdexcept.o)
 .pdata$_ZNSt13runtime_errorD0Ev
                0x0000000068f6c314        0xc C:/mingw64/bin/../lib/gcc/x86_64-w64-mingw32/8.1.0\libstdc++.a(stdexcept.o)
 .pdata$_ZNSt11range_errorD2Ev
                0x0000000068f6c320        0xc C:/mingw64/bin/../lib/gcc/x86_64-w64-mingw32/8.1.0\libstdc++.a(stdexcept.o)
 .pdata$_ZNSt11range_errorD0Ev
                0x0000000068f6c32c        0xc C:/mingw64/bin/../lib/gcc/x86_64-w64-mingw32/8.1.0\libstdc++.a(stdexcept.o)
 .pdata$_ZNSt14overflow_errorD2Ev
                0x0000000068f6c338        0xc C:/mingw64/bin/../lib/gcc/x86_64-w64-mingw32/8.1.0\libstdc++.a(stdexcept.o)
 .pdata$_ZNSt14overflow_errorD0Ev
                0x0000000068f6c344        0xc C:/mingw64/bin/../lib/gcc/x86_64-w64-mingw32/8.1.0\libstdc++.a(stdexcept.o)
 .pdata$_ZNSt15underflow_errorD2Ev
                0x0000000068f6c350        0xc C:/mingw64/bin/../lib/gcc/x86_64-w64-mingw32/8.1.0\libstdc++.a(stdexcept.o)
 .pdata$_ZNSt15underflow_errorD0Ev
                0x0000000068f6c35c        0xc C:/mingw64/bin/../lib/gcc/x86_64-w64-mingw32/8.1.0\libstdc++.a(stdexcept.o)
 .pdata$_ZNSt11logic_errorC2ERKSs
                0x0000000068f6c368        0xc C:/mingw64/bin/../lib/gcc/x86_64-w64-mingw32/8.1.0\libstdc++.a(stdexcept.o)
 .pdata$_ZNSt12domain_errorC2ERKSs
                0x0000000068f6c374        0xc C:/mingw64/bin/../lib/gcc/x86_64-w64-mingw32/8.1.0\libstdc++.a(stdexcept.o)
 .pdata$_ZNSt16invalid_argumentC2ERKSs
                0x0000000068f6c380        0xc C:/mingw64/bin/../lib/gcc/x86_64-w64-mingw32/8.1.0\libstdc++.a(stdexcept.o)
 .pdata$_ZNSt12length_errorC2ERKSs
                0x0000000068f6c38c        0xc C:/mingw64/bin/../lib/gcc/x86_64-w64-mingw32/8.1.0\libstdc++.a(stdexcept.o)
 .pdata$_ZNSt12out_of_rangeC2ERKSs
                0x0000000068f6c398        0xc C:/mingw64/bin/../lib/gcc/x86_64-w64-mingw32/8.1.0\libstdc++.a(stdexcept.o)
 .pdata$_ZNSt13runtime_errorC2ERKSs
                0x0000000068f6c3a4        0xc C:/mingw64/bin/../lib/gcc/x86_64-w64-mingw32/8.1.0\libstdc++.a(stdexcept.o)
 .pdata$_ZNSt11range_errorC2ERKSs
                0x0000000068f6c3b0        0xc C:/mingw64/bin/../lib/gcc/x86_64-w64-mingw32/8.1.0\libstdc++.a(stdexcept.o)
 .pdata$_ZNSt14overflow_errorC2ERKSs
                0x0000000068f6c3bc        0xc C:/mingw64/bin/../lib/gcc/x86_64-w64-mingw32/8.1.0\libstdc++.a(stdexcept.o)
 .pdata$_ZNSt15underflow_errorC2ERKSs
                0x0000000068f6c3c8        0xc C:/mingw64/bin/../lib/gcc/x86_64-w64-mingw32/8.1.0\libstdc++.a(stdexcept.o)
 .pdata$_ZNSt11logic_errorC2ERKS_
                0x0000000068f6c3d4        0xc C:/mingw64/bin/../lib/gcc/x86_64-w64-mingw32/8.1.0\libstdc++.a(cow-stdexcept.o)
 .pdata$_ZNSt11logic_erroraSERKS_
                0x0000000068f6c3e0        0xc C:/mingw64/bin/../lib/gcc/x86_64-w64-mingw32/8.1.0\libstdc++.a(cow-stdexcept.o)
 .pdata$_ZNSt13runtime_errorC2ERKS_
                0x0000000068f6c3ec        0xc C:/mingw64/bin/../lib/gcc/x86_64-w64-mingw32/8.1.0\libstdc++.a(cow-stdexcept.o)
 .pdata$_ZNSt13runtime_erroraSERKS_
                0x0000000068f6c3f8        0xc C:/mingw64/bin/../lib/gcc/x86_64-w64-mingw32/8.1.0\libstdc++.a(cow-stdexcept.o)
 .pdata$_ZNSt11logic_errorC2EPKc
                0x0000000068f6c404        0xc C:/mingw64/bin/../lib/gcc/x86_64-w64-mingw32/8.1.0\libstdc++.a(cow-stdexcept.o)
 .pdata$_ZNSt12domain_errorC2EPKc
                0x0000000068f6c410        0xc C:/mingw64/bin/../lib/gcc/x86_64-w64-mingw32/8.1.0\libstdc++.a(cow-stdexcept.o)
 .pdata$_ZNSt16invalid_argumentC2EPKc
                0x0000000068f6c41c        0xc C:/mingw64/bin/../lib/gcc/x86_64-w64-mingw32/8.1.0\libstdc++.a(cow-stdexcept.o)
 .pdata$_ZNSt12length_errorC2EPKc
                0x0000000068f6c428        0xc C:/mingw64/bin/../lib/gcc/x86_64-w64-mingw32/8.1.0\libstdc++.a(cow-stdexcept.o)
 .pdata$_ZNSt12out_of_rangeC2EPKc
                0x0000000068f6c434        0xc C:/mingw64/bin/../lib/gcc/x86_64-w64-mingw32/8.1.0\libstdc++.a(cow-stdexcept.o)
 .pdata$_ZNSt13runtime_errorC2EPKc
                0x0000000068f6c440        0xc C:/mingw64/bin/../lib/gcc/x86_64-w64-mingw32/8.1.0\libstdc++.a(cow-stdexcept.o)
 .pdata$_ZNSt11range_errorC2EPKc
                0x0000000068f6c44c        0xc C:/mingw64/bin/../lib/gcc/x86_64-w64-mingw32/8.1.0\libstdc++.a(cow-stdexcept.o)
 .pdata$_ZNSt14overflow_errorC2EPKc
                0x0000000068f6c458        0xc C:/mingw64/bin/../lib/gcc/x86_64-w64-mingw32/8.1.0\libstdc++.a(cow-stdexcept.o)
 .pdata$_ZNSt15underflow_errorC2EPKc
                0x0000000068f6c464        0xc C:/mingw64/bin/../lib/gcc/x86_64-w64-mingw32/8.1.0\libstdc++.a(cow-stdexcept.o)
 .pdata$_ZNSt12__sso_stringC2ERKSs
                0x0000000068f6c470        0xc C:/mingw64/bin/../lib/gcc/x86_64-w64-mingw32/8.1.0\libstdc++.a(cow-stdexcept.o)
 .pdata$_ZNSt12__cow_stringC2Ev
                0x0000000068f6c47c        0xc C:/mingw64/bin/../lib/gcc/x86_64-w64-mingw32/8.1.0\libstdc++.a(cow-stdexcept.o)
 .pdata$_ZNSt12__cow_stringC2ERKSs
                0x0000000068f6c488        0xc C:/mingw64/bin/../lib/gcc/x86_64-w64-mingw32/8.1.0\libstdc++.a(cow-stdexcept.o)
 .pdata$_ZNSt12__cow_stringC2EPKcy
                0x0000000068f6c494        0xc C:/mingw64/bin/../lib/gcc/x86_64-w64-mingw32/8.1.0\libstdc++.a(cow-stdexcept.o)
 .pdata$_ZNSt12__cow_stringC2ERKS_
                0x0000000068f6c4a0        0xc C:/mingw64/bin/../lib/gcc/x86_64-w64-mingw32/8.1.0\libstdc++.a(cow-stdexcept.o)
 .pdata$_ZNSt12__cow_stringaSERKS_
                0x0000000068f6c4ac        0xc C:/mingw64/bin/../lib/gcc/x86_64-w64-mingw32/8.1.0\libstdc++.a(cow-stdexcept.o)
 .pdata$_ZNSt12__cow_stringD2Ev
                0x0000000068f6c4b8        0xc C:/mingw64/bin/../lib/gcc/x86_64-w64-mingw32/8.1.0\libstdc++.a(cow-stdexcept.o)
 .pdata$_ZNSt12__cow_stringC2EOS_
                0x0000000068f6c4c4        0xc C:/mingw64/bin/../lib/gcc/x86_64-w64-mingw32/8.1.0\libstdc++.a(cow-stdexcept.o)
 .pdata$_ZNSt12__cow_stringaSEOS_
                0x0000000068f6c4d0        0xc C:/mingw64/bin/../lib/gcc/x86_64-w64-mingw32/8.1.0\libstdc++.a(cow-stdexcept.o)
 .pdata$_ZNKSt3_V214error_category10_M_messageEi
                0x0000000068f6c4dc        0xc C:/mingw64/bin/../lib/gcc/x86_64-w64-mingw32/8.1.0\libstdc++.a(cow-stdexcept.o)
 .pdata$_ZNKSs7_M_dataEv
                0x0000000068f6c4e8        0xc C:/mingw64/bin/../lib/gcc/x86_64-w64-mingw32/8.1.0\libstdc++.a(cow-string-inst.o)
 .pdata$_ZNSs7_M_dataEPc
                0x0000000068f6c4f4        0xc C:/mingw64/bin/../lib/gcc/x86_64-w64-mingw32/8.1.0\libstdc++.a(cow-string-inst.o)
 .pdata$_ZNKSs6_M_repEv
                0x0000000068f6c500        0xc C:/mingw64/bin/../lib/gcc/x86_64-w64-mingw32/8.1.0\libstdc++.a(cow-string-inst.o)
 .pdata$_ZNKSs9_M_ibeginEv
                0x0000000068f6c50c        0xc C:/mingw64/bin/../lib/gcc/x86_64-w64-mingw32/8.1.0\libstdc++.a(cow-string-inst.o)
 .pdata$_ZNKSs7_M_iendEv
                0x0000000068f6c518        0xc C:/mingw64/bin/../lib/gcc/x86_64-w64-mingw32/8.1.0\libstdc++.a(cow-string-inst.o)
 .pdata$_ZNKSs8_M_checkEyPKc
                0x0000000068f6c524        0xc C:/mingw64/bin/../lib/gcc/x86_64-w64-mingw32/8.1.0\libstdc++.a(cow-string-inst.o)
 .pdata$_ZNKSs15_M_check_lengthEyyPKc
                0x0000000068f6c530        0xc C:/mingw64/bin/../lib/gcc/x86_64-w64-mingw32/8.1.0\libstdc++.a(cow-string-inst.o)
 .pdata$_ZNKSs8_M_limitEyy
                0x0000000068f6c53c        0xc C:/mingw64/bin/../lib/gcc/x86_64-w64-mingw32/8.1.0\libstdc++.a(cow-string-inst.o)
 .pdata$_ZNKSs11_M_disjunctEPKc
                0x0000000068f6c548        0xc C:/mingw64/bin/../lib/gcc/x86_64-w64-mingw32/8.1.0\libstdc++.a(cow-string-inst.o)
 .pdata$_ZNSs7_M_copyEPcPKcy
                0x0000000068f6c554        0xc C:/mingw64/bin/../lib/gcc/x86_64-w64-mingw32/8.1.0\libstdc++.a(cow-string-inst.o)
 .pdata$_ZNSs7_M_moveEPcPKcy
                0x0000000068f6c560        0xc C:/mingw64/bin/../lib/gcc/x86_64-w64-mingw32/8.1.0\libstdc++.a(cow-string-inst.o)
 .pdata$_ZNSs9_M_assignEPcyc
                0x0000000068f6c56c        0xc C:/mingw64/bin/../lib/gcc/x86_64-w64-mingw32/8.1.0\libstdc++.a(cow-string-inst.o)
 .pdata$_ZNSs13_S_copy_charsEPcN9__gnu_cxx17__normal_iteratorIS_SsEES2_
                0x0000000068f6c578        0xc C:/mingw64/bin/../lib/gcc/x86_64-w64-mingw32/8.1.0\libstdc++.a(cow-string-inst.o)
 .pdata$_ZNSs13_S_copy_charsEPcN9__gnu_cxx17__normal_iteratorIPKcSsEES4_
                0x0000000068f6c584        0xc C:/mingw64/bin/../lib/gcc/x86_64-w64-mingw32/8.1.0\libstdc++.a(cow-string-inst.o)
 .pdata$_ZNSs13_S_copy_charsEPcS_S_
                0x0000000068f6c590        0xc C:/mingw64/bin/../lib/gcc/x86_64-w64-mingw32/8.1.0\libstdc++.a(cow-string-inst.o)
 .pdata$_ZNSs13_S_copy_charsEPcPKcS1_
                0x0000000068f6c59c        0xc C:/mingw64/bin/../lib/gcc/x86_64-w64-mingw32/8.1.0\libstdc++.a(cow-string-inst.o)
 .pdata$_ZNSs10_S_compareEyy
                0x0000000068f6c5a8        0xc C:/mingw64/bin/../lib/gcc/x86_64-w64-mingw32/8.1.0\libstdc++.a(cow-string-inst.o)
 .pdata$_ZNSs12_S_empty_repEv
                0x0000000068f6c5b4        0xc C:/mingw64/bin/../lib/gcc/x86_64-w64-mingw32/8.1.0\libstdc++.a(cow-string-inst.o)
 .pdata$_ZNSsD2Ev
                0x0000000068f6c5c0        0xc C:/mingw64/bin/../lib/gcc/x86_64-w64-mingw32/8.1.0\libstdc++.a(cow-string-inst.o)
 .pdata$_ZNSsD1Ev
                0x0000000068f6c5cc        0xc C:/mingw64/bin/../lib/gcc/x86_64-w64-mingw32/8.1.0\libstdc++.a(cow-string-inst.o)
 .pdata$_ZNKSs5beginEv
                0x0000000068f6c5d8        0xc C:/mingw64/bin/../lib/gcc/x86_64-w64-mingw32/8.1.0\libstdc++.a(cow-string-inst.o)
 .pdata$_ZNKSs3endEv
                0x0000000068f6c5e4        0xc C:/mingw64/bin/../lib/gcc/x86_64-w64-mingw32/8.1.0\libstdc++.a(cow-string-inst.o)
 .pdata$_ZNKSs6rbeginEv
                0x0000000068f6c5f0        0xc C:/mingw64/bin/../lib/gcc/x86_64-w64-mingw32/8.1.0\libstdc++.a(cow-string-inst.o)
 .pdata$_ZNKSs4rendEv
                0x0000000068f6c5fc        0xc C:/mingw64/bin/../lib/gcc/x86_64-w64-mingw32/8.1.0\libstdc++.a(cow-string-inst.o)
 .pdata$_ZNKSs6cbeginEv
                0x0000000068f6c608        0xc C:/mingw64/bin/../lib/gcc/x86_64-w64-mingw32/8.1.0\libstdc++.a(cow-string-inst.o)
 .pdata$_ZNKSs4cendEv
                0x0000000068f6c614        0xc C:/mingw64/bin/../lib/gcc/x86_64-w64-mingw32/8.1.0\libstdc++.a(cow-string-inst.o)
 .pdata$_ZNKSs7crbeginEv
                0x0000000068f6c620        0xc C:/mingw64/bin/../lib/gcc/x86_64-w64-mingw32/8.1.0\libstdc++.a(cow-string-inst.o)
 .pdata$_ZNKSs5crendEv
                0x0000000068f6c62c        0xc C:/mingw64/bin/../lib/gcc/x86_64-w64-mingw32/8.1.0\libstdc++.a(cow-string-inst.o)
 .pdata$_ZNKSs4sizeEv
                0x0000000068f6c638        0xc C:/mingw64/bin/../lib/gcc/x86_64-w64-mingw32/8.1.0\libstdc++.a(cow-string-inst.o)
 .pdata$_ZNKSs6lengthEv
                0x0000000068f6c644        0xc C:/mingw64/bin/../lib/gcc/x86_64-w64-mingw32/8.1.0\libstdc++.a(cow-string-inst.o)
 .pdata$_ZNKSs8max_sizeEv
                0x0000000068f6c650        0xc C:/mingw64/bin/../lib/gcc/x86_64-w64-mingw32/8.1.0\libstdc++.a(cow-string-inst.o)
 .pdata$_ZNKSs8capacityEv
                0x0000000068f6c65c        0xc C:/mingw64/bin/../lib/gcc/x86_64-w64-mingw32/8.1.0\libstdc++.a(cow-string-inst.o)
 .pdata$_ZNKSs5emptyEv
                0x0000000068f6c668        0xc C:/mingw64/bin/../lib/gcc/x86_64-w64-mingw32/8.1.0\libstdc++.a(cow-string-inst.o)
 .pdata$_ZNKSsixEy
                0x0000000068f6c674        0xc C:/mingw64/bin/../lib/gcc/x86_64-w64-mingw32/8.1.0\libstdc++.a(cow-string-inst.o)
 .pdata$_ZNKSs2atEy
                0x0000000068f6c680        0xc C:/mingw64/bin/../lib/gcc/x86_64-w64-mingw32/8.1.0\libstdc++.a(cow-string-inst.o)
 .pdata$_ZNKSs5frontEv
                0x0000000068f6c68c        0xc C:/mingw64/bin/../lib/gcc/x86_64-w64-mingw32/8.1.0\libstdc++.a(cow-string-inst.o)
 .pdata$_ZNKSs4backEv
                0x0000000068f6c698        0xc C:/mingw64/bin/../lib/gcc/x86_64-w64-mingw32/8.1.0\libstdc++.a(cow-string-inst.o)
 .pdata$_ZNKSs4copyEPcyy
                0x0000000068f6c6a4        0xc C:/mingw64/bin/../lib/gcc/x86_64-w64-mingw32/8.1.0\libstdc++.a(cow-string-inst.o)
 .pdata$_ZNSs4swapERSs
                0x0000000068f6c6b0        0xc C:/mingw64/bin/../lib/gcc/x86_64-w64-mingw32/8.1.0\libstdc++.a(cow-string-inst.o)
 .pdata$_ZNSsaSEOSs
                0x0000000068f6c6bc        0xc C:/mingw64/bin/../lib/gcc/x86_64-w64-mingw32/8.1.0\libstdc++.a(cow-string-inst.o)
 .pdata$_ZNSs6assignEOSs
                0x0000000068f6c6c8        0xc C:/mingw64/bin/../lib/gcc/x86_64-w64-mingw32/8.1.0\libstdc++.a(cow-string-inst.o)
 .pdata$_ZNKSs5c_strEv
                0x0000000068f6c6d4        0xc C:/mingw64/bin/../lib/gcc/x86_64-w64-mingw32/8.1.0\libstdc++.a(cow-string-inst.o)
 .pdata$_ZNKSs4dataEv
                0x0000000068f6c6e0        0xc C:/mingw64/bin/../lib/gcc/x86_64-w64-mingw32/8.1.0\libstdc++.a(cow-string-inst.o)
 .pdata$_ZNKSs13get_allocatorEv
                0x0000000068f6c6ec        0xc C:/mingw64/bin/../lib/gcc/x86_64-w64-mingw32/8.1.0\libstdc++.a(cow-string-inst.o)
 .pdata$_ZNKSs4findEPKcyy
                0x0000000068f6c6f8        0xc C:/mingw64/bin/../lib/gcc/x86_64-w64-mingw32/8.1.0\libstdc++.a(cow-string-inst.o)
 .pdata$_ZNKSs4findERKSsy
                0x0000000068f6c704        0xc C:/mingw64/bin/../lib/gcc/x86_64-w64-mingw32/8.1.0\libstdc++.a(cow-string-inst.o)
 .pdata$_ZNKSs4findEPKcy
                0x0000000068f6c710        0xc C:/mingw64/bin/../lib/gcc/x86_64-w64-mingw32/8.1.0\libstdc++.a(cow-string-inst.o)
 .pdata$_ZNKSs4findEcy
                0x0000000068f6c71c        0xc C:/mingw64/bin/../lib/gcc/x86_64-w64-mingw32/8.1.0\libstdc++.a(cow-string-inst.o)
 .pdata$_ZNKSs5rfindEPKcyy
                0x0000000068f6c728        0xc C:/mingw64/bin/../lib/gcc/x86_64-w64-mingw32/8.1.0\libstdc++.a(cow-string-inst.o)
 .pdata$_ZNKSs5rfindERKSsy
                0x0000000068f6c734        0xc C:/mingw64/bin/../lib/gcc/x86_64-w64-mingw32/8.1.0\libstdc++.a(cow-string-inst.o)
 .pdata$_ZNKSs5rfindEPKcy
                0x0000000068f6c740        0xc C:/mingw64/bin/../lib/gcc/x86_64-w64-mingw32/8.1.0\libstdc++.a(cow-string-inst.o)
 .pdata$_ZNKSs5rfindEcy
                0x0000000068f6c74c        0xc C:/mingw64/bin/../lib/gcc/x86_64-w64-mingw32/8.1.0\libstdc++.a(cow-string-inst.o)
 .pdata$_ZNKSs13find_first_ofEPKcyy
                0x0000000068f6c758        0xc C:/mingw64/bin/../lib/gcc/x86_64-w64-mingw32/8.1.0\libstdc++.a(cow-string-inst.o)
 .pdata$_ZNKSs13find_first_ofERKSsy
                0x0000000068f6c764        0xc C:/mingw64/bin/../lib/gcc/x86_64-w64-mingw32/8.1.0\libstdc++.a(cow-string-inst.o)
 .pdata$_ZNKSs13find_first_ofEPKcy
                0x0000000068f6c770        0xc C:/mingw64/bin/../lib/gcc/x86_64-w64-mingw32/8.1.0\libstdc++.a(cow-string-inst.o)
 .pdata$_ZNKSs13find_first_ofEcy
                0x0000000068f6c77c        0xc C:/mingw64/bin/../lib/gcc/x86_64-w64-mingw32/8.1.0\libstdc++.a(cow-string-inst.o)
 .pdata$_ZNKSs12find_last_ofEPKcyy
                0x0000000068f6c788        0xc C:/mingw64/bin/../lib/gcc/x86_64-w64-mingw32/8.1.0\libstdc++.a(cow-string-inst.o)
 .pdata$_ZNKSs12find_last_ofERKSsy
                0x0000000068f6c794        0xc C:/mingw64/bin/../lib/gcc/x86_64-w64-mingw32/8.1.0\libstdc++.a(cow-string-inst.o)
 .pdata$_ZNKSs12find_last_ofEPKcy
                0x0000000068f6c7a0        0xc C:/mingw64/bin/../lib/gcc/x86_64-w64-mingw32/8.1.0\libstdc++.a(cow-string-inst.o)
 .pdata$_ZNKSs12find_last_ofEcy
                0x0000000068f6c7ac        0xc C:/mingw64/bin/../lib/gcc/x86_64-w64-mingw32/8.1.0\libstdc++.a(cow-string-inst.o)
 .pdata$_ZNKSs17find_first_not_ofEPKcyy
                0x0000000068f6c7b8        0xc C:/mingw64/bin/../lib/gcc/x86_64-w64-mingw32/8.1.0\libstdc++.a(cow-string-inst.o)
 .pdata$_ZNKSs17find_first_not_ofERKSsy
                0x0000000068f6c7c4        0xc C:/mingw64/bin/../lib/gcc/x86_64-w64-mingw32/8.1.0\libstdc++.a(cow-string-inst.o)
 .pdata$_ZNKSs17find_first_not_ofEPKcy
                0x0000000068f6c7d0        0xc C:/mingw64/bin/../lib/gcc/x86_64-w64-mingw32/8.1.0\libstdc++.a(cow-string-inst.o)
 .pdata$_ZNKSs17find_first_not_ofEcy
                0x0000000068f6c7dc        0xc C:/mingw64/bin/../lib/gcc/x86_64-w64-mingw32/8.1.0\libstdc++.a(cow-string-inst.o)
 .pdata$_ZNKSs16find_last_not_ofEPKcyy
                0x0000000068f6c7e8        0xc C:/mingw64/bin/../lib/gcc/x86_64-w64-mingw32/8.1.0\libstdc++.a(cow-string-inst.o)
 .pdata$_ZNKSs16find_last_not_ofERKSsy
                0x0000000068f6c7f4        0xc C:/mingw64/bin/../lib/gcc/x86_64-w64-mingw32/8.1.0\libstdc++.a(cow-string-inst.o)
 .pdata$_ZNKSs16find_last_not_ofEPKcy
                0x0000000068f6c800        0xc C:/mingw64/bin/../lib/gcc/x86_64-w64-mingw32/8.1.0\libstdc++.a(cow-string-inst.o)
 .pdata$_ZNKSs16find_last_not_ofEcy
                0x0000000068f6c80c        0xc C:/mingw64/bin/../lib/gcc/x86_64-w64-mingw32/8.1.0\libstdc++.a(cow-string-inst.o)
 .pdata$_ZNKSs7compareERKSs
                0x0000000068f6c818        0xc C:/mingw64/bin/../lib/gcc/x86_64-w64-mingw32/8.1.0\libstdc++.a(cow-string-inst.o)
 .pdata$_ZNKSs7compareEyyRKSs
                0x0000000068f6c824        0xc C:/mingw64/bin/../lib/gcc/x86_64-w64-mingw32/8.1.0\libstdc++.a(cow-string-inst.o)
 .pdata$_ZNKSs7compareEyyRKSsyy
                0x0000000068f6c830        0xc C:/mingw64/bin/../lib/gcc/x86_64-w64-mingw32/8.1.0\libstdc++.a(cow-string-inst.o)
 .pdata$_ZNKSs7compareEPKc
                0x0000000068f6c83c        0xc C:/mingw64/bin/../lib/gcc/x86_64-w64-mingw32/8.1.0\libstdc++.a(cow-string-inst.o)
 .pdata$_ZNKSs7compareEyyPKc
                0x0000000068f6c848        0xc C:/mingw64/bin/../lib/gcc/x86_64-w64-mingw32/8.1.0\libstdc++.a(cow-string-inst.o)
 .pdata$_ZNKSs7compareEyyPKcy
                0x0000000068f6c854        0xc C:/mingw64/bin/../lib/gcc/x86_64-w64-mingw32/8.1.0\libstdc++.a(cow-string-inst.o)
 .pdata$_ZNSs12_Alloc_hiderC2EPcRKSaIcE
                0x0000000068f6c860        0xc C:/mingw64/bin/../lib/gcc/x86_64-w64-mingw32/8.1.0\libstdc++.a(cow-string-inst.o)
 .pdata$_ZNSs12_Alloc_hiderC1EPcRKSaIcE
                0x0000000068f6c86c        0xc C:/mingw64/bin/../lib/gcc/x86_64-w64-mingw32/8.1.0\libstdc++.a(cow-string-inst.o)
 .pdata$_ZNSs4_Rep12_S_empty_repEv
                0x0000000068f6c878        0xc C:/mingw64/bin/../lib/gcc/x86_64-w64-mingw32/8.1.0\libstdc++.a(cow-string-inst.o)
 .pdata$_ZNKSs4_Rep12_M_is_leakedEv
                0x0000000068f6c884        0xc C:/mingw64/bin/../lib/gcc/x86_64-w64-mingw32/8.1.0\libstdc++.a(cow-string-inst.o)
 .pdata$_ZNKSs4_Rep12_M_is_sharedEv
                0x0000000068f6c890        0xc C:/mingw64/bin/../lib/gcc/x86_64-w64-mingw32/8.1.0\libstdc++.a(cow-string-inst.o)
 .pdata$_ZNSs4_Rep13_M_set_leakedEv
                0x0000000068f6c89c        0xc C:/mingw64/bin/../lib/gcc/x86_64-w64-mingw32/8.1.0\libstdc++.a(cow-string-inst.o)
 .pdata$_ZNSs4_Rep15_M_set_sharableEv
                0x0000000068f6c8a8        0xc C:/mingw64/bin/../lib/gcc/x86_64-w64-mingw32/8.1.0\libstdc++.a(cow-string-inst.o)
 .pdata$_ZNSs4_Rep26_M_set_length_and_sharableEy
                0x0000000068f6c8b4        0xc C:/mingw64/bin/../lib/gcc/x86_64-w64-mingw32/8.1.0\libstdc++.a(cow-string-inst.o)
 .pdata$_ZNSs4_Rep10_M_refdataEv
                0x0000000068f6c8c0        0xc C:/mingw64/bin/../lib/gcc/x86_64-w64-mingw32/8.1.0\libstdc++.a(cow-string-inst.o)
 .pdata$_ZNSs4_Rep9_S_createEyyRKSaIcE
                0x0000000068f6c8cc        0xc C:/mingw64/bin/../lib/gcc/x86_64-w64-mingw32/8.1.0\libstdc++.a(cow-string-inst.o)
 .pdata$_ZNSs9_M_mutateEyyy
                0x0000000068f6c8d8        0xc C:/mingw64/bin/../lib/gcc/x86_64-w64-mingw32/8.1.0\libstdc++.a(cow-string-inst.o)
 .pdata$_ZNSs12_M_leak_hardEv
                0x0000000068f6c8e4        0xc C:/mingw64/bin/../lib/gcc/x86_64-w64-mingw32/8.1.0\libstdc++.a(cow-string-inst.o)
 .pdata$_ZNSs7_M_leakEv
                0x0000000068f6c8f0        0xc C:/mingw64/bin/../lib/gcc/x86_64-w64-mingw32/8.1.0\libstdc++.a(cow-string-inst.o)
 .pdata$_ZNSs5frontEv
                0x0000000068f6c8fc        0xc C:/mingw64/bin/../lib/gcc/x86_64-w64-mingw32/8.1.0\libstdc++.a(cow-string-inst.o)
 .pdata$_ZNSs4rendEv
                0x0000000068f6c908        0xc C:/mingw64/bin/../lib/gcc/x86_64-w64-mingw32/8.1.0\libstdc++.a(cow-string-inst.o)
 .pdata$_ZNSsixEy
                0x0000000068f6c914        0xc C:/mingw64/bin/../lib/gcc/x86_64-w64-mingw32/8.1.0\libstdc++.a(cow-string-inst.o)
 .pdata$_ZNSs5beginEv
                0x0000000068f6c920        0xc C:/mingw64/bin/../lib/gcc/x86_64-w64-mingw32/8.1.0\libstdc++.a(cow-string-inst.o)
 .pdata$_ZNSs6rbeginEv
                0x0000000068f6c92c        0xc C:/mingw64/bin/../lib/gcc/x86_64-w64-mingw32/8.1.0\libstdc++.a(cow-string-inst.o)
 .pdata$_ZNSs3endEv
                0x0000000068f6c938        0xc C:/mingw64/bin/../lib/gcc/x86_64-w64-mingw32/8.1.0\libstdc++.a(cow-string-inst.o)
 .pdata$_ZNSs4backEv
                0x0000000068f6c944        0xc C:/mingw64/bin/../lib/gcc/x86_64-w64-mingw32/8.1.0\libstdc++.a(cow-string-inst.o)
 .pdata$_ZNSs2atEy
                0x0000000068f6c950        0xc C:/mingw64/bin/../lib/gcc/x86_64-w64-mingw32/8.1.0\libstdc++.a(cow-string-inst.o)
 .pdata$_ZNSs5clearEv
                0x0000000068f6c95c        0xc C:/mingw64/bin/../lib/gcc/x86_64-w64-mingw32/8.1.0\libstdc++.a(cow-string-inst.o)
 .pdata$_ZNSs5eraseEyy
                0x0000000068f6c968        0xc C:/mingw64/bin/../lib/gcc/x86_64-w64-mingw32/8.1.0\libstdc++.a(cow-string-inst.o)
 .pdata$_ZNSs5eraseEN9__gnu_cxx17__normal_iteratorIPcSsEE
                0x0000000068f6c974        0xc C:/mingw64/bin/../lib/gcc/x86_64-w64-mingw32/8.1.0\libstdc++.a(cow-string-inst.o)
 .pdata$_ZNSs5eraseEN9__gnu_cxx17__normal_iteratorIPcSsEES2_
                0x0000000068f6c980        0xc C:/mingw64/bin/../lib/gcc/x86_64-w64-mingw32/8.1.0\libstdc++.a(cow-string-inst.o)
 .pdata$_ZNSs14_M_replace_auxEyyyc
                0x0000000068f6c98c        0xc C:/mingw64/bin/../lib/gcc/x86_64-w64-mingw32/8.1.0\libstdc++.a(cow-string-inst.o)
 .pdata$_ZNSs6assignEyc
                0x0000000068f6c998        0xc C:/mingw64/bin/../lib/gcc/x86_64-w64-mingw32/8.1.0\libstdc++.a(cow-string-inst.o)
 .pdata$_ZNSsaSEc
                0x0000000068f6c9a4        0xc C:/mingw64/bin/../lib/gcc/x86_64-w64-mingw32/8.1.0\libstdc++.a(cow-string-inst.o)
 .pdata$_ZNSs6insertEyyc
                0x0000000068f6c9b0        0xc C:/mingw64/bin/../lib/gcc/x86_64-w64-mingw32/8.1.0\libstdc++.a(cow-string-inst.o)
 .pdata$_ZNSs6insertEN9__gnu_cxx17__normal_iteratorIPcSsEEc
                0x0000000068f6c9bc        0xc C:/mingw64/bin/../lib/gcc/x86_64-w64-mingw32/8.1.0\libstdc++.a(cow-string-inst.o)
 .pdata$_ZNSs7replaceEyyyc
                0x0000000068f6c9c8        0xc C:/mingw64/bin/../lib/gcc/x86_64-w64-mingw32/8.1.0\libstdc++.a(cow-string-inst.o)
 .pdata$_ZNSs7replaceEN9__gnu_cxx17__normal_iteratorIPcSsEES2_yc
                0x0000000068f6c9d4        0xc C:/mingw64/bin/../lib/gcc/x86_64-w64-mingw32/8.1.0\libstdc++.a(cow-string-inst.o)
 .pdata$_ZNSs6insertEN9__gnu_cxx17__normal_iteratorIPcSsEEyc
                0x0000000068f6c9e0        0xc C:/mingw64/bin/../lib/gcc/x86_64-w64-mingw32/8.1.0\libstdc++.a(cow-string-inst.o)
 .pdata$_ZNSs15_M_replace_safeEyyPKcy
                0x0000000068f6c9ec        0xc C:/mingw64/bin/../lib/gcc/x86_64-w64-mingw32/8.1.0\libstdc++.a(cow-string-inst.o)
 .pdata$_ZNSs6assignEPKcy
                0x0000000068f6c9f8        0xc C:/mingw64/bin/../lib/gcc/x86_64-w64-mingw32/8.1.0\libstdc++.a(cow-string-inst.o)
 .pdata$_ZNSsaSESt16initializer_listIcE
                0x0000000068f6ca04        0xc C:/mingw64/bin/../lib/gcc/x86_64-w64-mingw32/8.1.0\libstdc++.a(cow-string-inst.o)
 .pdata$_ZNSs6assignERKSsyy
                0x0000000068f6ca10        0xc C:/mingw64/bin/../lib/gcc/x86_64-w64-mingw32/8.1.0\libstdc++.a(cow-string-inst.o)
 .pdata$_ZNSs6assignEPKc
                0x0000000068f6ca1c        0xc C:/mingw64/bin/../lib/gcc/x86_64-w64-mingw32/8.1.0\libstdc++.a(cow-string-inst.o)
 .pdata$_ZNSsaSEPKc
                0x0000000068f6ca28        0xc C:/mingw64/bin/../lib/gcc/x86_64-w64-mingw32/8.1.0\libstdc++.a(cow-string-inst.o)
 .pdata$_ZNSs6assignESt16initializer_listIcE
                0x0000000068f6ca34        0xc C:/mingw64/bin/../lib/gcc/x86_64-w64-mingw32/8.1.0\libstdc++.a(cow-string-inst.o)
 .pdata$_ZNSs6insertEyPKcy
                0x0000000068f6ca40        0xc C:/mingw64/bin/../lib/gcc/x86_64-w64-mingw32/8.1.0\libstdc++.a(cow-string-inst.o)
 .pdata$_ZNSs6insertEN9__gnu_cxx17__normal_iteratorIPcSsEESt16initializer_listIcE
                0x0000000068f6ca4c        0xc C:/mingw64/bin/../lib/gcc/x86_64-w64-mingw32/8.1.0\libstdc++.a(cow-string-inst.o)
 .pdata$_ZNSs6insertEyRKSsyy
                0x0000000068f6ca58        0xc C:/mingw64/bin/../lib/gcc/x86_64-w64-mingw32/8.1.0\libstdc++.a(cow-string-inst.o)
 .pdata$_ZNSs6insertEyPKc
                0x0000000068f6ca64        0xc C:/mingw64/bin/../lib/gcc/x86_64-w64-mingw32/8.1.0\libstdc++.a(cow-string-inst.o)
 .pdata$_ZNSs6insertEyRKSs
                0x0000000068f6ca70        0xc C:/mingw64/bin/../lib/gcc/x86_64-w64-mingw32/8.1.0\libstdc++.a(cow-string-inst.o)
 .pdata$_ZNSs8pop_backEv
                0x0000000068f6ca7c        0xc C:/mingw64/bin/../lib/gcc/x86_64-w64-mingw32/8.1.0\libstdc++.a(cow-string-inst.o)
 .pdata$_ZNSs12_S_constructEycRKSaIcE
                0x0000000068f6ca88        0xc C:/mingw64/bin/../lib/gcc/x86_64-w64-mingw32/8.1.0\libstdc++.a(cow-string-inst.o)
 .pdata$_ZNSsC2Ev
                0x0000000068f6ca94        0xc C:/mingw64/bin/../lib/gcc/x86_64-w64-mingw32/8.1.0\libstdc++.a(cow-string-inst.o)
 .pdata$_ZNSsC1Ev
                0x0000000068f6caa0        0xc C:/mingw64/bin/../lib/gcc/x86_64-w64-mingw32/8.1.0\libstdc++.a(cow-string-inst.o)
 .pdata$_ZNSsC2ERKSaIcE
                0x0000000068f6caac        0xc C:/mingw64/bin/../lib/gcc/x86_64-w64-mingw32/8.1.0\libstdc++.a(cow-string-inst.o)
 .pdata$_ZNSsC1ERKSaIcE
                0x0000000068f6cab8        0xc C:/mingw64/bin/../lib/gcc/x86_64-w64-mingw32/8.1.0\libstdc++.a(cow-string-inst.o)
 .pdata$_ZNSsC2EycRKSaIcE
                0x0000000068f6cac4        0xc C:/mingw64/bin/../lib/gcc/x86_64-w64-mingw32/8.1.0\libstdc++.a(cow-string-inst.o)
 .pdata$_ZNSsC1EycRKSaIcE
                0x0000000068f6cad0        0xc C:/mingw64/bin/../lib/gcc/x86_64-w64-mingw32/8.1.0\libstdc++.a(cow-string-inst.o)
 .pdata$_ZNSsC2EOSs
                0x0000000068f6cadc        0xc C:/mingw64/bin/../lib/gcc/x86_64-w64-mingw32/8.1.0\libstdc++.a(cow-string-inst.o)
 .pdata$_ZNSsC1EOSs
                0x0000000068f6cae8        0xc C:/mingw64/bin/../lib/gcc/x86_64-w64-mingw32/8.1.0\libstdc++.a(cow-string-inst.o)
 .pdata$_ZNSs18_S_construct_aux_2EycRKSaIcE
                0x0000000068f6caf4        0xc C:/mingw64/bin/../lib/gcc/x86_64-w64-mingw32/8.1.0\libstdc++.a(cow-string-inst.o)
 .pdata$_ZNSs4_Rep10_M_disposeERKSaIcE
                0x0000000068f6cb00        0xc C:/mingw64/bin/../lib/gcc/x86_64-w64-mingw32/8.1.0\libstdc++.a(cow-string-inst.o)
 .pdata$_ZNSs4_Rep10_M_destroyERKSaIcE
                0x0000000068f6cb0c        0xc C:/mingw64/bin/../lib/gcc/x86_64-w64-mingw32/8.1.0\libstdc++.a(cow-string-inst.o)
 .pdata$_ZNSs4_Rep10_M_refcopyEv
                0x0000000068f6cb18        0xc C:/mingw64/bin/../lib/gcc/x86_64-w64-mingw32/8.1.0\libstdc++.a(cow-string-inst.o)
 .pdata$_ZNSs4_Rep8_M_cloneERKSaIcEy
                0x0000000068f6cb24        0xc C:/mingw64/bin/../lib/gcc/x86_64-w64-mingw32/8.1.0\libstdc++.a(cow-string-inst.o)
 .pdata$_ZNSs7reserveEy
                0x0000000068f6cb30        0xc C:/mingw64/bin/../lib/gcc/x86_64-w64-mingw32/8.1.0\libstdc++.a(cow-string-inst.o)
 .pdata$_ZNSs13shrink_to_fitEv
                0x0000000068f6cb3c        0xc C:/mingw64/bin/../lib/gcc/x86_64-w64-mingw32/8.1.0\libstdc++.a(cow-string-inst.o)
 .pdata$_ZNSs6appendERKSs
                0x0000000068f6cb48        0xc C:/mingw64/bin/../lib/gcc/x86_64-w64-mingw32/8.1.0\libstdc++.a(cow-string-inst.o)
 .pdata$_ZNSspLERKSs
                0x0000000068f6cb54        0xc C:/mingw64/bin/../lib/gcc/x86_64-w64-mingw32/8.1.0\libstdc++.a(cow-string-inst.o)
 .pdata$_ZNSs6appendERKSsyy
                0x0000000068f6cb60        0xc C:/mingw64/bin/../lib/gcc/x86_64-w64-mingw32/8.1.0\libstdc++.a(cow-string-inst.o)
 .pdata$_ZNSs6appendEPKcy
                0x0000000068f6cb6c        0xc C:/mingw64/bin/../lib/gcc/x86_64-w64-mingw32/8.1.0\libstdc++.a(cow-string-inst.o)
 .pdata$_ZNSspLESt16initializer_listIcE
                0x0000000068f6cb78        0xc C:/mingw64/bin/../lib/gcc/x86_64-w64-mingw32/8.1.0\libstdc++.a(cow-string-inst.o)
 .pdata$_ZNSs6appendEPKc
                0x0000000068f6cb84        0xc C:/mingw64/bin/../lib/gcc/x86_64-w64-mingw32/8.1.0\libstdc++.a(cow-string-inst.o)
 .pdata$_ZNSspLEPKc
                0x0000000068f6cb90        0xc C:/mingw64/bin/../lib/gcc/x86_64-w64-mingw32/8.1.0\libstdc++.a(cow-string-inst.o)
 .pdata$_ZNSs6appendESt16initializer_listIcE
                0x0000000068f6cb9c        0xc C:/mingw64/bin/../lib/gcc/x86_64-w64-mingw32/8.1.0\libstdc++.a(cow-string-inst.o)
 .pdata$_ZNSs6appendEyc.part.20
                0x0000000068f6cba8        0xc C:/mingw64/bin/../lib/gcc/x86_64-w64-mingw32/8.1.0\libstdc++.a(cow-string-inst.o)
 .pdata$_ZNSs6appendEyc
                0x0000000068f6cbb4        0xc C:/mingw64/bin/../lib/gcc/x86_64-w64-mingw32/8.1.0\libstdc++.a(cow-string-inst.o)
 .pdata$_ZNSs6resizeEyc
                0x0000000068f6cbc0        0xc C:/mingw64/bin/../lib/gcc/x86_64-w64-mingw32/8.1.0\libstdc++.a(cow-string-inst.o)
 .pdata$_ZNSs6resizeEy
                0x0000000068f6cbcc        0xc C:/mingw64/bin/../lib/gcc/x86_64-w64-mingw32/8.1.0\libstdc++.a(cow-string-inst.o)
 .pdata$_ZNSs9push_backEc
                0x0000000068f6cbd8        0xc C:/mingw64/bin/../lib/gcc/x86_64-w64-mingw32/8.1.0\libstdc++.a(cow-string-inst.o)
 .pdata$_ZNSspLEc
                0x0000000068f6cbe4        0xc C:/mingw64/bin/../lib/gcc/x86_64-w64-mingw32/8.1.0\libstdc++.a(cow-string-inst.o)
 .pdata$_ZNSs4_Rep7_M_grabERKSaIcES2_
                0x0000000068f6cbf0        0xc C:/mingw64/bin/../lib/gcc/x86_64-w64-mingw32/8.1.0\libstdc++.a(cow-string-inst.o)
 .pdata$_ZNSsC1ERKSs
                0x0000000068f6cbfc        0xc C:/mingw64/bin/../lib/gcc/x86_64-w64-mingw32/8.1.0\libstdc++.a(cow-string-inst.o)
 .pdata$_ZNSsC2ERKSs
                0x0000000068f6cc08        0xc C:/mingw64/bin/../lib/gcc/x86_64-w64-mingw32/8.1.0\libstdc++.a(cow-string-inst.o)
 .pdata$_ZNSs6assignERKSs
                0x0000000068f6cc14        0xc C:/mingw64/bin/../lib/gcc/x86_64-w64-mingw32/8.1.0\libstdc++.a(cow-string-inst.o)
 .pdata$_ZNSsaSERKSs
                0x0000000068f6cc20        0xc C:/mingw64/bin/../lib/gcc/x86_64-w64-mingw32/8.1.0\libstdc++.a(cow-string-inst.o)
 .pdata$_ZStplIcSt11char_traitsIcESaIcEESbIT_T0_T1_EPKS3_RKS6_
                0x0000000068f6cc2c        0xc C:/mingw64/bin/../lib/gcc/x86_64-w64-mingw32/8.1.0\libstdc++.a(cow-string-inst.o)
 .pdata$_ZStplIcSt11char_traitsIcESaIcEESbIT_T0_T1_ES3_RKS6_
                0x0000000068f6cc38        0xc C:/mingw64/bin/../lib/gcc/x86_64-w64-mingw32/8.1.0\libstdc++.a(cow-string-inst.o)
 .pdata$_ZStplIcSt11char_traitsIcESaIcEESbIT_T0_T1_ERKS6_S8_
                0x0000000068f6cc44        0xc C:/mingw64/bin/../lib/gcc/x86_64-w64-mingw32/8.1.0\libstdc++.a(cow-string-inst.o)
 .pdata$_ZNSs12_S_constructIN9__gnu_cxx17__normal_iteratorIPcSsEEEES2_T_S4_RKSaIcESt20forward_iterator_tag
                0x0000000068f6cc50        0xc C:/mingw64/bin/../lib/gcc/x86_64-w64-mingw32/8.1.0\libstdc++.a(cow-string-inst.o)
 .pdata$_ZNSsC2IN9__gnu_cxx17__normal_iteratorIPcSsEEEET_S4_RKSaIcE
                0x0000000068f6cc5c        0xc C:/mingw64/bin/../lib/gcc/x86_64-w64-mingw32/8.1.0\libstdc++.a(cow-string-inst.o)
 .pdata$_ZNSsC1IN9__gnu_cxx17__normal_iteratorIPcSsEEEET_S4_RKSaIcE
                0x0000000068f6cc68        0xc C:/mingw64/bin/../lib/gcc/x86_64-w64-mingw32/8.1.0\libstdc++.a(cow-string-inst.o)
 .pdata$_ZNSs12_S_constructIPcEES0_T_S1_RKSaIcESt20forward_iterator_tag
                0x0000000068f6cc74        0xc C:/mingw64/bin/../lib/gcc/x86_64-w64-mingw32/8.1.0\libstdc++.a(cow-string-inst.o)
 .pdata$_ZNSsC2ERKSsyRKSaIcE
                0x0000000068f6cc80        0xc C:/mingw64/bin/../lib/gcc/x86_64-w64-mingw32/8.1.0\libstdc++.a(cow-string-inst.o)
 .pdata$_ZNSsC1ERKSsyRKSaIcE
                0x0000000068f6cc8c        0xc C:/mingw64/bin/../lib/gcc/x86_64-w64-mingw32/8.1.0\libstdc++.a(cow-string-inst.o)
 .pdata$_ZNSsC2ERKSsyy
                0x0000000068f6cc98        0xc C:/mingw64/bin/../lib/gcc/x86_64-w64-mingw32/8.1.0\libstdc++.a(cow-string-inst.o)
 .pdata$_ZNSsC1ERKSsyy
                0x0000000068f6cca4        0xc C:/mingw64/bin/../lib/gcc/x86_64-w64-mingw32/8.1.0\libstdc++.a(cow-string-inst.o)
 .pdata$_ZNKSs6substrEyy
                0x0000000068f6ccb0        0xc C:/mingw64/bin/../lib/gcc/x86_64-w64-mingw32/8.1.0\libstdc++.a(cow-string-inst.o)
 .pdata$_ZNSsC2ERKSsyyRKSaIcE
                0x0000000068f6ccbc        0xc C:/mingw64/bin/../lib/gcc/x86_64-w64-mingw32/8.1.0\libstdc++.a(cow-string-inst.o)
 .pdata$_ZNSsC1ERKSsyyRKSaIcE
                0x0000000068f6ccc8        0xc C:/mingw64/bin/../lib/gcc/x86_64-w64-mingw32/8.1.0\libstdc++.a(cow-string-inst.o)
 .pdata$_ZNSsC2IPcEET_S1_RKSaIcE
                0x0000000068f6ccd4        0xc C:/mingw64/bin/../lib/gcc/x86_64-w64-mingw32/8.1.0\libstdc++.a(cow-string-inst.o)
 .pdata$_ZNSsC1IPcEET_S1_RKSaIcE
                0x0000000068f6cce0        0xc C:/mingw64/bin/../lib/gcc/x86_64-w64-mingw32/8.1.0\libstdc++.a(cow-string-inst.o)
 .pdata$_ZNSs12_S_constructIPKcEEPcT_S3_RKSaIcESt20forward_iterator_tag
                0x0000000068f6ccec        0xc C:/mingw64/bin/../lib/gcc/x86_64-w64-mingw32/8.1.0\libstdc++.a(cow-string-inst.o)
 .pdata$_ZNSsC2EPKcyRKSaIcE
                0x0000000068f6ccf8        0xc C:/mingw64/bin/../lib/gcc/x86_64-w64-mingw32/8.1.0\libstdc++.a(cow-string-inst.o)
 .pdata$_ZNSsC1EPKcyRKSaIcE
                0x0000000068f6cd04        0xc C:/mingw64/bin/../lib/gcc/x86_64-w64-mingw32/8.1.0\libstdc++.a(cow-string-inst.o)
 .pdata$_ZNSs7replaceEyyPKcy
                0x0000000068f6cd10        0xc C:/mingw64/bin/../lib/gcc/x86_64-w64-mingw32/8.1.0\libstdc++.a(cow-string-inst.o)
 .pdata$_ZNSs7replaceEyyRKSs
                0x0000000068f6cd1c        0xc C:/mingw64/bin/../lib/gcc/x86_64-w64-mingw32/8.1.0\libstdc++.a(cow-string-inst.o)
 .pdata$_ZNSs7replaceEyyRKSsyy
                0x0000000068f6cd28        0xc C:/mingw64/bin/../lib/gcc/x86_64-w64-mingw32/8.1.0\libstdc++.a(cow-string-inst.o)
 .pdata$_ZNSs7replaceEyyPKc
                0x0000000068f6cd34        0xc C:/mingw64/bin/../lib/gcc/x86_64-w64-mingw32/8.1.0\libstdc++.a(cow-string-inst.o)
 .pdata$_ZNSs7replaceEN9__gnu_cxx17__normal_iteratorIPcSsEES2_PKcy
                0x0000000068f6cd40        0xc C:/mingw64/bin/../lib/gcc/x86_64-w64-mingw32/8.1.0\libstdc++.a(cow-string-inst.o)
 .pdata$_ZNSs7replaceEN9__gnu_cxx17__normal_iteratorIPcSsEES2_RKSs
                0x0000000068f6cd4c        0xc C:/mingw64/bin/../lib/gcc/x86_64-w64-mingw32/8.1.0\libstdc++.a(cow-string-inst.o)
 .pdata$_ZNSs7replaceEN9__gnu_cxx17__normal_iteratorIPcSsEES2_PKc
                0x0000000068f6cd58        0xc C:/mingw64/bin/../lib/gcc/x86_64-w64-mingw32/8.1.0\libstdc++.a(cow-string-inst.o)
 .pdata$_ZNSs7replaceEN9__gnu_cxx17__normal_iteratorIPcSsEES2_S1_S1_
                0x0000000068f6cd64        0xc C:/mingw64/bin/../lib/gcc/x86_64-w64-mingw32/8.1.0\libstdc++.a(cow-string-inst.o)
 .pdata$_ZNSs7replaceEN9__gnu_cxx17__normal_iteratorIPcSsEES2_PKcS4_
                0x0000000068f6cd70        0xc C:/mingw64/bin/../lib/gcc/x86_64-w64-mingw32/8.1.0\libstdc++.a(cow-string-inst.o)
 .pdata$_ZNSs7replaceEN9__gnu_cxx17__normal_iteratorIPcSsEES2_St16initializer_listIcE
                0x0000000068f6cd7c        0xc C:/mingw64/bin/../lib/gcc/x86_64-w64-mingw32/8.1.0\libstdc++.a(cow-string-inst.o)
 .pdata$_ZNSs7replaceEN9__gnu_cxx17__normal_iteratorIPcSsEES2_S2_S2_
                0x0000000068f6cd88        0xc C:/mingw64/bin/../lib/gcc/x86_64-w64-mingw32/8.1.0\libstdc++.a(cow-string-inst.o)
 .pdata$_ZNSs7replaceEN9__gnu_cxx17__normal_iteratorIPcSsEES2_NS0_IPKcSsEES5_
                0x0000000068f6cd94        0xc C:/mingw64/bin/../lib/gcc/x86_64-w64-mingw32/8.1.0\libstdc++.a(cow-string-inst.o)
 .pdata$_ZNSsC2EPKcRKSaIcE
                0x0000000068f6cda0        0xc C:/mingw64/bin/../lib/gcc/x86_64-w64-mingw32/8.1.0\libstdc++.a(cow-string-inst.o)
 .pdata$_ZNSsC1EPKcRKSaIcE
                0x0000000068f6cdac        0xc C:/mingw64/bin/../lib/gcc/x86_64-w64-mingw32/8.1.0\libstdc++.a(cow-string-inst.o)
 .pdata$_ZNSsC2ESt16initializer_listIcERKSaIcE
                0x0000000068f6cdb8        0xc C:/mingw64/bin/../lib/gcc/x86_64-w64-mingw32/8.1.0\libstdc++.a(cow-string-inst.o)
 .pdata$_ZNSsC1ESt16initializer_listIcERKSaIcE
                0x0000000068f6cdc4        0xc C:/mingw64/bin/../lib/gcc/x86_64-w64-mingw32/8.1.0\libstdc++.a(cow-string-inst.o)
 .pdata$_ZNSsC2IPKcEET_S2_RKSaIcE
                0x0000000068f6cdd0        0xc C:/mingw64/bin/../lib/gcc/x86_64-w64-mingw32/8.1.0\libstdc++.a(cow-string-inst.o)
 .pdata$_ZNSsC1IPKcEET_S2_RKSaIcE
                0x0000000068f6cddc        0xc C:/mingw64/bin/../lib/gcc/x86_64-w64-mingw32/8.1.0\libstdc++.a(cow-string-inst.o)
 .pdata$_ZN9__gnu_cxxeqIPcSsEEbRKNS_17__normal_iteratorIT_T0_EES7_
                0x0000000068f6cde8        0xc C:/mingw64/bin/../lib/gcc/x86_64-w64-mingw32/8.1.0\libstdc++.a(cow-string-inst.o)
 .pdata$_ZN9__gnu_cxxeqIPKcSsEEbRKNS_17__normal_iteratorIT_T0_EES8_
                0x0000000068f6cdf4        0xc C:/mingw64/bin/../lib/gcc/x86_64-w64-mingw32/8.1.0\libstdc++.a(cow-string-inst.o)
 .pdata$_ZNSt13random_device7_M_initERKSs
                0x0000000068f6ce00        0xc C:/mingw64/bin/../lib/gcc/x86_64-w64-mingw32/8.1.0\libstdc++.a(cow-string-inst.o)
 .pdata$_ZNSt13random_device14_M_init_pretr1ERKSs
                0x0000000068f6ce0c        0xc C:/mingw64/bin/../lib/gcc/x86_64-w64-mingw32/8.1.0\libstdc++.a(cow-string-inst.o)
 .pdata$_ZSt21__throw_bad_exceptionv
                0x0000000068f6ce18        0xc C:/mingw64/bin/../lib/gcc/x86_64-w64-mingw32/8.1.0\libstdc++.a(functexcept.o)
 .pdata$_ZSt17__throw_bad_allocv
                0x0000000068f6ce24        0xc C:/mingw64/bin/../lib/gcc/x86_64-w64-mingw32/8.1.0\libstdc++.a(functexcept.o)
 .pdata$_ZSt16__throw_bad_castv
                0x0000000068f6ce30        0xc C:/mingw64/bin/../lib/gcc/x86_64-w64-mingw32/8.1.0\libstdc++.a(functexcept.o)
 .pdata$_ZSt18__throw_bad_typeidv
                0x0000000068f6ce3c        0xc C:/mingw64/bin/../lib/gcc/x86_64-w64-mingw32/8.1.0\libstdc++.a(functexcept.o)
 .pdata$_ZSt19__throw_logic_errorPKc
                0x0000000068f6ce48        0xc C:/mingw64/bin/../lib/gcc/x86_64-w64-mingw32/8.1.0\libstdc++.a(functexcept.o)
 .pdata$_ZSt20__throw_domain_errorPKc
                0x0000000068f6ce54        0xc C:/mingw64/bin/../lib/gcc/x86_64-w64-mingw32/8.1.0\libstdc++.a(functexcept.o)
 .pdata$_ZSt24__throw_invalid_argumentPKc
                0x0000000068f6ce60        0xc C:/mingw64/bin/../lib/gcc/x86_64-w64-mingw32/8.1.0\libstdc++.a(functexcept.o)
 .pdata$_ZSt20__throw_length_errorPKc
                0x0000000068f6ce6c        0xc C:/mingw64/bin/../lib/gcc/x86_64-w64-mingw32/8.1.0\libstdc++.a(functexcept.o)
 .pdata$_ZSt20__throw_out_of_rangePKc
                0x0000000068f6ce78        0xc C:/mingw64/bin/../lib/gcc/x86_64-w64-mingw32/8.1.0\libstdc++.a(functexcept.o)
 .pdata$_ZSt24__throw_out_of_range_fmtPKcz
                0x0000000068f6ce84        0xc C:/mingw64/bin/../lib/gcc/x86_64-w64-mingw32/8.1.0\libstdc++.a(functexcept.o)
 .pdata$_ZSt21__throw_runtime_errorPKc
                0x0000000068f6ce90        0xc C:/mingw64/bin/../lib/gcc/x86_64-w64-mingw32/8.1.0\libstdc++.a(functexcept.o)
 .pdata$_ZSt19__throw_range_errorPKc
                0x0000000068f6ce9c        0xc C:/mingw64/bin/../lib/gcc/x86_64-w64-mingw32/8.1.0\libstdc++.a(functexcept.o)
 .pdata$_ZSt22__throw_overflow_errorPKc
                0x0000000068f6cea8        0xc C:/mingw64/bin/../lib/gcc/x86_64-w64-mingw32/8.1.0\libstdc++.a(functexcept.o)
 .pdata$_ZSt23__throw_underflow_errorPKc
                0x0000000068f6ceb4        0xc C:/mingw64/bin/../lib/gcc/x86_64-w64-mingw32/8.1.0\libstdc++.a(functexcept.o)
 .pdata$_ZNKSt17bad_function_call4whatEv
                0x0000000068f6cec0        0xc C:/mingw64/bin/../lib/gcc/x86_64-w64-mingw32/8.1.0\libstdc++.a(functional.o)
 .pdata$_ZNSt17bad_function_callD2Ev
                0x0000000068f6cecc        0xc C:/mingw64/bin/../lib/gcc/x86_64-w64-mingw32/8.1.0\libstdc++.a(functional.o)
 .pdata$_ZNSt17bad_function_callD0Ev
                0x0000000068f6ced8        0xc C:/mingw64/bin/../lib/gcc/x86_64-w64-mingw32/8.1.0\libstdc++.a(functional.o)
 .pdata$_ZSt25__throw_bad_function_callv
                0x0000000068f6cee4        0xc C:/mingw64/bin/../lib/gcc/x86_64-w64-mingw32/8.1.0\libstdc++.a(functional.o)
 .pdata$_ZN9__gnu_cxx26__throw_insufficient_spaceEPKcS1_
                0x0000000068f6cef0        0xc C:/mingw64/bin/../lib/gcc/x86_64-w64-mingw32/8.1.0\libstdc++.a(snprintf_lite.o)
 .pdata$_ZN9__gnu_cxx15__concat_size_tEPcyy
                0x0000000068f6cefc        0xc C:/mingw64/bin/../lib/gcc/x86_64-w64-mingw32/8.1.0\libstdc++.a(snprintf_lite.o)
 .pdata$_ZN9__gnu_cxx15__snprintf_liteEPcyPKcS0_
                0x0000000068f6cf08        0xc C:/mingw64/bin/../lib/gcc/x86_64-w64-mingw32/8.1.0\libstdc++.a(snprintf_lite.o)
 .pdata$_ZNSt12__sso_stringC2Ev
                0x0000000068f6cf14        0xc C:/mingw64/bin/../lib/gcc/x86_64-w64-mingw32/8.1.0\libstdc++.a(sso_string.o)
 .pdata$_ZNSt12__sso_stringC2ERKNSt7__cxx1112basic_stringIcSt11char_traitsIcESaIcEEE
                0x0000000068f6cf20        0xc C:/mingw64/bin/../lib/gcc/x86_64-w64-mingw32/8.1.0\libstdc++.a(sso_string.o)
 .pdata$_ZNSt12__sso_stringC2EPKcy
                0x0000000068f6cf2c        0xc C:/mingw64/bin/../lib/gcc/x86_64-w64-mingw32/8.1.0\libstdc++.a(sso_string.o)
 .pdata$_ZNSt12__sso_stringC2ERKS_
                0x0000000068f6cf38        0xc C:/mingw64/bin/../lib/gcc/x86_64-w64-mingw32/8.1.0\libstdc++.a(sso_string.o)
 .pdata$_ZNSt12__sso_stringaSERKS_
                0x0000000068f6cf44        0xc C:/mingw64/bin/../lib/gcc/x86_64-w64-mingw32/8.1.0\libstdc++.a(sso_string.o)
 .pdata$_ZNSt12__sso_stringD2Ev
                0x0000000068f6cf50        0xc C:/mingw64/bin/../lib/gcc/x86_64-w64-mingw32/8.1.0\libstdc++.a(sso_string.o)
 .pdata$_ZNSt12__sso_stringC2EOS_
                0x0000000068f6cf5c        0xc C:/mingw64/bin/../lib/gcc/x86_64-w64-mingw32/8.1.0\libstdc++.a(sso_string.o)
 .pdata$_ZNSt12__sso_stringaSEOS_
                0x0000000068f6cf68        0xc C:/mingw64/bin/../lib/gcc/x86_64-w64-mingw32/8.1.0\libstdc++.a(sso_string.o)
 .pdata$_ZNSt7__cxx1112basic_stringIcSt11char_traitsIcESaIcEE7_M_dataEPc
                0x0000000068f6cf74        0xc C:/mingw64/bin/../lib/gcc/x86_64-w64-mingw32/8.1.0\libstdc++.a(string-inst.o)
 .pdata$_ZNSt7__cxx1112basic_stringIcSt11char_traitsIcESaIcEE9_M_lengthEy
                0x0000000068f6cf80        0xc C:/mingw64/bin/../lib/gcc/x86_64-w64-mingw32/8.1.0\libstdc++.a(string-inst.o)
 .pdata$_ZNKSt7__cxx1112basic_stringIcSt11char_traitsIcESaIcEE7_M_dataEv
                0x0000000068f6cf8c        0xc C:/mingw64/bin/../lib/gcc/x86_64-w64-mingw32/8.1.0\libstdc++.a(string-inst.o)
 .pdata$_ZNSt7__cxx1112basic_stringIcSt11char_traitsIcESaIcEE13_M_local_dataEv
                0x0000000068f6cf98        0xc C:/mingw64/bin/../lib/gcc/x86_64-w64-mingw32/8.1.0\libstdc++.a(string-inst.o)
 .pdata$_ZNKSt7__cxx1112basic_stringIcSt11char_traitsIcESaIcEE13_M_local_dataEv
                0x0000000068f6cfa4        0xc C:/mingw64/bin/../lib/gcc/x86_64-w64-mingw32/8.1.0\libstdc++.a(string-inst.o)
 .pdata$_ZNSt7__cxx1112basic_stringIcSt11char_traitsIcESaIcEE11_M_capacityEy
                0x0000000068f6cfb0        0xc C:/mingw64/bin/../lib/gcc/x86_64-w64-mingw32/8.1.0\libstdc++.a(string-inst.o)
 .pdata$_ZNSt7__cxx1112basic_stringIcSt11char_traitsIcESaIcEE13_M_set_lengthEy
                0x0000000068f6cfbc        0xc C:/mingw64/bin/../lib/gcc/x86_64-w64-mingw32/8.1.0\libstdc++.a(string-inst.o)
 .pdata$_ZNKSt7__cxx1112basic_stringIcSt11char_traitsIcESaIcEE11_M_is_localEv
                0x0000000068f6cfc8        0xc C:/mingw64/bin/../lib/gcc/x86_64-w64-mingw32/8.1.0\libstdc++.a(string-inst.o)
 .pdata$_ZNSt7__cxx1112basic_stringIcSt11char_traitsIcESaIcEE9_M_createERyy
                0x0000000068f6cfd4        0xc C:/mingw64/bin/../lib/gcc/x86_64-w64-mingw32/8.1.0\libstdc++.a(string-inst.o)
 .pdata$_ZNSt7__cxx1112basic_stringIcSt11char_traitsIcESaIcEE10_M_disposeEv
                0x0000000068f6cfe0        0xc C:/mingw64/bin/../lib/gcc/x86_64-w64-mingw32/8.1.0\libstdc++.a(string-inst.o)
 .pdata$_ZNSt7__cxx1112basic_stringIcSt11char_traitsIcESaIcEE10_M_destroyEy
                0x0000000068f6cfec        0xc C:/mingw64/bin/../lib/gcc/x86_64-w64-mingw32/8.1.0\libstdc++.a(string-inst.o)
 .pdata$_ZNSt7__cxx1112basic_stringIcSt11char_traitsIcESaIcEE12_M_constructEyc
                0x0000000068f6cff8        0xc C:/mingw64/bin/../lib/gcc/x86_64-w64-mingw32/8.1.0\libstdc++.a(string-inst.o)
 .pdata$_ZNSt7__cxx1112basic_stringIcSt11char_traitsIcESaIcEE18_M_construct_aux_2Eyc
                0x0000000068f6d004        0xc C:/mingw64/bin/../lib/gcc/x86_64-w64-mingw32/8.1.0\libstdc++.a(string-inst.o)
 .pdata$_ZNSt7__cxx1112basic_stringIcSt11char_traitsIcESaIcEE16_M_get_allocatorEv
                0x0000000068f6d010        0xc C:/mingw64/bin/../lib/gcc/x86_64-w64-mingw32/8.1.0\libstdc++.a(string-inst.o)
 .pdata$_ZNKSt7__cxx1112basic_stringIcSt11char_traitsIcESaIcEE16_M_get_allocatorEv
                0x0000000068f6d01c        0xc C:/mingw64/bin/../lib/gcc/x86_64-w64-mingw32/8.1.0\libstdc++.a(string-inst.o)
 .pdata$_ZNKSt7__cxx1112basic_stringIcSt11char_traitsIcESaIcEE8_M_checkEyPKc
                0x0000000068f6d028        0xc C:/mingw64/bin/../lib/gcc/x86_64-w64-mingw32/8.1.0\libstdc++.a(string-inst.o)
 .pdata$_ZNKSt7__cxx1112basic_stringIcSt11char_traitsIcESaIcEE15_M_check_lengthEyyPKc
                0x0000000068f6d034        0xc C:/mingw64/bin/../lib/gcc/x86_64-w64-mingw32/8.1.0\libstdc++.a(string-inst.o)
 .pdata$_ZNKSt7__cxx1112basic_stringIcSt11char_traitsIcESaIcEE8_M_limitEyy
                0x0000000068f6d040        0xc C:/mingw64/bin/../lib/gcc/x86_64-w64-mingw32/8.1.0\libstdc++.a(string-inst.o)
 .pdata$_ZNKSt7__cxx1112basic_stringIcSt11char_traitsIcESaIcEE11_M_disjunctEPKc
                0x0000000068f6d04c        0xc C:/mingw64/bin/../lib/gcc/x86_64-w64-mingw32/8.1.0\libstdc++.a(string-inst.o)
 .pdata$_ZNSt7__cxx1112basic_stringIcSt11char_traitsIcESaIcEE9_S_assignEPcyc
                0x0000000068f6d058        0xc C:/mingw64/bin/../lib/gcc/x86_64-w64-mingw32/8.1.0\libstdc++.a(string-inst.o)
 .pdata$_ZNSt7__cxx1112basic_stringIcSt11char_traitsIcESaIcEE13_S_copy_charsEPcN9__gnu_cxx17__normal_iteratorIS5_S4_EES8_
                0x0000000068f6d064        0xc C:/mingw64/bin/../lib/gcc/x86_64-w64-mingw32/8.1.0\libstdc++.a(string-inst.o)
 .pdata$_ZNSt7__cxx1112basic_stringIcSt11char_traitsIcESaIcEE13_S_copy_charsEPcN9__gnu_cxx17__normal_iteratorIPKcS4_EESA_
                0x0000000068f6d070        0xc C:/mingw64/bin/../lib/gcc/x86_64-w64-mingw32/8.1.0\libstdc++.a(string-inst.o)
 .pdata$_ZNSt7__cxx1112basic_stringIcSt11char_traitsIcESaIcEE13_S_copy_charsEPcS5_S5_
                0x0000000068f6d07c        0xc C:/mingw64/bin/../lib/gcc/x86_64-w64-mingw32/8.1.0\libstdc++.a(string-inst.o)
 .pdata$_ZNSt7__cxx1112basic_stringIcSt11char_traitsIcESaIcEE13_S_copy_charsEPcPKcS7_
                0x0000000068f6d088        0xc C:/mingw64/bin/../lib/gcc/x86_64-w64-mingw32/8.1.0\libstdc++.a(string-inst.o)
 .pdata$_ZNSt7__cxx1112basic_stringIcSt11char_traitsIcESaIcEE10_S_compareEyy
                0x0000000068f6d094        0xc C:/mingw64/bin/../lib/gcc/x86_64-w64-mingw32/8.1.0\libstdc++.a(string-inst.o)
 .pdata$_ZNSt7__cxx1112basic_stringIcSt11char_traitsIcESaIcEE9_M_assignERKS4_
                0x0000000068f6d0a0        0xc C:/mingw64/bin/../lib/gcc/x86_64-w64-mingw32/8.1.0\libstdc++.a(string-inst.o)
 .pdata$_ZNSt7__cxx1112basic_stringIcSt11char_traitsIcESaIcEE8_M_eraseEyy
                0x0000000068f6d0ac        0xc C:/mingw64/bin/../lib/gcc/x86_64-w64-mingw32/8.1.0\libstdc++.a(string-inst.o)
 .pdata$_ZNSt7__cxx1112basic_stringIcSt11char_traitsIcESaIcEEC2Ev
                0x0000000068f6d0b8        0xc C:/mingw64/bin/../lib/gcc/x86_64-w64-mingw32/8.1.0\libstdc++.a(string-inst.o)
 .pdata$_ZNSt7__cxx1112basic_stringIcSt11char_traitsIcESaIcEEC1Ev
                0x0000000068f6d0c4        0xc C:/mingw64/bin/../lib/gcc/x86_64-w64-mingw32/8.1.0\libstdc++.a(string-inst.o)
 .pdata$_ZNSt7__cxx1112basic_stringIcSt11char_traitsIcESaIcEEC2ERKS3_
                0x0000000068f6d0d0        0xc C:/mingw64/bin/../lib/gcc/x86_64-w64-mingw32/8.1.0\libstdc++.a(string-inst.o)
 .pdata$_ZNSt7__cxx1112basic_stringIcSt11char_traitsIcESaIcEEC1ERKS3_
                0x0000000068f6d0dc        0xc C:/mingw64/bin/../lib/gcc/x86_64-w64-mingw32/8.1.0\libstdc++.a(string-inst.o)
 .pdata$_ZNSt7__cxx1112basic_stringIcSt11char_traitsIcESaIcEEC2EycRKS3_
                0x0000000068f6d0e8        0xc C:/mingw64/bin/../lib/gcc/x86_64-w64-mingw32/8.1.0\libstdc++.a(string-inst.o)
 .pdata$_ZNSt7__cxx1112basic_stringIcSt11char_traitsIcESaIcEEC1EycRKS3_
                0x0000000068f6d0f4        0xc C:/mingw64/bin/../lib/gcc/x86_64-w64-mingw32/8.1.0\libstdc++.a(string-inst.o)
 .pdata$_ZNSt7__cxx1112basic_stringIcSt11char_traitsIcESaIcEEC2EOS4_
                0x0000000068f6d100        0xc C:/mingw64/bin/../lib/gcc/x86_64-w64-mingw32/8.1.0\libstdc++.a(string-inst.o)
 .pdata$_ZNSt7__cxx1112basic_stringIcSt11char_traitsIcESaIcEEC1EOS4_
                0x0000000068f6d10c        0xc C:/mingw64/bin/../lib/gcc/x86_64-w64-mingw32/8.1.0\libstdc++.a(string-inst.o)
 .pdata$_ZNSt7__cxx1112basic_stringIcSt11char_traitsIcESaIcEEC2EOS4_RKS3_
                0x0000000068f6d118        0xc C:/mingw64/bin/../lib/gcc/x86_64-w64-mingw32/8.1.0\libstdc++.a(string-inst.o)
 .pdata$_ZNSt7__cxx1112basic_stringIcSt11char_traitsIcESaIcEEC1EOS4_RKS3_
                0x0000000068f6d124        0xc C:/mingw64/bin/../lib/gcc/x86_64-w64-mingw32/8.1.0\libstdc++.a(string-inst.o)
 .pdata$_ZNSt7__cxx1112basic_stringIcSt11char_traitsIcESaIcEED2Ev
                0x0000000068f6d130        0xc C:/mingw64/bin/../lib/gcc/x86_64-w64-mingw32/8.1.0\libstdc++.a(string-inst.o)
 .pdata$_ZNSt7__cxx1112basic_stringIcSt11char_traitsIcESaIcEED1Ev
                0x0000000068f6d13c        0xc C:/mingw64/bin/../lib/gcc/x86_64-w64-mingw32/8.1.0\libstdc++.a(string-inst.o)
 .pdata$_ZNSt7__cxx1112basic_stringIcSt11char_traitsIcESaIcEEaSERKS4_
                0x0000000068f6d148        0xc C:/mingw64/bin/../lib/gcc/x86_64-w64-mingw32/8.1.0\libstdc++.a(string-inst.o)
 .pdata$_ZNSt7__cxx1112basic_stringIcSt11char_traitsIcESaIcEEaSEOS4_
                0x0000000068f6d154        0xc C:/mingw64/bin/../lib/gcc/x86_64-w64-mingw32/8.1.0\libstdc++.a(string-inst.o)
 .pdata$_ZNSt7__cxx1112basic_stringIcSt11char_traitsIcESaIcEE5beginEv
                0x0000000068f6d160        0xc C:/mingw64/bin/../lib/gcc/x86_64-w64-mingw32/8.1.0\libstdc++.a(string-inst.o)
 .pdata$_ZNKSt7__cxx1112basic_stringIcSt11char_traitsIcESaIcEE5beginEv
                0x0000000068f6d16c        0xc C:/mingw64/bin/../lib/gcc/x86_64-w64-mingw32/8.1.0\libstdc++.a(string-inst.o)
 .pdata$_ZNSt7__cxx1112basic_stringIcSt11char_traitsIcESaIcEE3endEv
                0x0000000068f6d178        0xc C:/mingw64/bin/../lib/gcc/x86_64-w64-mingw32/8.1.0\libstdc++.a(string-inst.o)
 .pdata$_ZNKSt7__cxx1112basic_stringIcSt11char_traitsIcESaIcEE3endEv
                0x0000000068f6d184        0xc C:/mingw64/bin/../lib/gcc/x86_64-w64-mingw32/8.1.0\libstdc++.a(string-inst.o)
 .pdata$_ZNSt7__cxx1112basic_stringIcSt11char_traitsIcESaIcEE6rbeginEv
                0x0000000068f6d190        0xc C:/mingw64/bin/../lib/gcc/x86_64-w64-mingw32/8.1.0\libstdc++.a(string-inst.o)
 .pdata$_ZNKSt7__cxx1112basic_stringIcSt11char_traitsIcESaIcEE6rbeginEv
                0x0000000068f6d19c        0xc C:/mingw64/bin/../lib/gcc/x86_64-w64-mingw32/8.1.0\libstdc++.a(string-inst.o)
 .pdata$_ZNSt7__cxx1112basic_stringIcSt11char_traitsIcESaIcEE4rendEv
                0x0000000068f6d1a8        0xc C:/mingw64/bin/../lib/gcc/x86_64-w64-mingw32/8.1.0\libstdc++.a(string-inst.o)
 .pdata$_ZNKSt7__cxx1112basic_stringIcSt11char_traitsIcESaIcEE4rendEv
                0x0000000068f6d1b4        0xc C:/mingw64/bin/../lib/gcc/x86_64-w64-mingw32/8.1.0\libstdc++.a(string-inst.o)
 .pdata$_ZNKSt7__cxx1112basic_stringIcSt11char_traitsIcESaIcEE6cbeginEv
                0x0000000068f6d1c0        0xc C:/mingw64/bin/../lib/gcc/x86_64-w64-mingw32/8.1.0\libstdc++.a(string-inst.o)
 .pdata$_ZNKSt7__cxx1112basic_stringIcSt11char_traitsIcESaIcEE4cendEv
                0x0000000068f6d1cc        0xc C:/mingw64/bin/../lib/gcc/x86_64-w64-mingw32/8.1.0\libstdc++.a(string-inst.o)
 .pdata$_ZNKSt7__cxx1112basic_stringIcSt11char_traitsIcESaIcEE7crbeginEv
                0x0000000068f6d1d8        0xc C:/mingw64/bin/../lib/gcc/x86_64-w64-mingw32/8.1.0\libstdc++.a(string-inst.o)
 .pdata$_ZNKSt7__cxx1112basic_stringIcSt11char_traitsIcESaIcEE5crendEv
                0x0000000068f6d1e4        0xc C:/mingw64/bin/../lib/gcc/x86_64-w64-mingw32/8.1.0\libstdc++.a(string-inst.o)
 .pdata$_ZNKSt7__cxx1112basic_stringIcSt11char_traitsIcESaIcEE4sizeEv
                0x0000000068f6d1f0        0xc C:/mingw64/bin/../lib/gcc/x86_64-w64-mingw32/8.1.0\libstdc++.a(string-inst.o)
 .pdata$_ZNKSt7__cxx1112basic_stringIcSt11char_traitsIcESaIcEE6lengthEv
                0x0000000068f6d1fc        0xc C:/mingw64/bin/../lib/gcc/x86_64-w64-mingw32/8.1.0\libstdc++.a(string-inst.o)
 .pdata$_ZNKSt7__cxx1112basic_stringIcSt11char_traitsIcESaIcEE8max_sizeEv
                0x0000000068f6d208        0xc C:/mingw64/bin/../lib/gcc/x86_64-w64-mingw32/8.1.0\libstdc++.a(string-inst.o)
 .pdata$_ZNKSt7__cxx1112basic_stringIcSt11char_traitsIcESaIcEE8capacityEv
                0x0000000068f6d214        0xc C:/mingw64/bin/../lib/gcc/x86_64-w64-mingw32/8.1.0\libstdc++.a(string-inst.o)
 .pdata$_ZNSt7__cxx1112basic_stringIcSt11char_traitsIcESaIcEE7reserveEy
                0x0000000068f6d220        0xc C:/mingw64/bin/../lib/gcc/x86_64-w64-mingw32/8.1.0\libstdc++.a(string-inst.o)
 .pdata$_ZNSt7__cxx1112basic_stringIcSt11char_traitsIcESaIcEE13shrink_to_fitEv
                0x0000000068f6d22c        0xc C:/mingw64/bin/../lib/gcc/x86_64-w64-mingw32/8.1.0\libstdc++.a(string-inst.o)
 .pdata$_ZNSt7__cxx1112basic_stringIcSt11char_traitsIcESaIcEE5clearEv
                0x0000000068f6d238        0xc C:/mingw64/bin/../lib/gcc/x86_64-w64-mingw32/8.1.0\libstdc++.a(string-inst.o)
 .pdata$_ZNKSt7__cxx1112basic_stringIcSt11char_traitsIcESaIcEE5emptyEv
                0x0000000068f6d244        0xc C:/mingw64/bin/../lib/gcc/x86_64-w64-mingw32/8.1.0\libstdc++.a(string-inst.o)
 .pdata$_ZNKSt7__cxx1112basic_stringIcSt11char_traitsIcESaIcEEixEy
                0x0000000068f6d250        0xc C:/mingw64/bin/../lib/gcc/x86_64-w64-mingw32/8.1.0\libstdc++.a(string-inst.o)
 .pdata$_ZNSt7__cxx1112basic_stringIcSt11char_traitsIcESaIcEEixEy
                0x0000000068f6d25c        0xc C:/mingw64/bin/../lib/gcc/x86_64-w64-mingw32/8.1.0\libstdc++.a(string-inst.o)
 .pdata$_ZNKSt7__cxx1112basic_stringIcSt11char_traitsIcESaIcEE2atEy
                0x0000000068f6d268        0xc C:/mingw64/bin/../lib/gcc/x86_64-w64-mingw32/8.1.0\libstdc++.a(string-inst.o)
 .pdata$_ZNSt7__cxx1112basic_stringIcSt11char_traitsIcESaIcEE2atEy
                0x0000000068f6d274        0xc C:/mingw64/bin/../lib/gcc/x86_64-w64-mingw32/8.1.0\libstdc++.a(string-inst.o)
 .pdata$_ZNSt7__cxx1112basic_stringIcSt11char_traitsIcESaIcEE5frontEv
                0x0000000068f6d280        0xc C:/mingw64/bin/../lib/gcc/x86_64-w64-mingw32/8.1.0\libstdc++.a(string-inst.o)
 .pdata$_ZNKSt7__cxx1112basic_stringIcSt11char_traitsIcESaIcEE5frontEv
                0x0000000068f6d28c        0xc C:/mingw64/bin/../lib/gcc/x86_64-w64-mingw32/8.1.0\libstdc++.a(string-inst.o)
 .pdata$_ZNSt7__cxx1112basic_stringIcSt11char_traitsIcESaIcEE4backEv
                0x0000000068f6d298        0xc C:/mingw64/bin/../lib/gcc/x86_64-w64-mingw32/8.1.0\libstdc++.a(string-inst.o)
 .pdata$_ZNKSt7__cxx1112basic_stringIcSt11char_traitsIcESaIcEE4backEv
                0x0000000068f6d2a4        0xc C:/mingw64/bin/../lib/gcc/x86_64-w64-mingw32/8.1.0\libstdc++.a(string-inst.o)
 .pdata$_ZNSt7__cxx1112basic_stringIcSt11char_traitsIcESaIcEEpLEc
                0x0000000068f6d2b0        0xc C:/mingw64/bin/../lib/gcc/x86_64-w64-mingw32/8.1.0\libstdc++.a(string-inst.o)
 .pdata$_ZNSt7__cxx1112basic_stringIcSt11char_traitsIcESaIcEE9push_backEc
                0x0000000068f6d2bc        0xc C:/mingw64/bin/../lib/gcc/x86_64-w64-mingw32/8.1.0\libstdc++.a(string-inst.o)
 .pdata$_ZNSt7__cxx1112basic_stringIcSt11char_traitsIcESaIcEE6assignERKS4_
                0x0000000068f6d2c8        0xc C:/mingw64/bin/../lib/gcc/x86_64-w64-mingw32/8.1.0\libstdc++.a(string-inst.o)
 .pdata$_ZNSt7__cxx1112basic_stringIcSt11char_traitsIcESaIcEE6assignEOS4_
                0x0000000068f6d2d4        0xc C:/mingw64/bin/../lib/gcc/x86_64-w64-mingw32/8.1.0\libstdc++.a(string-inst.o)
 .pdata$_ZNSt7__cxx1112basic_stringIcSt11char_traitsIcESaIcEE5eraseEyy
                0x0000000068f6d2e0        0xc C:/mingw64/bin/../lib/gcc/x86_64-w64-mingw32/8.1.0\libstdc++.a(string-inst.o)
 .pdata$_ZNSt7__cxx1112basic_stringIcSt11char_traitsIcESaIcEE5eraseEN9__gnu_cxx17__normal_iteratorIPKcS4_EE
                0x0000000068f6d2ec        0xc C:/mingw64/bin/../lib/gcc/x86_64-w64-mingw32/8.1.0\libstdc++.a(string-inst.o)
 .pdata$_ZNSt7__cxx1112basic_stringIcSt11char_traitsIcESaIcEE5eraseEN9__gnu_cxx17__normal_iteratorIPKcS4_EES9_
                0x0000000068f6d2f8        0xc C:/mingw64/bin/../lib/gcc/x86_64-w64-mingw32/8.1.0\libstdc++.a(string-inst.o)
 .pdata$_ZNSt7__cxx1112basic_stringIcSt11char_traitsIcESaIcEE8pop_backEv
                0x0000000068f6d304        0xc C:/mingw64/bin/../lib/gcc/x86_64-w64-mingw32/8.1.0\libstdc++.a(string-inst.o)
 .pdata$_ZNSt7__cxx1112basic_stringIcSt11char_traitsIcESaIcEE14_M_replace_auxEyyyc
                0x0000000068f6d310        0xc C:/mingw64/bin/../lib/gcc/x86_64-w64-mingw32/8.1.0\libstdc++.a(string-inst.o)
 .pdata$_ZNSt7__cxx1112basic_stringIcSt11char_traitsIcESaIcEE6appendEyc
                0x0000000068f6d31c        0xc C:/mingw64/bin/../lib/gcc/x86_64-w64-mingw32/8.1.0\libstdc++.a(string-inst.o)
 .pdata$_ZNSt7__cxx1112basic_stringIcSt11char_traitsIcESaIcEE6resizeEyc
                0x0000000068f6d328        0xc C:/mingw64/bin/../lib/gcc/x86_64-w64-mingw32/8.1.0\libstdc++.a(string-inst.o)
 .pdata$_ZNSt7__cxx1112basic_stringIcSt11char_traitsIcESaIcEE6resizeEy
                0x0000000068f6d334        0xc C:/mingw64/bin/../lib/gcc/x86_64-w64-mingw32/8.1.0\libstdc++.a(string-inst.o)
 .pdata$_ZNSt7__cxx1112basic_stringIcSt11char_traitsIcESaIcEE6assignEyc
                0x0000000068f6d340        0xc C:/mingw64/bin/../lib/gcc/x86_64-w64-mingw32/8.1.0\libstdc++.a(string-inst.o)
 .pdata$_ZNSt7__cxx1112basic_stringIcSt11char_traitsIcESaIcEEaSEc
                0x0000000068f6d34c        0xc C:/mingw64/bin/../lib/gcc/x86_64-w64-mingw32/8.1.0\libstdc++.a(string-inst.o)
 .pdata$_ZNSt7__cxx1112basic_stringIcSt11char_traitsIcESaIcEE6insertEyyc
                0x0000000068f6d358        0xc C:/mingw64/bin/../lib/gcc/x86_64-w64-mingw32/8.1.0\libstdc++.a(string-inst.o)
 .pdata$_ZNSt7__cxx1112basic_stringIcSt11char_traitsIcESaIcEE6insertEN9__gnu_cxx17__normal_iteratorIPKcS4_EEc
                0x0000000068f6d364        0xc C:/mingw64/bin/../lib/gcc/x86_64-w64-mingw32/8.1.0\libstdc++.a(string-inst.o)
 .pdata$_ZNSt7__cxx1112basic_stringIcSt11char_traitsIcESaIcEE7replaceEyyyc
                0x0000000068f6d370        0xc C:/mingw64/bin/../lib/gcc/x86_64-w64-mingw32/8.1.0\libstdc++.a(string-inst.o)
 .pdata$_ZNSt7__cxx1112basic_stringIcSt11char_traitsIcESaIcEE7replaceEN9__gnu_cxx17__normal_iteratorIPKcS4_EES9_yc
                0x0000000068f6d37c        0xc C:/mingw64/bin/../lib/gcc/x86_64-w64-mingw32/8.1.0\libstdc++.a(string-inst.o)
 .pdata$_ZNSt7__cxx1112basic_stringIcSt11char_traitsIcESaIcEE6insertEN9__gnu_cxx17__normal_iteratorIPKcS4_EEyc
                0x0000000068f6d388        0xc C:/mingw64/bin/../lib/gcc/x86_64-w64-mingw32/8.1.0\libstdc++.a(string-inst.o)
 .pdata$_ZNSt7__cxx1112basic_stringIcSt11char_traitsIcESaIcEE6assignERKS4_yy
                0x0000000068f6d394        0xc C:/mingw64/bin/../lib/gcc/x86_64-w64-mingw32/8.1.0\libstdc++.a(string-inst.o)
 .pdata$_ZNSt7__cxx1112basic_stringIcSt11char_traitsIcESaIcEE6assignEPKcy
                0x0000000068f6d3a0        0xc C:/mingw64/bin/../lib/gcc/x86_64-w64-mingw32/8.1.0\libstdc++.a(string-inst.o)
 .pdata$_ZNSt7__cxx1112basic_stringIcSt11char_traitsIcESaIcEEaSESt16initializer_listIcE
                0x0000000068f6d3ac        0xc C:/mingw64/bin/../lib/gcc/x86_64-w64-mingw32/8.1.0\libstdc++.a(string-inst.o)
 .pdata$_ZNSt7__cxx1112basic_stringIcSt11char_traitsIcESaIcEE6assignESt16initializer_listIcE
                0x0000000068f6d3b8        0xc C:/mingw64/bin/../lib/gcc/x86_64-w64-mingw32/8.1.0\libstdc++.a(string-inst.o)
 .pdata$_ZNSt7__cxx1112basic_stringIcSt11char_traitsIcESaIcEE6assignEPKc
                0x0000000068f6d3c4        0xc C:/mingw64/bin/../lib/gcc/x86_64-w64-mingw32/8.1.0\libstdc++.a(string-inst.o)
 .pdata$_ZNSt7__cxx1112basic_stringIcSt11char_traitsIcESaIcEE7replaceEyyPKcy
                0x0000000068f6d3d0        0xc C:/mingw64/bin/../lib/gcc/x86_64-w64-mingw32/8.1.0\libstdc++.a(string-inst.o)
 .pdata$_ZNSt7__cxx1112basic_stringIcSt11char_traitsIcESaIcEEaSEPKc
                0x0000000068f6d3dc        0xc C:/mingw64/bin/../lib/gcc/x86_64-w64-mingw32/8.1.0\libstdc++.a(string-inst.o)
 .pdata$_ZNSt7__cxx1112basic_stringIcSt11char_traitsIcESaIcEE6insertEyRKS4_
                0x0000000068f6d3e8        0xc C:/mingw64/bin/../lib/gcc/x86_64-w64-mingw32/8.1.0\libstdc++.a(string-inst.o)
 .pdata$_ZNSt7__cxx1112basic_stringIcSt11char_traitsIcESaIcEE6insertEyPKcy
                0x0000000068f6d3f4        0xc C:/mingw64/bin/../lib/gcc/x86_64-w64-mingw32/8.1.0\libstdc++.a(string-inst.o)
 .pdata$_ZNSt7__cxx1112basic_stringIcSt11char_traitsIcESaIcEE7replaceEyyRKS4_
                0x0000000068f6d400        0xc C:/mingw64/bin/../lib/gcc/x86_64-w64-mingw32/8.1.0\libstdc++.a(string-inst.o)
 .pdata$_ZNSt7__cxx1112basic_stringIcSt11char_traitsIcESaIcEE7replaceEN9__gnu_cxx17__normal_iteratorIPKcS4_EES9_RKS4_
                0x0000000068f6d40c        0xc C:/mingw64/bin/../lib/gcc/x86_64-w64-mingw32/8.1.0\libstdc++.a(string-inst.o)
 .pdata$_ZNSt7__cxx1112basic_stringIcSt11char_traitsIcESaIcEE7replaceEN9__gnu_cxx17__normal_iteratorIPKcS4_EES9_S8_y
                0x0000000068f6d418        0xc C:/mingw64/bin/../lib/gcc/x86_64-w64-mingw32/8.1.0\libstdc++.a(string-inst.o)
 .pdata$_ZNSt7__cxx1112basic_stringIcSt11char_traitsIcESaIcEE7replaceEN9__gnu_cxx17__normal_iteratorIPKcS4_EES9_PcSA_
                0x0000000068f6d424        0xc C:/mingw64/bin/../lib/gcc/x86_64-w64-mingw32/8.1.0\libstdc++.a(string-inst.o)
 .pdata$_ZNSt7__cxx1112basic_stringIcSt11char_traitsIcESaIcEE7replaceEN9__gnu_cxx17__normal_iteratorIPKcS4_EES9_S8_S8_
                0x0000000068f6d430        0xc C:/mingw64/bin/../lib/gcc/x86_64-w64-mingw32/8.1.0\libstdc++.a(string-inst.o)
 .pdata$_ZNSt7__cxx1112basic_stringIcSt11char_traitsIcESaIcEE7replaceEN9__gnu_cxx17__normal_iteratorIPKcS4_EES9_St16initializer_listIcE
                0x0000000068f6d43c        0xc C:/mingw64/bin/../lib/gcc/x86_64-w64-mingw32/8.1.0\libstdc++.a(string-inst.o)
 .pdata$_ZNSt7__cxx1112basic_stringIcSt11char_traitsIcESaIcEE6insertEyRKS4_yy
                0x0000000068f6d448        0xc C:/mingw64/bin/../lib/gcc/x86_64-w64-mingw32/8.1.0\libstdc++.a(string-inst.o)
 .pdata$_ZNSt7__cxx1112basic_stringIcSt11char_traitsIcESaIcEE7replaceEyyRKS4_yy
                0x0000000068f6d454        0xc C:/mingw64/bin/../lib/gcc/x86_64-w64-mingw32/8.1.0\libstdc++.a(string-inst.o)
 .pdata$_ZNSt7__cxx1112basic_stringIcSt11char_traitsIcESaIcEE7replaceEN9__gnu_cxx17__normal_iteratorIPKcS4_EES9_NS6_IPcS4_EESB_
                0x0000000068f6d460        0xc C:/mingw64/bin/../lib/gcc/x86_64-w64-mingw32/8.1.0\libstdc++.a(string-inst.o)
 .pdata$_ZNSt7__cxx1112basic_stringIcSt11char_traitsIcESaIcEE7replaceEN9__gnu_cxx17__normal_iteratorIPKcS4_EES9_S9_S9_
                0x0000000068f6d46c        0xc C:/mingw64/bin/../lib/gcc/x86_64-w64-mingw32/8.1.0\libstdc++.a(string-inst.o)
 .pdata$_ZNSt7__cxx1112basic_stringIcSt11char_traitsIcESaIcEE6insertEN9__gnu_cxx17__normal_iteratorIPcS4_EESt16initializer_listIcE
                0x0000000068f6d478        0xc C:/mingw64/bin/../lib/gcc/x86_64-w64-mingw32/8.1.0\libstdc++.a(string-inst.o)
 .pdata$_ZNSt7__cxx1112basic_stringIcSt11char_traitsIcESaIcEE7replaceEyyPKc
                0x0000000068f6d484        0xc C:/mingw64/bin/../lib/gcc/x86_64-w64-mingw32/8.1.0\libstdc++.a(string-inst.o)
 .pdata$_ZNSt7__cxx1112basic_stringIcSt11char_traitsIcESaIcEE6insertEyPKc
                0x0000000068f6d490        0xc C:/mingw64/bin/../lib/gcc/x86_64-w64-mingw32/8.1.0\libstdc++.a(string-inst.o)
 .pdata$_ZNSt7__cxx1112basic_stringIcSt11char_traitsIcESaIcEE7replaceEN9__gnu_cxx17__normal_iteratorIPKcS4_EES9_S8_
                0x0000000068f6d49c        0xc C:/mingw64/bin/../lib/gcc/x86_64-w64-mingw32/8.1.0\libstdc++.a(string-inst.o)
 .pdata$_ZNSt7__cxx1112basic_stringIcSt11char_traitsIcESaIcEE9_M_appendEPKcy
                0x0000000068f6d4a8        0xc C:/mingw64/bin/../lib/gcc/x86_64-w64-mingw32/8.1.0\libstdc++.a(string-inst.o)
 .pdata$_ZNSt7__cxx1112basic_stringIcSt11char_traitsIcESaIcEE6appendERKS4_
                0x0000000068f6d4b4        0xc C:/mingw64/bin/../lib/gcc/x86_64-w64-mingw32/8.1.0\libstdc++.a(string-inst.o)
 .pdata$_ZNSt7__cxx1112basic_stringIcSt11char_traitsIcESaIcEEpLERKS4_
                0x0000000068f6d4c0        0xc C:/mingw64/bin/../lib/gcc/x86_64-w64-mingw32/8.1.0\libstdc++.a(string-inst.o)
 .pdata$_ZNSt7__cxx1112basic_stringIcSt11char_traitsIcESaIcEE6appendERKS4_yy
                0x0000000068f6d4cc        0xc C:/mingw64/bin/../lib/gcc/x86_64-w64-mingw32/8.1.0\libstdc++.a(string-inst.o)
 .pdata$_ZNSt7__cxx1112basic_stringIcSt11char_traitsIcESaIcEE6appendEPKcy
                0x0000000068f6d4d8        0xc C:/mingw64/bin/../lib/gcc/x86_64-w64-mingw32/8.1.0\libstdc++.a(string-inst.o)
 .pdata$_ZNSt7__cxx1112basic_stringIcSt11char_traitsIcESaIcEE6appendEPKc
                0x0000000068f6d4e4        0xc C:/mingw64/bin/../lib/gcc/x86_64-w64-mingw32/8.1.0\libstdc++.a(string-inst.o)
 .pdata$_ZNSt7__cxx1112basic_stringIcSt11char_traitsIcESaIcEEpLEPKc
                0x0000000068f6d4f0        0xc C:/mingw64/bin/../lib/gcc/x86_64-w64-mingw32/8.1.0\libstdc++.a(string-inst.o)
 .pdata$_ZNSt7__cxx1112basic_stringIcSt11char_traitsIcESaIcEE6appendESt16initializer_listIcE
                0x0000000068f6d4fc        0xc C:/mingw64/bin/../lib/gcc/x86_64-w64-mingw32/8.1.0\libstdc++.a(string-inst.o)
 .pdata$_ZNSt7__cxx1112basic_stringIcSt11char_traitsIcESaIcEEpLESt16initializer_listIcE
                0x0000000068f6d508        0xc C:/mingw64/bin/../lib/gcc/x86_64-w64-mingw32/8.1.0\libstdc++.a(string-inst.o)
 .pdata$_ZNKSt7__cxx1112basic_stringIcSt11char_traitsIcESaIcEE4copyEPcyy
                0x0000000068f6d514        0xc C:/mingw64/bin/../lib/gcc/x86_64-w64-mingw32/8.1.0\libstdc++.a(string-inst.o)
 .pdata$_ZNSt7__cxx1112basic_stringIcSt11char_traitsIcESaIcEE4swapERS4_
                0x0000000068f6d520        0xc C:/mingw64/bin/../lib/gcc/x86_64-w64-mingw32/8.1.0\libstdc++.a(string-inst.o)
 .pdata$_ZNKSt7__cxx1112basic_stringIcSt11char_traitsIcESaIcEE5c_strEv
                0x0000000068f6d52c        0xc C:/mingw64/bin/../lib/gcc/x86_64-w64-mingw32/8.1.0\libstdc++.a(string-inst.o)
 .pdata$_ZNKSt7__cxx1112basic_stringIcSt11char_traitsIcESaIcEE4dataEv
                0x0000000068f6d538        0xc C:/mingw64/bin/../lib/gcc/x86_64-w64-mingw32/8.1.0\libstdc++.a(string-inst.o)
 .pdata$_ZNKSt7__cxx1112basic_stringIcSt11char_traitsIcESaIcEE13get_allocatorEv
                0x0000000068f6d544        0xc C:/mingw64/bin/../lib/gcc/x86_64-w64-mingw32/8.1.0\libstdc++.a(string-inst.o)
 .pdata$_ZNKSt7__cxx1112basic_stringIcSt11char_traitsIcESaIcEE4findEPKcyy
                0x0000000068f6d550        0xc C:/mingw64/bin/../lib/gcc/x86_64-w64-mingw32/8.1.0\libstdc++.a(string-inst.o)
 .pdata$_ZNKSt7__cxx1112basic_stringIcSt11char_traitsIcESaIcEE4findERKS4_y
                0x0000000068f6d55c        0xc C:/mingw64/bin/../lib/gcc/x86_64-w64-mingw32/8.1.0\libstdc++.a(string-inst.o)
 .pdata$_ZNKSt7__cxx1112basic_stringIcSt11char_traitsIcESaIcEE4findEPKcy
                0x0000000068f6d568        0xc C:/mingw64/bin/../lib/gcc/x86_64-w64-mingw32/8.1.0\libstdc++.a(string-inst.o)
 .pdata$_ZNKSt7__cxx1112basic_stringIcSt11char_traitsIcESaIcEE4findEcy
                0x0000000068f6d574        0xc C:/mingw64/bin/../lib/gcc/x86_64-w64-mingw32/8.1.0\libstdc++.a(string-inst.o)
 .pdata$_ZNKSt7__cxx1112basic_stringIcSt11char_traitsIcESaIcEE5rfindEPKcyy
                0x0000000068f6d580        0xc C:/mingw64/bin/../lib/gcc/x86_64-w64-mingw32/8.1.0\libstdc++.a(string-inst.o)
 .pdata$_ZNKSt7__cxx1112basic_stringIcSt11char_traitsIcESaIcEE5rfindERKS4_y
                0x0000000068f6d58c        0xc C:/mingw64/bin/../lib/gcc/x86_64-w64-mingw32/8.1.0\libstdc++.a(string-inst.o)
 .pdata$_ZNKSt7__cxx1112basic_stringIcSt11char_traitsIcESaIcEE5rfindEPKcy
                0x0000000068f6d598        0xc C:/mingw64/bin/../lib/gcc/x86_64-w64-mingw32/8.1.0\libstdc++.a(string-inst.o)
 .pdata$_ZNKSt7__cxx1112basic_stringIcSt11char_traitsIcESaIcEE5rfindEcy
                0x0000000068f6d5a4        0xc C:/mingw64/bin/../lib/gcc/x86_64-w64-mingw32/8.1.0\libstdc++.a(string-inst.o)
 .pdata$_ZNKSt7__cxx1112basic_stringIcSt11char_traitsIcESaIcEE13find_first_ofEPKcyy
                0x0000000068f6d5b0        0xc C:/mingw64/bin/../lib/gcc/x86_64-w64-mingw32/8.1.0\libstdc++.a(string-inst.o)
 .pdata$_ZNKSt7__cxx1112basic_stringIcSt11char_traitsIcESaIcEE13find_first_ofERKS4_y
                0x0000000068f6d5bc        0xc C:/mingw64/bin/../lib/gcc/x86_64-w64-mingw32/8.1.0\libstdc++.a(string-inst.o)
 .pdata$_ZNKSt7__cxx1112basic_stringIcSt11char_traitsIcESaIcEE13find_first_ofEPKcy
                0x0000000068f6d5c8        0xc C:/mingw64/bin/../lib/gcc/x86_64-w64-mingw32/8.1.0\libstdc++.a(string-inst.o)
 .pdata$_ZNKSt7__cxx1112basic_stringIcSt11char_traitsIcESaIcEE13find_first_ofEcy
                0x0000000068f6d5d4        0xc C:/mingw64/bin/../lib/gcc/x86_64-w64-mingw32/8.1.0\libstdc++.a(string-inst.o)
 .pdata$_ZNKSt7__cxx1112basic_stringIcSt11char_traitsIcESaIcEE12find_last_ofEPKcyy
                0x0000000068f6d5e0        0xc C:/mingw64/bin/../lib/gcc/x86_64-w64-mingw32/8.1.0\libstdc++.a(string-inst.o)
 .pdata$_ZNKSt7__cxx1112basic_stringIcSt11char_traitsIcESaIcEE12find_last_ofERKS4_y
                0x0000000068f6d5ec        0xc C:/mingw64/bin/../lib/gcc/x86_64-w64-mingw32/8.1.0\libstdc++.a(string-inst.o)
 .pdata$_ZNKSt7__cxx1112basic_stringIcSt11char_traitsIcESaIcEE12find_last_ofEPKcy
                0x0000000068f6d5f8        0xc C:/mingw64/bin/../lib/gcc/x86_64-w64-mingw32/8.1.0\libstdc++.a(string-inst.o)
 .pdata$_ZNKSt7__cxx1112basic_stringIcSt11char_traitsIcESaIcEE12find_last_ofEcy
                0x0000000068f6d604        0xc C:/mingw64/bin/../lib/gcc/x86_64-w64-mingw32/8.1.0\libstdc++.a(string-inst.o)
 .pdata$_ZNKSt7__cxx1112basic_stringIcSt11char_traitsIcESaIcEE17find_first_not_ofEPKcyy
                0x0000000068f6d610        0xc C:/mingw64/bin/../lib/gcc/x86_64-w64-mingw32/8.1.0\libstdc++.a(string-inst.o)
 .pdata$_ZNKSt7__cxx1112basic_stringIcSt11char_traitsIcESaIcEE17find_first_not_ofERKS4_y
                0x0000000068f6d61c        0xc C:/mingw64/bin/../lib/gcc/x86_64-w64-mingw32/8.1.0\libstdc++.a(string-inst.o)
 .pdata$_ZNKSt7__cxx1112basic_stringIcSt11char_traitsIcESaIcEE17find_first_not_ofEPKcy
                0x0000000068f6d628        0xc C:/mingw64/bin/../lib/gcc/x86_64-w64-mingw32/8.1.0\libstdc++.a(string-inst.o)
 .pdata$_ZNKSt7__cxx1112basic_stringIcSt11char_traitsIcESaIcEE17find_first_not_ofEcy
                0x0000000068f6d634        0xc C:/mingw64/bin/../lib/gcc/x86_64-w64-mingw32/8.1.0\libstdc++.a(string-inst.o)
 .pdata$_ZNKSt7__cxx1112basic_stringIcSt11char_traitsIcESaIcEE16find_last_not_ofEPKcyy
                0x0000000068f6d640        0xc C:/mingw64/bin/../lib/gcc/x86_64-w64-mingw32/8.1.0\libstdc++.a(string-inst.o)
 .pdata$_ZNKSt7__cxx1112basic_stringIcSt11char_traitsIcESaIcEE16find_last_not_ofERKS4_y
                0x0000000068f6d64c        0xc C:/mingw64/bin/../lib/gcc/x86_64-w64-mingw32/8.1.0\libstdc++.a(string-inst.o)
 .pdata$_ZNKSt7__cxx1112basic_stringIcSt11char_traitsIcESaIcEE16find_last_not_ofEPKcy
                0x0000000068f6d658        0xc C:/mingw64/bin/../lib/gcc/x86_64-w64-mingw32/8.1.0\libstdc++.a(string-inst.o)
 .pdata$_ZNKSt7__cxx1112basic_stringIcSt11char_traitsIcESaIcEE16find_last_not_ofEcy
                0x0000000068f6d664        0xc C:/mingw64/bin/../lib/gcc/x86_64-w64-mingw32/8.1.0\libstdc++.a(string-inst.o)
 .pdata$_ZNKSt7__cxx1112basic_stringIcSt11char_traitsIcESaIcEE7compareERKS4_
                0x0000000068f6d670        0xc C:/mingw64/bin/../lib/gcc/x86_64-w64-mingw32/8.1.0\libstdc++.a(string-inst.o)
 .pdata$_ZNKSt7__cxx1112basic_stringIcSt11char_traitsIcESaIcEE7compareEyyRKS4_
                0x0000000068f6d67c        0xc C:/mingw64/bin/../lib/gcc/x86_64-w64-mingw32/8.1.0\libstdc++.a(string-inst.o)
 .pdata$_ZNKSt7__cxx1112basic_stringIcSt11char_traitsIcESaIcEE7compareEyyRKS4_yy
                0x0000000068f6d688        0xc C:/mingw64/bin/../lib/gcc/x86_64-w64-mingw32/8.1.0\libstdc++.a(string-inst.o)
 .pdata$_ZNKSt7__cxx1112basic_stringIcSt11char_traitsIcESaIcEE7compareEPKc
                0x0000000068f6d694        0xc C:/mingw64/bin/../lib/gcc/x86_64-w64-mingw32/8.1.0\libstdc++.a(string-inst.o)
 .pdata$_ZNKSt7__cxx1112basic_stringIcSt11char_traitsIcESaIcEE7compareEyyPKc
                0x0000000068f6d6a0        0xc C:/mingw64/bin/../lib/gcc/x86_64-w64-mingw32/8.1.0\libstdc++.a(string-inst.o)
 .pdata$_ZNKSt7__cxx1112basic_stringIcSt11char_traitsIcESaIcEE7compareEyyPKcy
                0x0000000068f6d6ac        0xc C:/mingw64/bin/../lib/gcc/x86_64-w64-mingw32/8.1.0\libstdc++.a(string-inst.o)
 .pdata$_ZNSt7__cxx1112basic_stringIcSt11char_traitsIcESaIcEE12_Alloc_hiderC2EPcRKS3_
                0x0000000068f6d6b8        0xc C:/mingw64/bin/../lib/gcc/x86_64-w64-mingw32/8.1.0\libstdc++.a(string-inst.o)
 .pdata$_ZNSt7__cxx1112basic_stringIcSt11char_traitsIcESaIcEE12_Alloc_hiderC1EPcRKS3_
                0x0000000068f6d6c4        0xc C:/mingw64/bin/../lib/gcc/x86_64-w64-mingw32/8.1.0\libstdc++.a(string-inst.o)
 .pdata$_ZNSt7__cxx1112basic_stringIcSt11char_traitsIcESaIcEE12_Alloc_hiderC2EPcOS3_
                0x0000000068f6d6d0        0xc C:/mingw64/bin/../lib/gcc/x86_64-w64-mingw32/8.1.0\libstdc++.a(string-inst.o)
 .pdata$_ZNSt7__cxx1112basic_stringIcSt11char_traitsIcESaIcEE12_Alloc_hiderC1EPcOS3_
                0x0000000068f6d6dc        0xc C:/mingw64/bin/../lib/gcc/x86_64-w64-mingw32/8.1.0\libstdc++.a(string-inst.o)
 .pdata$_ZStplIcSt11char_traitsIcESaIcEENSt7__cxx1112basic_stringIT_T0_T1_EEPKS5_RKS8_
                0x0000000068f6d6e8        0xc C:/mingw64/bin/../lib/gcc/x86_64-w64-mingw32/8.1.0\libstdc++.a(string-inst.o)
 .pdata$_ZStplIcSt11char_traitsIcESaIcEENSt7__cxx1112basic_stringIT_T0_T1_EES5_RKS8_
                0x0000000068f6d6f4        0xc C:/mingw64/bin/../lib/gcc/x86_64-w64-mingw32/8.1.0\libstdc++.a(string-inst.o)
 .pdata$_ZNSt7__cxx1112basic_stringIcSt11char_traitsIcESaIcEE12_M_constructIN9__gnu_cxx17__normal_iteratorIPcS4_EEEEvT_SA_St20forward_iterator_tag
                0x0000000068f6d700        0xc C:/mingw64/bin/../lib/gcc/x86_64-w64-mingw32/8.1.0\libstdc++.a(string-inst.o)
 .pdata$_ZNSt7__cxx1112basic_stringIcSt11char_traitsIcESaIcEEC2IN9__gnu_cxx17__normal_iteratorIPcS4_EEvEET_SA_RKS3_
                0x0000000068f6d70c        0xc C:/mingw64/bin/../lib/gcc/x86_64-w64-mingw32/8.1.0\libstdc++.a(string-inst.o)
 .pdata$_ZNSt7__cxx1112basic_stringIcSt11char_traitsIcESaIcEEC1IN9__gnu_cxx17__normal_iteratorIPcS4_EEvEET_SA_RKS3_
                0x0000000068f6d718        0xc C:/mingw64/bin/../lib/gcc/x86_64-w64-mingw32/8.1.0\libstdc++.a(string-inst.o)
 .pdata$_ZNSt7__cxx1112basic_stringIcSt11char_traitsIcESaIcEE12_M_constructIN9__gnu_cxx17__normal_iteratorIPKcS4_EEEEvT_SB_St20forward_iterator_tag
                0x0000000068f6d724        0xc C:/mingw64/bin/../lib/gcc/x86_64-w64-mingw32/8.1.0\libstdc++.a(string-inst.o)
 .pdata$_ZNSt7__cxx1112basic_stringIcSt11char_traitsIcESaIcEEC2ERKS4_RKS3_
                0x0000000068f6d730        0xc C:/mingw64/bin/../lib/gcc/x86_64-w64-mingw32/8.1.0\libstdc++.a(string-inst.o)
 .pdata$_ZNSt7__cxx1112basic_stringIcSt11char_traitsIcESaIcEEC1ERKS4_RKS3_
                0x0000000068f6d73c        0xc C:/mingw64/bin/../lib/gcc/x86_64-w64-mingw32/8.1.0\libstdc++.a(string-inst.o)
 .pdata$_ZNSt7__cxx1112basic_stringIcSt11char_traitsIcESaIcEE12_M_constructIPcEEvT_S7_St20forward_iterator_tag
                0x0000000068f6d748        0xc C:/mingw64/bin/../lib/gcc/x86_64-w64-mingw32/8.1.0\libstdc++.a(string-inst.o)
 .pdata$_ZNSt7__cxx1112basic_stringIcSt11char_traitsIcESaIcEEC2ERKS4_
                0x0000000068f6d754        0xc C:/mingw64/bin/../lib/gcc/x86_64-w64-mingw32/8.1.0\libstdc++.a(string-inst.o)
 .pdata$_ZNSt7__cxx1112basic_stringIcSt11char_traitsIcESaIcEEC1ERKS4_
                0x0000000068f6d760        0xc C:/mingw64/bin/../lib/gcc/x86_64-w64-mingw32/8.1.0\libstdc++.a(string-inst.o)
 .pdata$_ZStplIcSt11char_traitsIcESaIcEENSt7__cxx1112basic_stringIT_T0_T1_EERKS8_SA_
                0x0000000068f6d76c        0xc C:/mingw64/bin/../lib/gcc/x86_64-w64-mingw32/8.1.0\libstdc++.a(string-inst.o)
 .pdata$_ZNSt7__cxx1112basic_stringIcSt11char_traitsIcESaIcEEC2IPcvEET_S7_RKS3_
                0x0000000068f6d778        0xc C:/mingw64/bin/../lib/gcc/x86_64-w64-mingw32/8.1.0\libstdc++.a(string-inst.o)
 .pdata$_ZNSt7__cxx1112basic_stringIcSt11char_traitsIcESaIcEEC1IPcvEET_S7_RKS3_
                0x0000000068f6d784        0xc C:/mingw64/bin/../lib/gcc/x86_64-w64-mingw32/8.1.0\libstdc++.a(string-inst.o)
 .pdata$_ZNSt7__cxx1112basic_stringIcSt11char_traitsIcESaIcEE12_M_constructIPKcEEvT_S8_St20forward_iterator_tag
                0x0000000068f6d790        0xc C:/mingw64/bin/../lib/gcc/x86_64-w64-mingw32/8.1.0\libstdc++.a(string-inst.o)
 .pdata$_ZNSt7__cxx1112basic_stringIcSt11char_traitsIcESaIcEEC2ERKS4_yRKS3_
                0x0000000068f6d79c        0xc C:/mingw64/bin/../lib/gcc/x86_64-w64-mingw32/8.1.0\libstdc++.a(string-inst.o)
 .pdata$_ZNSt7__cxx1112basic_stringIcSt11char_traitsIcESaIcEEC1ERKS4_yRKS3_
                0x0000000068f6d7a8        0xc C:/mingw64/bin/../lib/gcc/x86_64-w64-mingw32/8.1.0\libstdc++.a(string-inst.o)
 .pdata$_ZNSt7__cxx1112basic_stringIcSt11char_traitsIcESaIcEEC2ERKS4_yy
                0x0000000068f6d7b4        0xc C:/mingw64/bin/../lib/gcc/x86_64-w64-mingw32/8.1.0\libstdc++.a(string-inst.o)
 .pdata$_ZNSt7__cxx1112basic_stringIcSt11char_traitsIcESaIcEEC1ERKS4_yy
                0x0000000068f6d7c0        0xc C:/mingw64/bin/../lib/gcc/x86_64-w64-mingw32/8.1.0\libstdc++.a(string-inst.o)
 .pdata$_ZNSt7__cxx1112basic_stringIcSt11char_traitsIcESaIcEEC2ERKS4_yyRKS3_
                0x0000000068f6d7cc        0xc C:/mingw64/bin/../lib/gcc/x86_64-w64-mingw32/8.1.0\libstdc++.a(string-inst.o)
 .pdata$_ZNSt7__cxx1112basic_stringIcSt11char_traitsIcESaIcEEC1ERKS4_yyRKS3_
                0x0000000068f6d7d8        0xc C:/mingw64/bin/../lib/gcc/x86_64-w64-mingw32/8.1.0\libstdc++.a(string-inst.o)
 .pdata$_ZNSt7__cxx1112basic_stringIcSt11char_traitsIcESaIcEEC2EPKcyRKS3_
                0x0000000068f6d7e4        0xc C:/mingw64/bin/../lib/gcc/x86_64-w64-mingw32/8.1.0\libstdc++.a(string-inst.o)
 .pdata$_ZNSt7__cxx1112basic_stringIcSt11char_traitsIcESaIcEEC1EPKcyRKS3_
                0x0000000068f6d7f0        0xc C:/mingw64/bin/../lib/gcc/x86_64-w64-mingw32/8.1.0\libstdc++.a(string-inst.o)
 .pdata$_ZNSt7__cxx1112basic_stringIcSt11char_traitsIcESaIcEEC2EPKcRKS3_
                0x0000000068f6d7fc        0xc C:/mingw64/bin/../lib/gcc/x86_64-w64-mingw32/8.1.0\libstdc++.a(string-inst.o)
 .pdata$_ZNSt7__cxx1112basic_stringIcSt11char_traitsIcESaIcEEC1EPKcRKS3_
                0x0000000068f6d808        0xc C:/mingw64/bin/../lib/gcc/x86_64-w64-mingw32/8.1.0\libstdc++.a(string-inst.o)
 .pdata$_ZNSt7__cxx1112basic_stringIcSt11char_traitsIcESaIcEEC2ESt16initializer_listIcERKS3_
                0x0000000068f6d814        0xc C:/mingw64/bin/../lib/gcc/x86_64-w64-mingw32/8.1.0\libstdc++.a(string-inst.o)
 .pdata$_ZNSt7__cxx1112basic_stringIcSt11char_traitsIcESaIcEEC1ESt16initializer_listIcERKS3_
                0x0000000068f6d820        0xc C:/mingw64/bin/../lib/gcc/x86_64-w64-mingw32/8.1.0\libstdc++.a(string-inst.o)
 .pdata$_ZNSt7__cxx1112basic_stringIcSt11char_traitsIcESaIcEEC2IPKcvEET_S8_RKS3_
                0x0000000068f6d82c        0xc C:/mingw64/bin/../lib/gcc/x86_64-w64-mingw32/8.1.0\libstdc++.a(string-inst.o)
 .pdata$_ZNSt7__cxx1112basic_stringIcSt11char_traitsIcESaIcEEC1IPKcvEET_S8_RKS3_
                0x0000000068f6d838        0xc C:/mingw64/bin/../lib/gcc/x86_64-w64-mingw32/8.1.0\libstdc++.a(string-inst.o)
 .pdata$_ZNKSt7__cxx1112basic_stringIcSt11char_traitsIcESaIcEE6substrEyy
                0x0000000068f6d844        0xc C:/mingw64/bin/../lib/gcc/x86_64-w64-mingw32/8.1.0\libstdc++.a(string-inst.o)
 .pdata$_ZN9__gnu_cxxeqIPcNSt7__cxx1112basic_stringIcSt11char_traitsIcESaIcEEEEEbRKNS_17__normal_iteratorIT_T0_EESD_
                0x0000000068f6d850        0xc C:/mingw64/bin/../lib/gcc/x86_64-w64-mingw32/8.1.0\libstdc++.a(string-inst.o)
 .pdata$_ZN9__gnu_cxxeqIPKcNSt7__cxx1112basic_stringIcSt11char_traitsIcESaIcEEEEEbRKNS_17__normal_iteratorIT_T0_EESE_
                0x0000000068f6d85c        0xc C:/mingw64/bin/../lib/gcc/x86_64-w64-mingw32/8.1.0\libstdc++.a(string-inst.o)
 .pdata$_ZNKSt9bad_alloc4whatEv
                0x0000000068f6d868        0xc C:/mingw64/bin/../lib/gcc/x86_64-w64-mingw32/8.1.0\libstdc++.a(bad_alloc.o)
 .pdata$_ZNSt9bad_allocD2Ev
                0x0000000068f6d874        0xc C:/mingw64/bin/../lib/gcc/x86_64-w64-mingw32/8.1.0\libstdc++.a(bad_alloc.o)
 .pdata$_ZNSt9bad_allocD0Ev
                0x0000000068f6d880        0xc C:/mingw64/bin/../lib/gcc/x86_64-w64-mingw32/8.1.0\libstdc++.a(bad_alloc.o)
 .pdata$_ZNKSt8bad_cast4whatEv
                0x0000000068f6d88c        0xc C:/mingw64/bin/../lib/gcc/x86_64-w64-mingw32/8.1.0\libstdc++.a(bad_cast.o)
 .pdata$_ZNSt8bad_castD2Ev
                0x0000000068f6d898        0xc C:/mingw64/bin/../lib/gcc/x86_64-w64-mingw32/8.1.0\libstdc++.a(bad_cast.o)
 .pdata$_ZNSt8bad_castD0Ev
                0x0000000068f6d8a4        0xc C:/mingw64/bin/../lib/gcc/x86_64-w64-mingw32/8.1.0\libstdc++.a(bad_cast.o)
 .pdata$_ZNKSt10bad_typeid4whatEv
                0x0000000068f6d8b0        0xc C:/mingw64/bin/../lib/gcc/x86_64-w64-mingw32/8.1.0\libstdc++.a(bad_typeid.o)
 .pdata$_ZNSt10bad_typeidD2Ev
                0x0000000068f6d8bc        0xc C:/mingw64/bin/../lib/gcc/x86_64-w64-mingw32/8.1.0\libstdc++.a(bad_typeid.o)
 .pdata$_ZNSt10bad_typeidD0Ev
                0x0000000068f6d8c8        0xc C:/mingw64/bin/../lib/gcc/x86_64-w64-mingw32/8.1.0\libstdc++.a(bad_typeid.o)
 .pdata         0x0000000068f6d8d4      0x210 C:/mingw64/bin/../lib/gcc/x86_64-w64-mingw32/8.1.0\libstdc++.a(cp-demangle.o)
 .pdata.unlikely
                0x0000000068f6dae4        0xc C:/mingw64/bin/../lib/gcc/x86_64-w64-mingw32/8.1.0\libstdc++.a(cp-demangle.o)
 .pdata$__cxa_call_terminate
                0x0000000068f6daf0        0xc C:/mingw64/bin/../lib/gcc/x86_64-w64-mingw32/8.1.0\libstdc++.a(eh_call.o)
 .pdata$__cxa_current_exception_type
                0x0000000068f6dafc        0xc C:/mingw64/bin/../lib/gcc/x86_64-w64-mingw32/8.1.0\libstdc++.a(eh_type.o)
 .pdata$_ZSt15set_new_handlerPFvvE
                0x0000000068f6db08        0xc C:/mingw64/bin/../lib/gcc/x86_64-w64-mingw32/8.1.0\libstdc++.a(new_handler.o)
 .pdata$_ZSt15get_new_handlerv
                0x0000000068f6db14        0xc C:/mingw64/bin/../lib/gcc/x86_64-w64-mingw32/8.1.0\libstdc++.a(new_handler.o)
 .pdata         0x0000000068f6db20       0x24 C:/mingw64/bin/../lib/gcc/x86_64-w64-mingw32/8.1.0/../../../../x86_64-w64-mingw32/lib/../lib/libmingw32.a(lib64_libmingw32_a-gccmain.o)
 .pdata         0x0000000068f6db44       0x18 C:/mingw64/bin/../lib/gcc/x86_64-w64-mingw32/8.1.0/../../../../x86_64-w64-mingw32/lib/../lib/libmingw32.a(lib64_libmingw32_a-gs_support.o)
 .pdata         0x0000000068f6db5c       0x24 C:/mingw64/bin/../lib/gcc/x86_64-w64-mingw32/8.1.0/../../../../x86_64-w64-mingw32/lib/../lib/libmingw32.a(lib64_libmingw32_a-tlssup.o)
 .pdata         0x0000000068f6db80       0x18 C:/mingw64/bin/../lib/gcc/x86_64-w64-mingw32/8.1.0/../../../../x86_64-w64-mingw32/lib/../lib/libmingw32.a(lib64_libmingw32_a-mingw_helpers.o)
 .pdata.unlikely
                0x0000000068f6db98        0xc C:/mingw64/bin/../lib/gcc/x86_64-w64-mingw32/8.1.0/../../../../x86_64-w64-mingw32/lib/../lib/libmingw32.a(lib64_libmingw32_a-pseudo-reloc.o)
 .pdata         0x0000000068f6dba4       0x18 C:/mingw64/bin/../lib/gcc/x86_64-w64-mingw32/8.1.0/../../../../x86_64-w64-mingw32/lib/../lib/libmingw32.a(lib64_libmingw32_a-pseudo-reloc.o)
 .pdata         0x0000000068f6dbbc       0x24 C:/mingw64/bin/../lib/gcc/x86_64-w64-mingw32/8.1.0/../../../../x86_64-w64-mingw32/lib/../lib/libmingw32.a(lib64_libmingw32_a-crt_handler.o)
 .pdata         0x0000000068f6dbe0       0x30 C:/mingw64/bin/../lib/gcc/x86_64-w64-mingw32/8.1.0/../../../../x86_64-w64-mingw32/lib/../lib/libmingw32.a(lib64_libmingw32_a-tlsthrd.o)
 .pdata         0x0000000068f6dc10       0x78 C:/mingw64/bin/../lib/gcc/x86_64-w64-mingw32/8.1.0/../../../../x86_64-w64-mingw32/lib/../lib/libmingw32.a(lib64_libmingw32_a-pesect.o)
 .pdata         0x0000000068f6dc88        0xc C:/mingw64/bin/../lib/gcc/x86_64-w64-mingw32/8.1.0/../../../../x86_64-w64-mingw32/lib/../lib/libmingw32.a(lib64_libmingw32_a-CRT_fp10.o)
 .pdata         0x0000000068f6dc94       0xb4 C:/mingw64/bin/../lib/gcc/x86_64-w64-mingw32/8.1.0/libgcc.a(gthr-win32.o)
 .pdata         0x0000000068f6dd48       0xe4 C:/mingw64/bin/../lib/gcc/x86_64-w64-mingw32/8.1.0/libgcc_eh.a(unwind-seh.o)
 .pdata         0x0000000068f6de2c       0x3c C:/mingw64/bin/../lib/gcc/x86_64-w64-mingw32/8.1.0/libgcc_eh.a(emutls.o)
 .pdata         0x0000000068f6de68        0xc C:/mingw64/bin/../lib/gcc/x86_64-w64-mingw32/8.1.0/../../../../x86_64-w64-mingw32/lib/../lib/libmingwex.a(lib64_libmingwex_a-dllentry.o)
 .pdata         0x0000000068f6de74       0x24 C:/mingw64/bin/../lib/gcc/x86_64-w64-mingw32/8.1.0/../../../../x86_64-w64-mingw32/lib/../lib/libmsvcrt.a(lib64_libmsvcrt_os_a-onexit_table.o)
 .pdata         0x0000000068f6de98        0xc C:/mingw64/bin/../lib/gcc/x86_64-w64-mingw32/8.1.0/../../../../x86_64-w64-mingw32/lib/../lib/libmsvcrt.a(lib64_libmsvcrt_os_a-acrt_iob_func.o)
 .pdata         0x0000000068f6dea4       0x24 C:/mingw64/bin/../lib/gcc/x86_64-w64-mingw32/8.1.0/../../../../x86_64-w64-mingw32/lib/../lib/libmsvcrt.a(lib64_libmsvcrt_os_a-vsprintf_s.o)
 .pdata         0x0000000068f6dec8       0x18 C:/mingw64/bin/../lib/gcc/x86_64-w64-mingw32/8.1.0/../../../../x86_64-w64-mingw32/lib/../lib/libmingw32.a(lib64_libmingw32_a-tlsmthread.o)
 .pdata         0x0000000068f6dee0        0xc C:/mingw64/bin/../lib/gcc/x86_64-w64-mingw32/8.1.0/../../../../x86_64-w64-mingw32/lib/../lib/libmingwex.a(lib64_libmingwex_a-vsnprintf.o)
 .pdata.startup
                0x0000000068f6deec        0xc C:/mingw64/bin/../lib/gcc/x86_64-w64-mingw32/8.1.0/crtend.o

.xdata          0x0000000068f6e000     0x2e00
 *(.xdata*)
 .xdata         0x0000000068f6e000       0x34 C:/mingw64/bin/../lib/gcc/x86_64-w64-mingw32/8.1.0/../../../../x86_64-w64-mingw32/lib/../lib/dllcrt2.o
 .xdata         0x0000000068f6e034        0x8 C:/mingw64/bin/../lib/gcc/x86_64-w64-mingw32/8.1.0/crtbegin.o
 .xdata         0x0000000068f6e03c      0x45c Common__CtrlCmdUtil.cpp.obj
 .xdata$_ZNSt7__cxx1112basic_stringIwSt11char_traitsIwESaIwEEC4EOS4_
                0x0000000068f6e498        0x4 Common__CtrlCmdUtil.cpp.obj
 .xdata$_ZN17REC_FILE_SET_INFOC4EOS_
                0x0000000068f6e49c        0x8 Common__CtrlCmdUtil.cpp.obj
 .xdata$_ZN21EPGDB_SEARCH_KEY_INFOC4EOS_
                0x0000000068f6e4a4        0x8 Common__CtrlCmdUtil.cpp.obj
 .xdata$_ZN16EPGDB_EVENT_INFOC4EOS_
                0x0000000068f6e4ac        0x8 Common__CtrlCmdUtil.cpp.obj
 .xdata$_ZNSt11char_traitsIwE7compareEPKwS2_y
                0x0000000068f6e4b4        0x4 Common__CtrlCmdUtil.cpp.obj
 .xdata$_ZNSt11char_traitsIwE6lengthEPKw
                0x0000000068f6e4b8        0x4 Common__CtrlCmdUtil.cpp.obj
 .xdata$_ZN16CtrlCmdUtilImpl_9ReadVALUEEtPPKhS1_P11_SYSTEMTIME
                0x0000000068f6e4bc        0x4 Common__CtrlCmdUtil.cpp.obj
 .xdata$_ZN16CtrlCmdUtilImpl_24CCUTIL_WriteVectorVALUE_ItEEmtPhmRKSt6vectorIT_SaIS3_EE
                0x0000000068f6e4c0        0x4 Common__CtrlCmdUtil.cpp.obj
 .xdata$_ZN16CtrlCmdUtilImpl_23CCUTIL_ReadVectorVALUE_ItEEbtPPKhS2_PSt6vectorIT_SaIS5_EE
                0x0000000068f6e4c4       0x18 Common__CtrlCmdUtil.cpp.obj
 .xdata$_ZN16CtrlCmdUtilImpl_24CCUTIL_WriteVectorVALUE_I11EPG_CONTENTEEmtPhmRKSt6vectorIT_SaIS4_EE
                0x0000000068f6e4dc       0x10 Common__CtrlCmdUtil.cpp.obj
 .xdata$_ZN16CtrlCmdUtilImpl_23CCUTIL_ReadVectorVALUE_I14EPG_EVENT_DATAEEbtPPKhS3_PSt6vectorIT_SaIS6_EE
                0x0000000068f6e4ec       0x18 Common__CtrlCmdUtil.cpp.obj
 .xdata$_ZN16CtrlCmdUtilImpl_24CCUTIL_WriteVectorVALUE_I17REC_FILE_SET_INFOEEmtPhmRKSt6vectorIT_SaIS4_EE
                0x0000000068f6e504       0x14 Common__CtrlCmdUtil.cpp.obj
 .xdata$_Z10swprintf_sILy32EEiRAT__wPKwz
                0x0000000068f6e518        0x8 Common__CtrlCmdUtil.cpp.obj
 .xdata$_ZNKSt7__cxx1112basic_stringIwSt11char_traitsIwESaIwEE7compareEyyPKw
                0x0000000068f6e520       0x10 Common__CtrlCmdUtil.cpp.obj
 .xdata$_ZNSt7__cxx1112basic_stringIwSt11char_traitsIwESaIwEE10_M_disposeEv
                0x0000000068f6e530        0x4 Common__CtrlCmdUtil.cpp.obj
 .xdata$_ZNSt6vectorINSt7__cxx1112basic_stringIwSt11char_traitsIwESaIwEEESaIS5_EE7reserveEy
                0x0000000068f6e534       0x14 Common__CtrlCmdUtil.cpp.obj
 .xdata$_ZNSt6vectorI21EPGDB_SEARCH_KEY_INFOSaIS0_EE7reserveEy
                0x0000000068f6e548       0x14 Common__CtrlCmdUtil.cpp.obj
 .xdata$_ZNSt7__cxx1112basic_stringIwSt11char_traitsIwESaIwEE7_S_copyEPwPKwy
                0x0000000068f6e55c        0x8 Common__CtrlCmdUtil.cpp.obj
 .xdata$_ZNSt7__cxx1112basic_stringIwSt11char_traitsIwESaIwEEC4ERKS4_
                0x0000000068f6e564        0xc Common__CtrlCmdUtil.cpp.obj
 .xdata$_ZN17REC_FILE_SET_INFOC4ERKS_
                0x0000000068f6e570       0x2c Common__CtrlCmdUtil.cpp.obj
 .xdata$_ZNSt7__cxx1112basic_stringIwSt11char_traitsIwESaIwEE9_M_mutateEyyPKwy
                0x0000000068f6e59c       0x14 Common__CtrlCmdUtil.cpp.obj
 .xdata$_ZN16CtrlCmdUtilImpl_23CCUTIL_ReadVectorVALUE_INSt7__cxx1112basic_stringIwSt11char_traitsIwESaIwEEEEEbtPPKhS8_PSt6vectorIT_SaISB_EE
                0x0000000068f6e5b0       0x18 Common__CtrlCmdUtil.cpp.obj
 .xdata$_ZNKSt6vectorI17REC_FILE_SET_INFOSaIS0_EE12_M_check_lenEyPKc
                0x0000000068f6e5c8        0x8 Common__CtrlCmdUtil.cpp.obj
 .xdata$_ZNKSt6vectorI11EPG_CONTENTSaIS0_EE12_M_check_lenEyPKc
                0x0000000068f6e5d0        0x8 Common__CtrlCmdUtil.cpp.obj
 .xdata$_ZNKSt6vectorI22EPGDB_SEARCH_DATE_INFOSaIS0_EE12_M_check_lenEyPKc
                0x0000000068f6e5d8        0x8 Common__CtrlCmdUtil.cpp.obj
 .xdata$_ZNKSt6vectorIxSaIxEE12_M_check_lenEyPKc
                0x0000000068f6e5e0        0x8 Common__CtrlCmdUtil.cpp.obj
 .xdata$_ZNSt7__cxx1112basic_stringIwSt11char_traitsIwESaIwEE7_S_moveEPwPKwy
                0x0000000068f6e5e8        0x4 Common__CtrlCmdUtil.cpp.obj
 .xdata$_ZNSt7__cxx1112basic_stringIwSt11char_traitsIwESaIwEE10_M_replaceEyyPKwy
                0x0000000068f6e5ec       0x18 Common__CtrlCmdUtil.cpp.obj
 .xdata$_ZNSt7__cxx1112basic_stringIwSt11char_traitsIwESaIwEEaSEPKw
                0x0000000068f6e604        0x8 Common__CtrlCmdUtil.cpp.obj
 .xdata$_ZNSt12_Destroy_auxILb0EE9__destroyIP31EPGDB_AUDIO_COMPONENT_INFO_DATAEEvT_S4_
                0x0000000068f6e60c        0xc Common__CtrlCmdUtil.cpp.obj
 .xdata$_ZNSt6vectorI16EPGDB_EVENT_INFOSaIS0_EE7reserveEy
                0x0000000068f6e618       0x14 Common__CtrlCmdUtil.cpp.obj
 .xdata$_ZNSt12_Destroy_auxILb0EE9__destroyIP17REC_FILE_SET_INFOEEvT_S4_
                0x0000000068f6e62c        0xc Common__CtrlCmdUtil.cpp.obj
 .xdata$_ZNSt6vectorI17REC_FILE_SET_INFOSaIS0_EE17_M_realloc_insertIJRKS0_EEEvN9__gnu_cxx17__normal_iteratorIPS0_S2_EEDpOT_
                0x0000000068f6e638       0x3c Common__CtrlCmdUtil.cpp.obj
 .xdata$_ZNSt6vectorI17REC_FILE_SET_INFOSaIS0_EE9push_backERKS0_
                0x0000000068f6e674        0x8 Common__CtrlCmdUtil.cpp.obj
 .xdata$_ZNSt20__uninitialized_copyILb0EE13__uninit_copyISt13move_iteratorIP31EPGDB_AUDIO_COMPONENT_INFO_DATAES4_EET0_T_S7_S6_
                0x0000000068f6e67c        0x8 Common__CtrlCmdUtil.cpp.obj
 .xdata$_ZNSt27__uninitialized_default_n_1ILb0EE18__uninit_default_nIP31EPGDB_AUDIO_COMPONENT_INFO_DATAyEET_S4_T0_
                0x0000000068f6e684        0x8 Common__CtrlCmdUtil.cpp.obj
 .xdata$_ZN16CtrlCmdUtilImpl_23CCUTIL_ReadVectorVALUE_I31EPGDB_AUDIO_COMPONENT_INFO_DATAEEbtPPKhS3_PSt6vectorIT_SaIS6_EE
                0x0000000068f6e68c       0x18 Common__CtrlCmdUtil.cpp.obj
 .xdata$_ZNSt27__uninitialized_default_n_1ILb0EE18__uninit_default_nIP16EPGDB_EVENT_INFOyEET_S4_T0_
                0x0000000068f6e6a4        0x4 Common__CtrlCmdUtil.cpp.obj
 .xdata$_ZNSt27__uninitialized_default_n_1ILb1EE18__uninit_default_nIP22EPGDB_SEARCH_DATE_INFOyEET_S4_T0_
                0x0000000068f6e6a8        0x4 Common__CtrlCmdUtil.cpp.obj
 .xdata$_ZNSt27__uninitialized_default_n_1ILb0EE18__uninit_default_nIP21EPGDB_SEARCH_KEY_INFOyEET_S4_T0_
                0x0000000068f6e6ac        0x8 Common__CtrlCmdUtil.cpp.obj
 .xdata$_ZNSt27__uninitialized_default_n_1ILb0EE18__uninit_default_nIP17REC_FILE_SET_INFOyEET_S4_T0_
                0x0000000068f6e6b4        0x8 Common__CtrlCmdUtil.cpp.obj
 .xdata$_ZN16CtrlCmdUtilImpl_23CCUTIL_ReadVectorVALUE_I17REC_FILE_SET_INFOEEbtPPKhS3_PSt6vectorIT_SaIS6_EE
                0x0000000068f6e6bc       0x18 Common__CtrlCmdUtil.cpp.obj
 .xdata$_ZNSt11__copy_moveILb1ELb1ESt26random_access_iterator_tagE8__copy_mIxEEPT_PKS3_S6_S4_
                0x0000000068f6e6d4        0x8 Common__CtrlCmdUtil.cpp.obj
 .xdata$_ZN16CtrlCmdUtilImpl_23CCUTIL_ReadVectorVALUE_IxEEbtPPKhS2_PSt6vectorIT_SaIS5_EE
                0x0000000068f6e6dc       0x18 Common__CtrlCmdUtil.cpp.obj
 .xdata$_ZNSt6vectorIxSaIxEE9push_backERKx
                0x0000000068f6e6f4       0x18 Common__CtrlCmdUtil.cpp.obj
 .xdata$_ZNSt11__copy_moveILb1ELb1ESt26random_access_iterator_tagE8__copy_mI11EPG_CONTENTEEPT_PKS4_S7_S5_
                0x0000000068f6e70c        0x8 Common__CtrlCmdUtil.cpp.obj
 .xdata$_ZN16CtrlCmdUtilImpl_23CCUTIL_ReadVectorVALUE_I11EPG_CONTENTEEbtPPKhS3_PSt6vectorIT_SaIS6_EE
                0x0000000068f6e714       0x18 Common__CtrlCmdUtil.cpp.obj
 .xdata$_ZN16CtrlCmdUtilImpl_23CCUTIL_ReadVectorVALUE_I16EPGDB_EVENT_INFOEEbtPPKhS3_PSt6vectorIT_SaIS6_EE
                0x0000000068f6e72c       0x18 Common__CtrlCmdUtil.cpp.obj
 .xdata$_ZNSt6vectorI11EPG_CONTENTSaIS0_EE9push_backERKS0_
                0x0000000068f6e744       0x18 Common__CtrlCmdUtil.cpp.obj
 .xdata$_ZNSt11__copy_moveILb1ELb1ESt26random_access_iterator_tagE8__copy_mI22EPGDB_SEARCH_DATE_INFOEEPT_PKS4_S7_S5_
                0x0000000068f6e75c        0x8 Common__CtrlCmdUtil.cpp.obj
 .xdata$_ZN16CtrlCmdUtilImpl_23CCUTIL_ReadVectorVALUE_I22EPGDB_SEARCH_DATE_INFOEEbtPPKhS3_PSt6vectorIT_SaIS6_EE
                0x0000000068f6e764       0x18 Common__CtrlCmdUtil.cpp.obj
 .xdata$_ZN16CtrlCmdUtilImpl_23CCUTIL_ReadVectorVALUE_I21EPGDB_SEARCH_KEY_INFOEEbtPPKhS3_PSt6vectorIT_SaIS6_EE
                0x0000000068f6e77c       0x18 Common__CtrlCmdUtil.cpp.obj
 .xdata$_ZNSt6vectorI22EPGDB_SEARCH_DATE_INFOSaIS0_EE9push_backERKS0_
                0x0000000068f6e794       0x18 Common__CtrlCmdUtil.cpp.obj
 .xdata         0x0000000068f6e7ac      0x3a4 Common__PathUtil.cpp.obj
 .xdata$_ZNSt11char_traitsIwE4findEPKwyRS1_
                0x0000000068f6eb50        0x4 Common__PathUtil.cpp.obj
 .xdata$_ZNKSt7__cxx1112basic_stringIwSt11char_traitsIwESaIwEE5rfindEwy
                0x0000000068f6eb54        0x4 Common__PathUtil.cpp.obj
 .xdata$_ZNKSt7__cxx1112basic_stringIwSt11char_traitsIwESaIwEE13find_first_ofEPKwy
                0x0000000068f6eb58       0x10 Common__PathUtil.cpp.obj
 .xdata$_ZNKSt7__cxx1112basic_stringIwSt11char_traitsIwESaIwEE17find_first_not_ofEwy
                0x0000000068f6eb68        0x4 Common__PathUtil.cpp.obj
 .xdata$_ZNSt7__cxx1112basic_stringIwSt11char_traitsIwESaIwEE13_M_set_lengthEy
                0x0000000068f6eb6c        0x4 Common__PathUtil.cpp.obj
 .xdata$_ZNKSt7__cxx1112basic_stringIwSt11char_traitsIwESaIwEE8_M_checkEyPKc
                0x0000000068f6eb70        0x8 Common__PathUtil.cpp.obj
 .xdata$_ZNKSt7__cxx1112basic_stringIwSt11char_traitsIwESaIwEE7compareEPKw
                0x0000000068f6eb78        0xc Common__PathUtil.cpp.obj
 .xdata$_ZNSt7__cxx1112basic_stringIwSt11char_traitsIwESaIwEE5eraseEyy
                0x0000000068f6eb84        0xc Common__PathUtil.cpp.obj
 .xdata$_ZNSt7__cxx1112basic_stringIwSt11char_traitsIwESaIwEE12_M_constructIPKwEEvT_S8_St20forward_iterator_tag
                0x0000000068f6eb90        0xc Common__PathUtil.cpp.obj
 .xdata$_ZNSt7__cxx1112basic_stringIwSt11char_traitsIwESaIwEEC4ERKS4_yy
                0x0000000068f6eb9c       0x10 Common__PathUtil.cpp.obj
 .xdata$_ZNSt7__cxx1112basic_stringIwSt11char_traitsIwESaIwEE12_M_constructIPwEEvT_S7_St20forward_iterator_tag
                0x0000000068f6ebac        0xc Common__PathUtil.cpp.obj
 .xdata$_ZNSt7__cxx1112basic_stringIwSt11char_traitsIwESaIwEEC4ERKS4_
                0x0000000068f6ebb8        0x4 Common__PathUtil.cpp.obj
 .xdata$_ZNK11filesystem_4path13has_root_nameEv
                0x0000000068f6ebbc        0xc Common__PathUtil.cpp.obj
 .xdata$_ZNK11filesystem_4path18has_root_directoryEv
                0x0000000068f6ebc8        0xc Common__PathUtil.cpp.obj
 .xdata$_ZNK11filesystem_4path11is_absoluteEv
                0x0000000068f6ebd4        0x8 Common__PathUtil.cpp.obj
 .xdata$_ZNSt7__cxx1112basic_stringIwSt11char_traitsIwESaIwEE9push_backEw
                0x0000000068f6ebdc       0x10 Common__PathUtil.cpp.obj
 .xdata$_ZNSt7__cxx1112basic_stringIwSt11char_traitsIwESaIwEE9_M_appendEPKwy
                0x0000000068f6ebec        0xc Common__PathUtil.cpp.obj
 .xdata$_ZNSt7__cxx1112basic_stringIwSt11char_traitsIwESaIwEE6appendEPKw
                0x0000000068f6ebf8        0x8 Common__PathUtil.cpp.obj
 .xdata         0x0000000068f6ec00      0x120 Common__PipeServer.cpp.obj
 .xdata$_ZZN7thread_C4IP11CPipeServerEEPFvT_ES3_EN2Th4funcEPv
                0x0000000068f6ed20       0x1c Common__PipeServer.cpp.obj
 .xdata$_Z26AddDebugLogFormatNoNewlinePKwz
                0x0000000068f6ed3c        0xc Common__PipeServer.cpp.obj
 .xdata$_ZNSt8functionIFvR10CCmdStreamS1_EEaSERKS3_
                0x0000000068f6ed48       0x1c Common__PipeServer.cpp.obj
 .xdata$_ZNKSt7__cxx1112basic_stringIwSt11char_traitsIwESaIwEE4findEPKwyy
                0x0000000068f6ed64       0x14 Common__PipeServer.cpp.obj
 .xdata$_ZNKSt7__cxx1112basic_stringIwSt11char_traitsIwESaIwEE4findEPKwy
                0x0000000068f6ed78        0x8 Common__PipeServer.cpp.obj
 .xdata$_ZStplIwSt11char_traitsIwESaIwEENSt7__cxx1112basic_stringIT_T0_T1_EEPKS5_RKS8_
                0x0000000068f6ed80       0x24 Common__PipeServer.cpp.obj
 .xdata$_ZNSt7__cxx1112basic_stringIwSt11char_traitsIwESaIwEE7replaceEyyPKw
                0x0000000068f6eda4        0x8 Common__PipeServer.cpp.obj
 .xdata         0x0000000068f6edac       0xfc Common__SendCtrlCmd.cpp.obj
 .xdata$_Z9sprintf_sILy16EEiRAT__cPKcz
                0x0000000068f6eea8        0x8 Common__SendCtrlCmd.cpp.obj
 .xdata$_ZNSt7__cxx1112basic_stringIwSt11char_traitsIwESaIwEE6assignEPKw
                0x0000000068f6eeb0        0x8 Common__SendCtrlCmd.cpp.obj
 .xdata         0x0000000068f6eeb8      0x108 Common__StringUtil.cpp.obj
 .xdata$_ZNSt6vectorIwSaIwEE17_M_default_appendEy
                0x0000000068f6efc0       0x14 Common__StringUtil.cpp.obj
 .xdata$_ZNSt6vectorIwSaIwEE6resizeEy
                0x0000000068f6efd4        0x4 Common__StringUtil.cpp.obj
 .xdata$_ZNSt6vectorIcSaIcEE17_M_default_appendEy
                0x0000000068f6efd8       0x14 Common__StringUtil.cpp.obj
 .xdata$_ZNSt6vectorIcSaIcEE6resizeEy
                0x0000000068f6efec        0x4 Common__StringUtil.cpp.obj
 .xdata$_ZNSt7__cxx1112basic_stringIwSt11char_traitsIwESaIwEE7replaceEyyPKwy
                0x0000000068f6eff0        0x8 Common__StringUtil.cpp.obj
 .xdata$_ZNSt7__cxx1112basic_stringIwSt11char_traitsIwESaIwEEC4ERKS4_yy
                0x0000000068f6eff8        0xc Common__StringUtil.cpp.obj
 .xdata$_ZNSt7__cxx1112basic_stringIwSt11char_traitsIwESaIwEE9_M_assignERKS4_
                0x0000000068f6f004       0x10 Common__StringUtil.cpp.obj
 .xdata$_ZNSt7__cxx1112basic_stringIwSt11char_traitsIwESaIwEEaSEOS4_
                0x0000000068f6f014       0x14 Common__StringUtil.cpp.obj
 .xdata$_ZNSt7__cxx1112basic_stringIcSt11char_traitsIcESaIcEE7_S_moveEPcPKcy
                0x0000000068f6f028        0x4 Common__StringUtil.cpp.obj
 .xdata$_ZNSt7__cxx1112basic_stringIcSt11char_traitsIcESaIcEE7_S_copyEPcPKcy
                0x0000000068f6f02c        0x8 Common__StringUtil.cpp.obj
 .xdata$_ZNSt7__cxx1112basic_stringIcSt11char_traitsIcESaIcEE9_M_mutateEyyPKcy
                0x0000000068f6f034       0x18 Common__StringUtil.cpp.obj
 .xdata$_ZNSt7__cxx1112basic_stringIcSt11char_traitsIcESaIcEE10_M_replaceEyyPKcy
                0x0000000068f6f04c       0x18 Common__StringUtil.cpp.obj
 .xdata$_ZN6TVTest10CTVTestAppD1Ev
                0x0000000068f6f064        0x4 EpgTimerPlugIn.cpp.obj
 .xdata$_ZN6TVTest13CTVTestPlugin10GetVersionEv
                0x0000000068f6f068        0x4 EpgTimerPlugIn.cpp.obj
 .xdata$_ZN6TVTest13CTVTestPlugin10InitializeEv
                0x0000000068f6f06c        0x4 EpgTimerPlugIn.cpp.obj
 .xdata$_ZN6TVTest13CTVTestPlugin8FinalizeEv
                0x0000000068f6f070        0x4 EpgTimerPlugIn.cpp.obj
 .xdata         0x0000000068f6f074      0x1c8 EpgTimerPlugIn.cpp.obj
 .xdata$_ZN6TVTest10CTVTestAppD0Ev
                0x0000000068f6f23c        0x4 EpgTimerPlugIn.cpp.obj
 .xdata$_ZN6TVTest10CTVTestApp10SetChannelEiit
                0x0000000068f6f240        0x8 EpgTimerPlugIn.cpp.obj
 .xdata$_ZN6TVTest10CTVTestApp13SetDriverNameEPKw
                0x0000000068f6f248        0x8 EpgTimerPlugIn.cpp.obj
 .xdata$_ZN6TVTest13CTVTestPluginD4Ev
                0x0000000068f6f250        0x4 EpgTimerPlugIn.cpp.obj
 .xdata$_ZN10CCmdStreamaSEOS_
                0x0000000068f6f254        0x8 EpgTimerPlugIn.cpp.obj
 .xdata$_ZSt4swapI10CCmdStreamENSt9enable_ifIXsrSt6__and_IJSt6__not_ISt15__is_tuple_likeIT_EESt21is_move_constructibleIS5_ESt18is_move_assignableIS5_EEE5valueEvE4typeERS5_SF_
                0x0000000068f6f25c        0xc EpgTimerPlugIn.cpp.obj
 .xdata$_ZN15CEpgTimerPlugInD4Ev
                0x0000000068f6f268       0x10 EpgTimerPlugIn.cpp.obj
 .xdata$_ZN15CEpgTimerPlugInD1Ev
                0x0000000068f6f278        0x4 EpgTimerPlugIn.cpp.obj
 .xdata$_ZN15CEpgTimerPlugInD0Ev
                0x0000000068f6f27c        0x8 EpgTimerPlugIn.cpp.obj
 .xdata         0x0000000068f6f284       0xbc StreamCtrlDlg.cpp.obj
 .xdata$_ZN12CSendCtrlCmd11SendCmdDataImEEmmRKT_P10CCmdStream
                0x0000000068f6f340       0x24 StreamCtrlDlg.cpp.obj
 .xdata$_ZN12CSendCtrlCmd15SendNwPlayStartEm
                0x0000000068f6f364        0x8 StreamCtrlDlg.cpp.obj
 .xdata$_ZN12CSendCtrlCmd14SendNwPlayStopEm
                0x0000000068f6f36c        0x8 StreamCtrlDlg.cpp.obj
 .xdata$_ZN12CSendCtrlCmd11SendCmdDataI14NWPLAY_POS_CMDEEmmRKT_P10CCmdStream
                0x0000000068f6f374       0x24 StreamCtrlDlg.cpp.obj
 .xdata$_ZN12CSendCtrlCmd16SendNwPlayGetPosEP14NWPLAY_POS_CMD
                0x0000000068f6f398       0x20 StreamCtrlDlg.cpp.obj
 .xdata$_ZN12CSendCtrlCmd21SendAndReceiveCmdDataI16NWPLAY_PLAY_INFOS1_EEmmRKT_PT0_
                0x0000000068f6f3b8       0x28 StreamCtrlDlg.cpp.obj
 .xdata$_ZNK10__cxxabiv117__class_type_info11__do_upcastEPKS0_PPv
                0x0000000068f6f3e0        0x8 C:/mingw64/bin/../lib/gcc/x86_64-w64-mingw32/8.1.0\libstdc++.a(class_type_info.o)
 .xdata$_ZNK10__cxxabiv117__class_type_info20__do_find_public_srcExPKvPKS0_S2_
                0x0000000068f6f3e8        0x4 C:/mingw64/bin/../lib/gcc/x86_64-w64-mingw32/8.1.0\libstdc++.a(class_type_info.o)
 .xdata$_ZN10__cxxabiv117__class_type_infoD2Ev
                0x0000000068f6f3ec        0x4 C:/mingw64/bin/../lib/gcc/x86_64-w64-mingw32/8.1.0\libstdc++.a(class_type_info.o)
 .xdata$_ZN10__cxxabiv117__class_type_infoD0Ev
                0x0000000068f6f3f0        0x8 C:/mingw64/bin/../lib/gcc/x86_64-w64-mingw32/8.1.0\libstdc++.a(class_type_info.o)
 .xdata$_ZNK10__cxxabiv117__class_type_info12__do_dyncastExNS0_10__sub_kindEPKS0_PKvS3_S5_RNS0_16__dyncast_resultE
                0x0000000068f6f3f8       0x10 C:/mingw64/bin/../lib/gcc/x86_64-w64-mingw32/8.1.0\libstdc++.a(class_type_info.o)
 .xdata$_ZNK10__cxxabiv117__class_type_info11__do_upcastEPKS0_PKvRNS0_15__upcast_resultE
                0x0000000068f6f408        0xc C:/mingw64/bin/../lib/gcc/x86_64-w64-mingw32/8.1.0\libstdc++.a(class_type_info.o)
 .xdata$_ZNK10__cxxabiv117__class_type_info10__do_catchEPKSt9type_infoPPvj
                0x0000000068f6f414       0x10 C:/mingw64/bin/../lib/gcc/x86_64-w64-mingw32/8.1.0\libstdc++.a(class_type_info.o)
 .xdata$_ZdlPv  0x0000000068f6f424        0x4 C:/mingw64/bin/../lib/gcc/x86_64-w64-mingw32/8.1.0\libstdc++.a(del_op.o)
 .xdata$_ZdlPvy
                0x0000000068f6f428        0x4 C:/mingw64/bin/../lib/gcc/x86_64-w64-mingw32/8.1.0\libstdc++.a(del_ops.o)
 .xdata$_ZNK9__gnu_cxx24__concurrence_lock_error4whatEv
                0x0000000068f6f42c        0x4 C:/mingw64/bin/../lib/gcc/x86_64-w64-mingw32/8.1.0\libstdc++.a(eh_alloc.o)
 .xdata$_ZNK9__gnu_cxx26__concurrence_unlock_error4whatEv
                0x0000000068f6f430        0x4 C:/mingw64/bin/../lib/gcc/x86_64-w64-mingw32/8.1.0\libstdc++.a(eh_alloc.o)
 .xdata$_ZN9__gnu_cxx24__concurrence_lock_errorD1Ev
                0x0000000068f6f434        0x4 C:/mingw64/bin/../lib/gcc/x86_64-w64-mingw32/8.1.0\libstdc++.a(eh_alloc.o)
 .xdata$_ZN9__gnu_cxx26__concurrence_unlock_errorD1Ev
                0x0000000068f6f438        0x4 C:/mingw64/bin/../lib/gcc/x86_64-w64-mingw32/8.1.0\libstdc++.a(eh_alloc.o)
 .xdata$_ZN9__gnu_cxx24__concurrence_lock_errorD0Ev
                0x0000000068f6f43c        0x8 C:/mingw64/bin/../lib/gcc/x86_64-w64-mingw32/8.1.0\libstdc++.a(eh_alloc.o)
 .xdata$_ZN9__gnu_cxx26__concurrence_unlock_errorD0Ev
                0x0000000068f6f444        0x8 C:/mingw64/bin/../lib/gcc/x86_64-w64-mingw32/8.1.0\libstdc++.a(eh_alloc.o)
 .xdata$__tcf_0
                0x0000000068f6f44c        0xc C:/mingw64/bin/../lib/gcc/x86_64-w64-mingw32/8.1.0\libstdc++.a(eh_alloc.o)
 .xdata$_ZN9__gnu_cxx30__throw_concurrence_lock_errorEv
                0x0000000068f6f458        0x8 C:/mingw64/bin/../lib/gcc/x86_64-w64-mingw32/8.1.0\libstdc++.a(eh_alloc.o)
 .xdata$_ZN9__gnu_cxx32__throw_concurrence_unlock_errorEv
                0x0000000068f6f460        0x8 C:/mingw64/bin/../lib/gcc/x86_64-w64-mingw32/8.1.0\libstdc++.a(eh_alloc.o)
 .xdata$_ZN12_GLOBAL__N_14pool4freeEPv.constprop.2
                0x0000000068f6f468       0x28 C:/mingw64/bin/../lib/gcc/x86_64-w64-mingw32/8.1.0\libstdc++.a(eh_alloc.o)
 .xdata$_ZN12_GLOBAL__N_14pool8allocateEy.constprop.3
                0x0000000068f6f490       0x28 C:/mingw64/bin/../lib/gcc/x86_64-w64-mingw32/8.1.0\libstdc++.a(eh_alloc.o)
 .xdata$_ZN9__gnu_cxx9__freeresEv
                0x0000000068f6f4b8        0x8 C:/mingw64/bin/../lib/gcc/x86_64-w64-mingw32/8.1.0\libstdc++.a(eh_alloc.o)
 .xdata$__cxa_allocate_exception
                0x0000000068f6f4c0       0x14 C:/mingw64/bin/../lib/gcc/x86_64-w64-mingw32/8.1.0\libstdc++.a(eh_alloc.o)
 .xdata$__cxa_free_exception
                0x0000000068f6f4d4        0xc C:/mingw64/bin/../lib/gcc/x86_64-w64-mingw32/8.1.0\libstdc++.a(eh_alloc.o)
 .xdata$__cxa_allocate_dependent_exception
                0x0000000068f6f4e0       0x10 C:/mingw64/bin/../lib/gcc/x86_64-w64-mingw32/8.1.0\libstdc++.a(eh_alloc.o)
 .xdata$__cxa_free_dependent_exception
                0x0000000068f6f4f0        0xc C:/mingw64/bin/../lib/gcc/x86_64-w64-mingw32/8.1.0\libstdc++.a(eh_alloc.o)
 .xdata.startup._GLOBAL__sub_I__ZN9__gnu_cxx9__freeresEv
                0x0000000068f6f4fc        0x8 C:/mingw64/bin/../lib/gcc/x86_64-w64-mingw32/8.1.0\libstdc++.a(eh_alloc.o)
 .xdata$__cxa_get_exception_ptr
                0x0000000068f6f504        0x4 C:/mingw64/bin/../lib/gcc/x86_64-w64-mingw32/8.1.0\libstdc++.a(eh_catch.o)
 .xdata$__cxa_begin_catch
                0x0000000068f6f508        0x8 C:/mingw64/bin/../lib/gcc/x86_64-w64-mingw32/8.1.0\libstdc++.a(eh_catch.o)
 .xdata$__cxa_end_catch
                0x0000000068f6f510        0x8 C:/mingw64/bin/../lib/gcc/x86_64-w64-mingw32/8.1.0\libstdc++.a(eh_catch.o)
 .xdata$_ZSt18uncaught_exceptionv
                0x0000000068f6f518        0x8 C:/mingw64/bin/../lib/gcc/x86_64-w64-mingw32/8.1.0\libstdc++.a(eh_catch.o)
 .xdata$_ZSt19uncaught_exceptionsv
                0x0000000068f6f520        0x8 C:/mingw64/bin/../lib/gcc/x86_64-w64-mingw32/8.1.0\libstdc++.a(eh_catch.o)
 .xdata$_ZNSt9exceptionD2Ev
                0x0000000068f6f528        0x4 C:/mingw64/bin/../lib/gcc/x86_64-w64-mingw32/8.1.0\libstdc++.a(eh_exception.o)
 .xdata$_ZNSt13bad_exceptionD2Ev
                0x0000000068f6f52c        0x4 C:/mingw64/bin/../lib/gcc/x86_64-w64-mingw32/8.1.0\libstdc++.a(eh_exception.o)
 .xdata$_ZNKSt9exception4whatEv
                0x0000000068f6f530        0x4 C:/mingw64/bin/../lib/gcc/x86_64-w64-mingw32/8.1.0\libstdc++.a(eh_exception.o)
 .xdata$_ZNKSt13bad_exception4whatEv
                0x0000000068f6f534        0x4 C:/mingw64/bin/../lib/gcc/x86_64-w64-mingw32/8.1.0\libstdc++.a(eh_exception.o)
 .xdata$_ZNSt9exceptionD0Ev
                0x0000000068f6f538        0x4 C:/mingw64/bin/../lib/gcc/x86_64-w64-mingw32/8.1.0\libstdc++.a(eh_exception.o)
 .xdata$_ZNSt13bad_exceptionD0Ev
                0x0000000068f6f53c        0x4 C:/mingw64/bin/../lib/gcc/x86_64-w64-mingw32/8.1.0\libstdc++.a(eh_exception.o)
 .xdata$_ZN10__cxxabiv115__forced_unwindD2Ev
                0x0000000068f6f540        0x4 C:/mingw64/bin/../lib/gcc/x86_64-w64-mingw32/8.1.0\libstdc++.a(eh_exception.o)
 .xdata$_ZN10__cxxabiv115__forced_unwindD0Ev
                0x0000000068f6f544        0x4 C:/mingw64/bin/../lib/gcc/x86_64-w64-mingw32/8.1.0\libstdc++.a(eh_exception.o)
 .xdata$_ZN10__cxxabiv119__foreign_exceptionD2Ev
                0x0000000068f6f548        0x4 C:/mingw64/bin/../lib/gcc/x86_64-w64-mingw32/8.1.0\libstdc++.a(eh_exception.o)
 .xdata$_ZN10__cxxabiv119__foreign_exceptionD0Ev
                0x0000000068f6f54c        0x4 C:/mingw64/bin/../lib/gcc/x86_64-w64-mingw32/8.1.0\libstdc++.a(eh_exception.o)
 .xdata$_ZGTtNKSt9exceptionD1Ev
                0x0000000068f6f550        0x4 C:/mingw64/bin/../lib/gcc/x86_64-w64-mingw32/8.1.0\libstdc++.a(eh_exception.o)
 .xdata$_ZGTtNKSt13bad_exceptionD1Ev
                0x0000000068f6f554        0x4 C:/mingw64/bin/../lib/gcc/x86_64-w64-mingw32/8.1.0\libstdc++.a(eh_exception.o)
 .xdata$__cxa_get_globals
                0x0000000068f6f558        0x4 C:/mingw64/bin/../lib/gcc/x86_64-w64-mingw32/8.1.0\libstdc++.a(eh_globals.o)
 .xdata$__cxa_get_globals_fast
                0x0000000068f6f55c        0x4 C:/mingw64/bin/../lib/gcc/x86_64-w64-mingw32/8.1.0\libstdc++.a(eh_globals.o)
 .xdata$_ZL16get_adjusted_ptrPKSt9type_infoS1_PPv
                0x0000000068f6f560        0xc C:/mingw64/bin/../lib/gcc/x86_64-w64-mingw32/8.1.0\libstdc++.a(eh_personality.o)
 .xdata$_ZL21base_of_encoded_valuehP15_Unwind_Context
                0x0000000068f6f56c        0x8 C:/mingw64/bin/../lib/gcc/x86_64-w64-mingw32/8.1.0\libstdc++.a(eh_personality.o)
 .xdata$_ZL28read_encoded_value_with_basehyPKhPy
                0x0000000068f6f574        0xc C:/mingw64/bin/../lib/gcc/x86_64-w64-mingw32/8.1.0\libstdc++.a(eh_personality.o)
 .xdata$_ZL17parse_lsda_headerP15_Unwind_ContextPKhP16lsda_header_info
                0x0000000068f6f580       0x10 C:/mingw64/bin/../lib/gcc/x86_64-w64-mingw32/8.1.0\libstdc++.a(eh_personality.o)
 .xdata$_ZL15get_ttype_entryP16lsda_header_infoy
                0x0000000068f6f590        0x8 C:/mingw64/bin/../lib/gcc/x86_64-w64-mingw32/8.1.0\libstdc++.a(eh_personality.o)
 .xdata$_ZL20check_exception_specP16lsda_header_infoPKSt9type_infoPvx
                0x0000000068f6f598       0x10 C:/mingw64/bin/../lib/gcc/x86_64-w64-mingw32/8.1.0\libstdc++.a(eh_personality.o)
 .xdata$_ZN10__cxxabiv1L21__gxx_personality_impEiiyP17_Unwind_ExceptionP15_Unwind_Context
                0x0000000068f6f5a8       0x38 C:/mingw64/bin/../lib/gcc/x86_64-w64-mingw32/8.1.0\libstdc++.a(eh_personality.o)
 .xdata$__cxa_call_unexpected
                0x0000000068f6f5e0       0x34 C:/mingw64/bin/../lib/gcc/x86_64-w64-mingw32/8.1.0\libstdc++.a(eh_personality.o)
 .xdata$__gxx_personality_seh0
                0x0000000068f6f614        0x8 C:/mingw64/bin/../lib/gcc/x86_64-w64-mingw32/8.1.0\libstdc++.a(eh_personality.o)
 .xdata$_ZN10__cxxabiv111__terminateEPFvvE
                0x0000000068f6f61c       0x30 C:/mingw64/bin/../lib/gcc/x86_64-w64-mingw32/8.1.0\libstdc++.a(eh_terminate.o)
 .xdata$_ZSt9terminatev
                0x0000000068f6f64c        0x8 C:/mingw64/bin/../lib/gcc/x86_64-w64-mingw32/8.1.0\libstdc++.a(eh_terminate.o)
 .xdata$_ZN10__cxxabiv112__unexpectedEPFvvE
                0x0000000068f6f654        0x8 C:/mingw64/bin/../lib/gcc/x86_64-w64-mingw32/8.1.0\libstdc++.a(eh_terminate.o)
 .xdata$_ZSt10unexpectedv
                0x0000000068f6f65c        0x8 C:/mingw64/bin/../lib/gcc/x86_64-w64-mingw32/8.1.0\libstdc++.a(eh_terminate.o)
 .xdata$_ZSt13set_terminatePFvvE
                0x0000000068f6f664        0x4 C:/mingw64/bin/../lib/gcc/x86_64-w64-mingw32/8.1.0\libstdc++.a(eh_terminate.o)
 .xdata$_ZSt13get_terminatev
                0x0000000068f6f668        0x4 C:/mingw64/bin/../lib/gcc/x86_64-w64-mingw32/8.1.0\libstdc++.a(eh_terminate.o)
 .xdata$_ZSt14set_unexpectedPFvvE
                0x0000000068f6f66c        0x4 C:/mingw64/bin/../lib/gcc/x86_64-w64-mingw32/8.1.0\libstdc++.a(eh_terminate.o)
 .xdata$_ZSt14get_unexpectedv
                0x0000000068f6f670        0x4 C:/mingw64/bin/../lib/gcc/x86_64-w64-mingw32/8.1.0\libstdc++.a(eh_terminate.o)
 .xdata$_ZL23__gxx_exception_cleanup19_Unwind_Reason_CodeP17_Unwind_Exception
                0x0000000068f6f674        0x8 C:/mingw64/bin/../lib/gcc/x86_64-w64-mingw32/8.1.0\libstdc++.a(eh_throw.o)
 .xdata$__cxa_init_primary_exception
                0x0000000068f6f67c        0x8 C:/mingw64/bin/../lib/gcc/x86_64-w64-mingw32/8.1.0\libstdc++.a(eh_throw.o)
 .xdata$__cxa_throw
                0x0000000068f6f684        0xc C:/mingw64/bin/../lib/gcc/x86_64-w64-mingw32/8.1.0\libstdc++.a(eh_throw.o)
 .xdata$__cxa_rethrow
                0x0000000068f6f690        0x8 C:/mingw64/bin/../lib/gcc/x86_64-w64-mingw32/8.1.0\libstdc++.a(eh_throw.o)
 .xdata$_Znwy   0x0000000068f6f698        0x8 C:/mingw64/bin/../lib/gcc/x86_64-w64-mingw32/8.1.0\libstdc++.a(new_op.o)
 .xdata$__cxa_pure_virtual
                0x0000000068f6f6a0        0x8 C:/mingw64/bin/../lib/gcc/x86_64-w64-mingw32/8.1.0\libstdc++.a(pure.o)
 .xdata$__cxa_deleted_virtual
                0x0000000068f6f6a8        0x8 C:/mingw64/bin/../lib/gcc/x86_64-w64-mingw32/8.1.0\libstdc++.a(pure.o)
 .xdata$_ZN10__cxxabiv120__si_class_type_infoD2Ev
                0x0000000068f6f6b0        0x4 C:/mingw64/bin/../lib/gcc/x86_64-w64-mingw32/8.1.0\libstdc++.a(si_class_type_info.o)
 .xdata$_ZN10__cxxabiv120__si_class_type_infoD0Ev
                0x0000000068f6f6b4        0x8 C:/mingw64/bin/../lib/gcc/x86_64-w64-mingw32/8.1.0\libstdc++.a(si_class_type_info.o)
 .xdata$_ZNK10__cxxabiv120__si_class_type_info20__do_find_public_srcExPKvPKNS_17__class_type_infoES2_
                0x0000000068f6f6bc        0xc C:/mingw64/bin/../lib/gcc/x86_64-w64-mingw32/8.1.0\libstdc++.a(si_class_type_info.o)
 .xdata$_ZNK10__cxxabiv120__si_class_type_info12__do_dyncastExNS_17__class_type_info10__sub_kindEPKS1_PKvS4_S6_RNS1_16__dyncast_resultE
                0x0000000068f6f6c8       0x18 C:/mingw64/bin/../lib/gcc/x86_64-w64-mingw32/8.1.0\libstdc++.a(si_class_type_info.o)
 .xdata$_ZNK10__cxxabiv120__si_class_type_info11__do_upcastEPKNS_17__class_type_infoEPKvRNS1_15__upcast_resultE
                0x0000000068f6f6e0       0x10 C:/mingw64/bin/../lib/gcc/x86_64-w64-mingw32/8.1.0\libstdc++.a(si_class_type_info.o)
 .xdata$_ZNSt9type_infoD2Ev
                0x0000000068f6f6f0        0x4 C:/mingw64/bin/../lib/gcc/x86_64-w64-mingw32/8.1.0\libstdc++.a(tinfo.o)
 .xdata$_ZNKSt9type_info14__is_pointer_pEv
                0x0000000068f6f6f4        0x4 C:/mingw64/bin/../lib/gcc/x86_64-w64-mingw32/8.1.0\libstdc++.a(tinfo.o)
 .xdata$_ZNKSt9type_info11__do_upcastEPKN10__cxxabiv117__class_type_infoEPPv
                0x0000000068f6f6f8        0x4 C:/mingw64/bin/../lib/gcc/x86_64-w64-mingw32/8.1.0\libstdc++.a(tinfo.o)
 .xdata$_ZNSt9type_infoD0Ev
                0x0000000068f6f6fc        0x4 C:/mingw64/bin/../lib/gcc/x86_64-w64-mingw32/8.1.0\libstdc++.a(tinfo.o)
 .xdata$_ZNKSt9type_infoeqERKS_
                0x0000000068f6f700        0x8 C:/mingw64/bin/../lib/gcc/x86_64-w64-mingw32/8.1.0\libstdc++.a(tinfo.o)
 .xdata$_ZNKSt9type_info10__do_catchEPKS_PPvj
                0x0000000068f6f708        0x4 C:/mingw64/bin/../lib/gcc/x86_64-w64-mingw32/8.1.0\libstdc++.a(tinfo.o)
 .xdata$_ZN9__gnu_cxx27__verbose_terminate_handlerEv
                0x0000000068f6f70c       0x3c C:/mingw64/bin/../lib/gcc/x86_64-w64-mingw32/8.1.0\libstdc++.a(vterminate.o)
 .xdata$_ZNKSt11logic_error4whatEv
                0x0000000068f6f748        0x4 C:/mingw64/bin/../lib/gcc/x86_64-w64-mingw32/8.1.0\libstdc++.a(stdexcept.o)
 .xdata$_ZNKSt13runtime_error4whatEv
                0x0000000068f6f74c        0x4 C:/mingw64/bin/../lib/gcc/x86_64-w64-mingw32/8.1.0\libstdc++.a(stdexcept.o)
 .xdata$_ZNSt11logic_errorD2Ev
                0x0000000068f6f750        0x8 C:/mingw64/bin/../lib/gcc/x86_64-w64-mingw32/8.1.0\libstdc++.a(stdexcept.o)
 .xdata$_ZNSt12domain_errorD2Ev
                0x0000000068f6f758        0x4 C:/mingw64/bin/../lib/gcc/x86_64-w64-mingw32/8.1.0\libstdc++.a(stdexcept.o)
 .xdata$_ZNSt16invalid_argumentD2Ev
                0x0000000068f6f75c        0x4 C:/mingw64/bin/../lib/gcc/x86_64-w64-mingw32/8.1.0\libstdc++.a(stdexcept.o)
 .xdata$_ZNSt12length_errorD2Ev
                0x0000000068f6f760        0x4 C:/mingw64/bin/../lib/gcc/x86_64-w64-mingw32/8.1.0\libstdc++.a(stdexcept.o)
 .xdata$_ZNSt12out_of_rangeD2Ev
                0x0000000068f6f764        0x4 C:/mingw64/bin/../lib/gcc/x86_64-w64-mingw32/8.1.0\libstdc++.a(stdexcept.o)
 .xdata$_ZNSt11logic_errorD0Ev
                0x0000000068f6f768        0x8 C:/mingw64/bin/../lib/gcc/x86_64-w64-mingw32/8.1.0\libstdc++.a(stdexcept.o)
 .xdata$_ZNSt12domain_errorD0Ev
                0x0000000068f6f770        0x8 C:/mingw64/bin/../lib/gcc/x86_64-w64-mingw32/8.1.0\libstdc++.a(stdexcept.o)
 .xdata$_ZNSt16invalid_argumentD0Ev
                0x0000000068f6f778        0x8 C:/mingw64/bin/../lib/gcc/x86_64-w64-mingw32/8.1.0\libstdc++.a(stdexcept.o)
 .xdata$_ZNSt12length_errorD0Ev
                0x0000000068f6f780        0x8 C:/mingw64/bin/../lib/gcc/x86_64-w64-mingw32/8.1.0\libstdc++.a(stdexcept.o)
 .xdata$_ZNSt12out_of_rangeD0Ev
                0x0000000068f6f788        0x8 C:/mingw64/bin/../lib/gcc/x86_64-w64-mingw32/8.1.0\libstdc++.a(stdexcept.o)
 .xdata$_ZNSt13runtime_errorD2Ev
                0x0000000068f6f790        0x8 C:/mingw64/bin/../lib/gcc/x86_64-w64-mingw32/8.1.0\libstdc++.a(stdexcept.o)
 .xdata$_ZNSt13runtime_errorD0Ev
                0x0000000068f6f798        0x8 C:/mingw64/bin/../lib/gcc/x86_64-w64-mingw32/8.1.0\libstdc++.a(stdexcept.o)
 .xdata$_ZNSt11range_errorD2Ev
                0x0000000068f6f7a0        0x4 C:/mingw64/bin/../lib/gcc/x86_64-w64-mingw32/8.1.0\libstdc++.a(stdexcept.o)
 .xdata$_ZNSt11range_errorD0Ev
                0x0000000068f6f7a4        0x8 C:/mingw64/bin/../lib/gcc/x86_64-w64-mingw32/8.1.0\libstdc++.a(stdexcept.o)
 .xdata$_ZNSt14overflow_errorD2Ev
                0x0000000068f6f7ac        0x4 C:/mingw64/bin/../lib/gcc/x86_64-w64-mingw32/8.1.0\libstdc++.a(stdexcept.o)
 .xdata$_ZNSt14overflow_errorD0Ev
                0x0000000068f6f7b0        0x8 C:/mingw64/bin/../lib/gcc/x86_64-w64-mingw32/8.1.0\libstdc++.a(stdexcept.o)
 .xdata$_ZNSt15underflow_errorD2Ev
                0x0000000068f6f7b8        0x4 C:/mingw64/bin/../lib/gcc/x86_64-w64-mingw32/8.1.0\libstdc++.a(stdexcept.o)
 .xdata$_ZNSt15underflow_errorD0Ev
                0x0000000068f6f7bc        0x8 C:/mingw64/bin/../lib/gcc/x86_64-w64-mingw32/8.1.0\libstdc++.a(stdexcept.o)
 .xdata$_ZNSt11logic_errorC2ERKSs
                0x0000000068f6f7c4       0x1c C:/mingw64/bin/../lib/gcc/x86_64-w64-mingw32/8.1.0\libstdc++.a(stdexcept.o)
 .xdata$_ZNSt12domain_errorC2ERKSs
                0x0000000068f6f7e0        0x8 C:/mingw64/bin/../lib/gcc/x86_64-w64-mingw32/8.1.0\libstdc++.a(stdexcept.o)
 .xdata$_ZNSt16invalid_argumentC2ERKSs
                0x0000000068f6f7e8        0x8 C:/mingw64/bin/../lib/gcc/x86_64-w64-mingw32/8.1.0\libstdc++.a(stdexcept.o)
 .xdata$_ZNSt12length_errorC2ERKSs
                0x0000000068f6f7f0        0x8 C:/mingw64/bin/../lib/gcc/x86_64-w64-mingw32/8.1.0\libstdc++.a(stdexcept.o)
 .xdata$_ZNSt12out_of_rangeC2ERKSs
                0x0000000068f6f7f8        0x8 C:/mingw64/bin/../lib/gcc/x86_64-w64-mingw32/8.1.0\libstdc++.a(stdexcept.o)
 .xdata$_ZNSt13runtime_errorC2ERKSs
                0x0000000068f6f800       0x1c C:/mingw64/bin/../lib/gcc/x86_64-w64-mingw32/8.1.0\libstdc++.a(stdexcept.o)
 .xdata$_ZNSt11range_errorC2ERKSs
                0x0000000068f6f81c        0x8 C:/mingw64/bin/../lib/gcc/x86_64-w64-mingw32/8.1.0\libstdc++.a(stdexcept.o)
 .xdata$_ZNSt14overflow_errorC2ERKSs
                0x0000000068f6f824        0x8 C:/mingw64/bin/../lib/gcc/x86_64-w64-mingw32/8.1.0\libstdc++.a(stdexcept.o)
 .xdata$_ZNSt15underflow_errorC2ERKSs
                0x0000000068f6f82c        0x8 C:/mingw64/bin/../lib/gcc/x86_64-w64-mingw32/8.1.0\libstdc++.a(stdexcept.o)
 .xdata$_ZNSt11logic_errorC2ERKS_
                0x0000000068f6f834        0xc C:/mingw64/bin/../lib/gcc/x86_64-w64-mingw32/8.1.0\libstdc++.a(cow-stdexcept.o)
 .xdata$_ZNSt11logic_erroraSERKS_
                0x0000000068f6f840       0x10 C:/mingw64/bin/../lib/gcc/x86_64-w64-mingw32/8.1.0\libstdc++.a(cow-stdexcept.o)
 .xdata$_ZNSt13runtime_errorC2ERKS_
                0x0000000068f6f850        0xc C:/mingw64/bin/../lib/gcc/x86_64-w64-mingw32/8.1.0\libstdc++.a(cow-stdexcept.o)
 .xdata$_ZNSt13runtime_erroraSERKS_
                0x0000000068f6f85c       0x10 C:/mingw64/bin/../lib/gcc/x86_64-w64-mingw32/8.1.0\libstdc++.a(cow-stdexcept.o)
 .xdata$_ZNSt11logic_errorC2EPKc
                0x0000000068f6f86c       0x1c C:/mingw64/bin/../lib/gcc/x86_64-w64-mingw32/8.1.0\libstdc++.a(cow-stdexcept.o)
 .xdata$_ZNSt12domain_errorC2EPKc
                0x0000000068f6f888        0x8 C:/mingw64/bin/../lib/gcc/x86_64-w64-mingw32/8.1.0\libstdc++.a(cow-stdexcept.o)
 .xdata$_ZNSt16invalid_argumentC2EPKc
                0x0000000068f6f890        0x8 C:/mingw64/bin/../lib/gcc/x86_64-w64-mingw32/8.1.0\libstdc++.a(cow-stdexcept.o)
 .xdata$_ZNSt12length_errorC2EPKc
                0x0000000068f6f898        0x8 C:/mingw64/bin/../lib/gcc/x86_64-w64-mingw32/8.1.0\libstdc++.a(cow-stdexcept.o)
 .xdata$_ZNSt12out_of_rangeC2EPKc
                0x0000000068f6f8a0        0x8 C:/mingw64/bin/../lib/gcc/x86_64-w64-mingw32/8.1.0\libstdc++.a(cow-stdexcept.o)
 .xdata$_ZNSt13runtime_errorC2EPKc
                0x0000000068f6f8a8       0x1c C:/mingw64/bin/../lib/gcc/x86_64-w64-mingw32/8.1.0\libstdc++.a(cow-stdexcept.o)
 .xdata$_ZNSt11range_errorC2EPKc
                0x0000000068f6f8c4        0x8 C:/mingw64/bin/../lib/gcc/x86_64-w64-mingw32/8.1.0\libstdc++.a(cow-stdexcept.o)
 .xdata$_ZNSt14overflow_errorC2EPKc
                0x0000000068f6f8cc        0x8 C:/mingw64/bin/../lib/gcc/x86_64-w64-mingw32/8.1.0\libstdc++.a(cow-stdexcept.o)
 .xdata$_ZNSt15underflow_errorC2EPKc
                0x0000000068f6f8d4        0x8 C:/mingw64/bin/../lib/gcc/x86_64-w64-mingw32/8.1.0\libstdc++.a(cow-stdexcept.o)
 .xdata$_ZNSt12__sso_stringC2ERKSs
                0x0000000068f6f8dc        0x4 C:/mingw64/bin/../lib/gcc/x86_64-w64-mingw32/8.1.0\libstdc++.a(cow-stdexcept.o)
 .xdata$_ZNSt12__cow_stringC2Ev
                0x0000000068f6f8e0        0x8 C:/mingw64/bin/../lib/gcc/x86_64-w64-mingw32/8.1.0\libstdc++.a(cow-stdexcept.o)
 .xdata$_ZNSt12__cow_stringC2ERKSs
                0x0000000068f6f8e8        0x4 C:/mingw64/bin/../lib/gcc/x86_64-w64-mingw32/8.1.0\libstdc++.a(cow-stdexcept.o)
 .xdata$_ZNSt12__cow_stringC2EPKcy
                0x0000000068f6f8ec        0x8 C:/mingw64/bin/../lib/gcc/x86_64-w64-mingw32/8.1.0\libstdc++.a(cow-stdexcept.o)
 .xdata$_ZNSt12__cow_stringC2ERKS_
                0x0000000068f6f8f4        0xc C:/mingw64/bin/../lib/gcc/x86_64-w64-mingw32/8.1.0\libstdc++.a(cow-stdexcept.o)
 .xdata$_ZNSt12__cow_stringaSERKS_
                0x0000000068f6f900       0x10 C:/mingw64/bin/../lib/gcc/x86_64-w64-mingw32/8.1.0\libstdc++.a(cow-stdexcept.o)
 .xdata$_ZNSt12__cow_stringD2Ev
                0x0000000068f6f910        0x8 C:/mingw64/bin/../lib/gcc/x86_64-w64-mingw32/8.1.0\libstdc++.a(cow-stdexcept.o)
 .xdata$_ZNSt12__cow_stringC2EOS_
                0x0000000068f6f918       0x10 C:/mingw64/bin/../lib/gcc/x86_64-w64-mingw32/8.1.0\libstdc++.a(cow-stdexcept.o)
 .xdata$_ZNSt12__cow_stringaSEOS_
                0x0000000068f6f928       0x10 C:/mingw64/bin/../lib/gcc/x86_64-w64-mingw32/8.1.0\libstdc++.a(cow-stdexcept.o)
 .xdata$_ZNKSt3_V214error_category10_M_messageEi
                0x0000000068f6f938       0x20 C:/mingw64/bin/../lib/gcc/x86_64-w64-mingw32/8.1.0\libstdc++.a(cow-stdexcept.o)
 .xdata$_ZNKSs7_M_dataEv
                0x0000000068f6f958        0x4 C:/mingw64/bin/../lib/gcc/x86_64-w64-mingw32/8.1.0\libstdc++.a(cow-string-inst.o)
 .xdata$_ZNSs7_M_dataEPc
                0x0000000068f6f95c        0x4 C:/mingw64/bin/../lib/gcc/x86_64-w64-mingw32/8.1.0\libstdc++.a(cow-string-inst.o)
 .xdata$_ZNKSs6_M_repEv
                0x0000000068f6f960        0x4 C:/mingw64/bin/../lib/gcc/x86_64-w64-mingw32/8.1.0\libstdc++.a(cow-string-inst.o)
 .xdata$_ZNKSs9_M_ibeginEv
                0x0000000068f6f964        0x4 C:/mingw64/bin/../lib/gcc/x86_64-w64-mingw32/8.1.0\libstdc++.a(cow-string-inst.o)
 .xdata$_ZNKSs7_M_iendEv
                0x0000000068f6f968        0x4 C:/mingw64/bin/../lib/gcc/x86_64-w64-mingw32/8.1.0\libstdc++.a(cow-string-inst.o)
 .xdata$_ZNKSs8_M_checkEyPKc
                0x0000000068f6f96c        0x8 C:/mingw64/bin/../lib/gcc/x86_64-w64-mingw32/8.1.0\libstdc++.a(cow-string-inst.o)
 .xdata$_ZNKSs15_M_check_lengthEyyPKc
                0x0000000068f6f974        0x8 C:/mingw64/bin/../lib/gcc/x86_64-w64-mingw32/8.1.0\libstdc++.a(cow-string-inst.o)
 .xdata$_ZNKSs8_M_limitEyy
                0x0000000068f6f97c        0x4 C:/mingw64/bin/../lib/gcc/x86_64-w64-mingw32/8.1.0\libstdc++.a(cow-string-inst.o)
 .xdata$_ZNKSs11_M_disjunctEPKc
                0x0000000068f6f980        0x4 C:/mingw64/bin/../lib/gcc/x86_64-w64-mingw32/8.1.0\libstdc++.a(cow-string-inst.o)
 .xdata$_ZNSs7_M_copyEPcPKcy
                0x0000000068f6f984        0x4 C:/mingw64/bin/../lib/gcc/x86_64-w64-mingw32/8.1.0\libstdc++.a(cow-string-inst.o)
 .xdata$_ZNSs7_M_moveEPcPKcy
                0x0000000068f6f988        0x4 C:/mingw64/bin/../lib/gcc/x86_64-w64-mingw32/8.1.0\libstdc++.a(cow-string-inst.o)
 .xdata$_ZNSs9_M_assignEPcyc
                0x0000000068f6f98c        0x4 C:/mingw64/bin/../lib/gcc/x86_64-w64-mingw32/8.1.0\libstdc++.a(cow-string-inst.o)
 .xdata$_ZNSs13_S_copy_charsEPcN9__gnu_cxx17__normal_iteratorIS_SsEES2_
                0x0000000068f6f990        0x4 C:/mingw64/bin/../lib/gcc/x86_64-w64-mingw32/8.1.0\libstdc++.a(cow-string-inst.o)
 .xdata$_ZNSs13_S_copy_charsEPcN9__gnu_cxx17__normal_iteratorIPKcSsEES4_
                0x0000000068f6f994        0x4 C:/mingw64/bin/../lib/gcc/x86_64-w64-mingw32/8.1.0\libstdc++.a(cow-string-inst.o)
 .xdata$_ZNSs13_S_copy_charsEPcS_S_
                0x0000000068f6f998        0x4 C:/mingw64/bin/../lib/gcc/x86_64-w64-mingw32/8.1.0\libstdc++.a(cow-string-inst.o)
 .xdata$_ZNSs13_S_copy_charsEPcPKcS1_
                0x0000000068f6f99c        0x4 C:/mingw64/bin/../lib/gcc/x86_64-w64-mingw32/8.1.0\libstdc++.a(cow-string-inst.o)
 .xdata$_ZNSs10_S_compareEyy
                0x0000000068f6f9a0        0x4 C:/mingw64/bin/../lib/gcc/x86_64-w64-mingw32/8.1.0\libstdc++.a(cow-string-inst.o)
 .xdata$_ZNSs12_S_empty_repEv
                0x0000000068f6f9a4        0x4 C:/mingw64/bin/../lib/gcc/x86_64-w64-mingw32/8.1.0\libstdc++.a(cow-string-inst.o)
 .xdata$_ZNSsD2Ev
                0x0000000068f6f9a8        0x4 C:/mingw64/bin/../lib/gcc/x86_64-w64-mingw32/8.1.0\libstdc++.a(cow-string-inst.o)
 .xdata$_ZNSsD1Ev
                0x0000000068f6f9ac        0x4 C:/mingw64/bin/../lib/gcc/x86_64-w64-mingw32/8.1.0\libstdc++.a(cow-string-inst.o)
 .xdata$_ZNKSs5beginEv
                0x0000000068f6f9b0        0x4 C:/mingw64/bin/../lib/gcc/x86_64-w64-mingw32/8.1.0\libstdc++.a(cow-string-inst.o)
 .xdata$_ZNKSs3endEv
                0x0000000068f6f9b4        0x4 C:/mingw64/bin/../lib/gcc/x86_64-w64-mingw32/8.1.0\libstdc++.a(cow-string-inst.o)
 .xdata$_ZNKSs6rbeginEv
                0x0000000068f6f9b8        0x4 C:/mingw64/bin/../lib/gcc/x86_64-w64-mingw32/8.1.0\libstdc++.a(cow-string-inst.o)
 .xdata$_ZNKSs4rendEv
                0x0000000068f6f9bc        0x4 C:/mingw64/bin/../lib/gcc/x86_64-w64-mingw32/8.1.0\libstdc++.a(cow-string-inst.o)
 .xdata$_ZNKSs6cbeginEv
                0x0000000068f6f9c0        0x4 C:/mingw64/bin/../lib/gcc/x86_64-w64-mingw32/8.1.0\libstdc++.a(cow-string-inst.o)
 .xdata$_ZNKSs4cendEv
                0x0000000068f6f9c4        0x4 C:/mingw64/bin/../lib/gcc/x86_64-w64-mingw32/8.1.0\libstdc++.a(cow-string-inst.o)
 .xdata$_ZNKSs7crbeginEv
                0x0000000068f6f9c8        0x4 C:/mingw64/bin/../lib/gcc/x86_64-w64-mingw32/8.1.0\libstdc++.a(cow-string-inst.o)
 .xdata$_ZNKSs5crendEv
                0x0000000068f6f9cc        0x4 C:/mingw64/bin/../lib/gcc/x86_64-w64-mingw32/8.1.0\libstdc++.a(cow-string-inst.o)
 .xdata$_ZNKSs4sizeEv
                0x0000000068f6f9d0        0x4 C:/mingw64/bin/../lib/gcc/x86_64-w64-mingw32/8.1.0\libstdc++.a(cow-string-inst.o)
 .xdata$_ZNKSs6lengthEv
                0x0000000068f6f9d4        0x4 C:/mingw64/bin/../lib/gcc/x86_64-w64-mingw32/8.1.0\libstdc++.a(cow-string-inst.o)
 .xdata$_ZNKSs8max_sizeEv
                0x0000000068f6f9d8        0x4 C:/mingw64/bin/../lib/gcc/x86_64-w64-mingw32/8.1.0\libstdc++.a(cow-string-inst.o)
 .xdata$_ZNKSs8capacityEv
                0x0000000068f6f9dc        0x4 C:/mingw64/bin/../lib/gcc/x86_64-w64-mingw32/8.1.0\libstdc++.a(cow-string-inst.o)
 .xdata$_ZNKSs5emptyEv
                0x0000000068f6f9e0        0x4 C:/mingw64/bin/../lib/gcc/x86_64-w64-mingw32/8.1.0\libstdc++.a(cow-string-inst.o)
 .xdata$_ZNKSsixEy
                0x0000000068f6f9e4        0x4 C:/mingw64/bin/../lib/gcc/x86_64-w64-mingw32/8.1.0\libstdc++.a(cow-string-inst.o)
 .xdata$_ZNKSs2atEy
                0x0000000068f6f9e8        0x8 C:/mingw64/bin/../lib/gcc/x86_64-w64-mingw32/8.1.0\libstdc++.a(cow-string-inst.o)
 .xdata$_ZNKSs5frontEv
                0x0000000068f6f9f0        0x4 C:/mingw64/bin/../lib/gcc/x86_64-w64-mingw32/8.1.0\libstdc++.a(cow-string-inst.o)
 .xdata$_ZNKSs4backEv
                0x0000000068f6f9f4        0x4 C:/mingw64/bin/../lib/gcc/x86_64-w64-mingw32/8.1.0\libstdc++.a(cow-string-inst.o)
 .xdata$_ZNKSs4copyEPcyy
                0x0000000068f6f9f8        0x8 C:/mingw64/bin/../lib/gcc/x86_64-w64-mingw32/8.1.0\libstdc++.a(cow-string-inst.o)
 .xdata$_ZNSs4swapERSs
                0x0000000068f6fa00        0x4 C:/mingw64/bin/../lib/gcc/x86_64-w64-mingw32/8.1.0\libstdc++.a(cow-string-inst.o)
 .xdata$_ZNSsaSEOSs
                0x0000000068f6fa04        0x8 C:/mingw64/bin/../lib/gcc/x86_64-w64-mingw32/8.1.0\libstdc++.a(cow-string-inst.o)
 .xdata$_ZNSs6assignEOSs
                0x0000000068f6fa0c        0x8 C:/mingw64/bin/../lib/gcc/x86_64-w64-mingw32/8.1.0\libstdc++.a(cow-string-inst.o)
 .xdata$_ZNKSs5c_strEv
                0x0000000068f6fa14        0x4 C:/mingw64/bin/../lib/gcc/x86_64-w64-mingw32/8.1.0\libstdc++.a(cow-string-inst.o)
 .xdata$_ZNKSs4dataEv
                0x0000000068f6fa18        0x4 C:/mingw64/bin/../lib/gcc/x86_64-w64-mingw32/8.1.0\libstdc++.a(cow-string-inst.o)
 .xdata$_ZNKSs13get_allocatorEv
                0x0000000068f6fa1c        0x4 C:/mingw64/bin/../lib/gcc/x86_64-w64-mingw32/8.1.0\libstdc++.a(cow-string-inst.o)
 .xdata$_ZNKSs4findEPKcyy
                0x0000000068f6fa20       0x14 C:/mingw64/bin/../lib/gcc/x86_64-w64-mingw32/8.1.0\libstdc++.a(cow-string-inst.o)
 .xdata$_ZNKSs4findERKSsy
                0x0000000068f6fa34        0x4 C:/mingw64/bin/../lib/gcc/x86_64-w64-mingw32/8.1.0\libstdc++.a(cow-string-inst.o)
 .xdata$_ZNKSs4findEPKcy
                0x0000000068f6fa38        0xc C:/mingw64/bin/../lib/gcc/x86_64-w64-mingw32/8.1.0\libstdc++.a(cow-string-inst.o)
 .xdata$_ZNKSs4findEcy
                0x0000000068f6fa44        0xc C:/mingw64/bin/../lib/gcc/x86_64-w64-mingw32/8.1.0\libstdc++.a(cow-string-inst.o)
 .xdata$_ZNKSs5rfindEPKcyy
                0x0000000068f6fa50       0x10 C:/mingw64/bin/../lib/gcc/x86_64-w64-mingw32/8.1.0\libstdc++.a(cow-string-inst.o)
 .xdata$_ZNKSs5rfindERKSsy
                0x0000000068f6fa60        0x4 C:/mingw64/bin/../lib/gcc/x86_64-w64-mingw32/8.1.0\libstdc++.a(cow-string-inst.o)
 .xdata$_ZNKSs5rfindEPKcy
                0x0000000068f6fa64        0xc C:/mingw64/bin/../lib/gcc/x86_64-w64-mingw32/8.1.0\libstdc++.a(cow-string-inst.o)
 .xdata$_ZNKSs5rfindEcy
                0x0000000068f6fa70        0x4 C:/mingw64/bin/../lib/gcc/x86_64-w64-mingw32/8.1.0\libstdc++.a(cow-string-inst.o)
 .xdata$_ZNKSs13find_first_ofEPKcyy
                0x0000000068f6fa74       0x10 C:/mingw64/bin/../lib/gcc/x86_64-w64-mingw32/8.1.0\libstdc++.a(cow-string-inst.o)
 .xdata$_ZNKSs13find_first_ofERKSsy
                0x0000000068f6fa84        0x4 C:/mingw64/bin/../lib/gcc/x86_64-w64-mingw32/8.1.0\libstdc++.a(cow-string-inst.o)
 .xdata$_ZNKSs13find_first_ofEPKcy
                0x0000000068f6fa88        0xc C:/mingw64/bin/../lib/gcc/x86_64-w64-mingw32/8.1.0\libstdc++.a(cow-string-inst.o)
 .xdata$_ZNKSs13find_first_ofEcy
                0x0000000068f6fa94        0x4 C:/mingw64/bin/../lib/gcc/x86_64-w64-mingw32/8.1.0\libstdc++.a(cow-string-inst.o)
 .xdata$_ZNKSs12find_last_ofEPKcyy
                0x0000000068f6fa98       0x10 C:/mingw64/bin/../lib/gcc/x86_64-w64-mingw32/8.1.0\libstdc++.a(cow-string-inst.o)
 .xdata$_ZNKSs12find_last_ofERKSsy
                0x0000000068f6faa8        0x4 C:/mingw64/bin/../lib/gcc/x86_64-w64-mingw32/8.1.0\libstdc++.a(cow-string-inst.o)
 .xdata$_ZNKSs12find_last_ofEPKcy
                0x0000000068f6faac        0xc C:/mingw64/bin/../lib/gcc/x86_64-w64-mingw32/8.1.0\libstdc++.a(cow-string-inst.o)
 .xdata$_ZNKSs12find_last_ofEcy
                0x0000000068f6fab8        0x4 C:/mingw64/bin/../lib/gcc/x86_64-w64-mingw32/8.1.0\libstdc++.a(cow-string-inst.o)
 .xdata$_ZNKSs17find_first_not_ofEPKcyy
                0x0000000068f6fabc       0x10 C:/mingw64/bin/../lib/gcc/x86_64-w64-mingw32/8.1.0\libstdc++.a(cow-string-inst.o)
 .xdata$_ZNKSs17find_first_not_ofERKSsy
                0x0000000068f6facc        0x4 C:/mingw64/bin/../lib/gcc/x86_64-w64-mingw32/8.1.0\libstdc++.a(cow-string-inst.o)
 .xdata$_ZNKSs17find_first_not_ofEPKcy
                0x0000000068f6fad0        0xc C:/mingw64/bin/../lib/gcc/x86_64-w64-mingw32/8.1.0\libstdc++.a(cow-string-inst.o)
 .xdata$_ZNKSs17find_first_not_ofEcy
                0x0000000068f6fadc        0x4 C:/mingw64/bin/../lib/gcc/x86_64-w64-mingw32/8.1.0\libstdc++.a(cow-string-inst.o)
 .xdata$_ZNKSs16find_last_not_ofEPKcyy
                0x0000000068f6fae0       0x10 C:/mingw64/bin/../lib/gcc/x86_64-w64-mingw32/8.1.0\libstdc++.a(cow-string-inst.o)
 .xdata$_ZNKSs16find_last_not_ofERKSsy
                0x0000000068f6faf0        0x4 C:/mingw64/bin/../lib/gcc/x86_64-w64-mingw32/8.1.0\libstdc++.a(cow-string-inst.o)
 .xdata$_ZNKSs16find_last_not_ofEPKcy
                0x0000000068f6faf4        0xc C:/mingw64/bin/../lib/gcc/x86_64-w64-mingw32/8.1.0\libstdc++.a(cow-string-inst.o)
 .xdata$_ZNKSs16find_last_not_ofEcy
                0x0000000068f6fb00        0x4 C:/mingw64/bin/../lib/gcc/x86_64-w64-mingw32/8.1.0\libstdc++.a(cow-string-inst.o)
 .xdata$_ZNKSs7compareERKSs
                0x0000000068f6fb04        0xc C:/mingw64/bin/../lib/gcc/x86_64-w64-mingw32/8.1.0\libstdc++.a(cow-string-inst.o)
 .xdata$_ZNKSs7compareEyyRKSs
                0x0000000068f6fb10        0xc C:/mingw64/bin/../lib/gcc/x86_64-w64-mingw32/8.1.0\libstdc++.a(cow-string-inst.o)
 .xdata$_ZNKSs7compareEyyRKSsyy
                0x0000000068f6fb1c        0xc C:/mingw64/bin/../lib/gcc/x86_64-w64-mingw32/8.1.0\libstdc++.a(cow-string-inst.o)
 .xdata$_ZNKSs7compareEPKc
                0x0000000068f6fb28       0x10 C:/mingw64/bin/../lib/gcc/x86_64-w64-mingw32/8.1.0\libstdc++.a(cow-string-inst.o)
 .xdata$_ZNKSs7compareEyyPKc
                0x0000000068f6fb38       0x10 C:/mingw64/bin/../lib/gcc/x86_64-w64-mingw32/8.1.0\libstdc++.a(cow-string-inst.o)
 .xdata$_ZNKSs7compareEyyPKcy
                0x0000000068f6fb48        0xc C:/mingw64/bin/../lib/gcc/x86_64-w64-mingw32/8.1.0\libstdc++.a(cow-string-inst.o)
 .xdata$_ZNSs12_Alloc_hiderC2EPcRKSaIcE
                0x0000000068f6fb54        0x4 C:/mingw64/bin/../lib/gcc/x86_64-w64-mingw32/8.1.0\libstdc++.a(cow-string-inst.o)
 .xdata$_ZNSs12_Alloc_hiderC1EPcRKSaIcE
                0x0000000068f6fb58        0x4 C:/mingw64/bin/../lib/gcc/x86_64-w64-mingw32/8.1.0\libstdc++.a(cow-string-inst.o)
 .xdata$_ZNSs4_Rep12_S_empty_repEv
                0x0000000068f6fb5c        0x4 C:/mingw64/bin/../lib/gcc/x86_64-w64-mingw32/8.1.0\libstdc++.a(cow-string-inst.o)
 .xdata$_ZNKSs4_Rep12_M_is_leakedEv
                0x0000000068f6fb60        0x4 C:/mingw64/bin/../lib/gcc/x86_64-w64-mingw32/8.1.0\libstdc++.a(cow-string-inst.o)
 .xdata$_ZNKSs4_Rep12_M_is_sharedEv
                0x0000000068f6fb64        0x4 C:/mingw64/bin/../lib/gcc/x86_64-w64-mingw32/8.1.0\libstdc++.a(cow-string-inst.o)
 .xdata$_ZNSs4_Rep13_M_set_leakedEv
                0x0000000068f6fb68        0x4 C:/mingw64/bin/../lib/gcc/x86_64-w64-mingw32/8.1.0\libstdc++.a(cow-string-inst.o)
 .xdata$_ZNSs4_Rep15_M_set_sharableEv
                0x0000000068f6fb6c        0x4 C:/mingw64/bin/../lib/gcc/x86_64-w64-mingw32/8.1.0\libstdc++.a(cow-string-inst.o)
 .xdata$_ZNSs4_Rep26_M_set_length_and_sharableEy
                0x0000000068f6fb70        0x4 C:/mingw64/bin/../lib/gcc/x86_64-w64-mingw32/8.1.0\libstdc++.a(cow-string-inst.o)
 .xdata$_ZNSs4_Rep10_M_refdataEv
                0x0000000068f6fb74        0x4 C:/mingw64/bin/../lib/gcc/x86_64-w64-mingw32/8.1.0\libstdc++.a(cow-string-inst.o)
 .xdata$_ZNSs4_Rep9_S_createEyyRKSaIcE
                0x0000000068f6fb78        0x8 C:/mingw64/bin/../lib/gcc/x86_64-w64-mingw32/8.1.0\libstdc++.a(cow-string-inst.o)
 .xdata$_ZNSs9_M_mutateEyyy
                0x0000000068f6fb80       0x18 C:/mingw64/bin/../lib/gcc/x86_64-w64-mingw32/8.1.0\libstdc++.a(cow-string-inst.o)
 .xdata$_ZNSs12_M_leak_hardEv
                0x0000000068f6fb98        0x8 C:/mingw64/bin/../lib/gcc/x86_64-w64-mingw32/8.1.0\libstdc++.a(cow-string-inst.o)
 .xdata$_ZNSs7_M_leakEv
                0x0000000068f6fba0        0x4 C:/mingw64/bin/../lib/gcc/x86_64-w64-mingw32/8.1.0\libstdc++.a(cow-string-inst.o)
 .xdata$_ZNSs5frontEv
                0x0000000068f6fba4        0x8 C:/mingw64/bin/../lib/gcc/x86_64-w64-mingw32/8.1.0\libstdc++.a(cow-string-inst.o)
 .xdata$_ZNSs4rendEv
                0x0000000068f6fbac        0xc C:/mingw64/bin/../lib/gcc/x86_64-w64-mingw32/8.1.0\libstdc++.a(cow-string-inst.o)
 .xdata$_ZNSsixEy
                0x0000000068f6fbb8        0xc C:/mingw64/bin/../lib/gcc/x86_64-w64-mingw32/8.1.0\libstdc++.a(cow-string-inst.o)
 .xdata$_ZNSs5beginEv
                0x0000000068f6fbc4        0x8 C:/mingw64/bin/../lib/gcc/x86_64-w64-mingw32/8.1.0\libstdc++.a(cow-string-inst.o)
 .xdata$_ZNSs6rbeginEv
                0x0000000068f6fbcc        0xc C:/mingw64/bin/../lib/gcc/x86_64-w64-mingw32/8.1.0\libstdc++.a(cow-string-inst.o)
 .xdata$_ZNSs3endEv
                0x0000000068f6fbd8        0x8 C:/mingw64/bin/../lib/gcc/x86_64-w64-mingw32/8.1.0\libstdc++.a(cow-string-inst.o)
 .xdata$_ZNSs4backEv
                0x0000000068f6fbe0        0xc C:/mingw64/bin/../lib/gcc/x86_64-w64-mingw32/8.1.0\libstdc++.a(cow-string-inst.o)
 .xdata$_ZNSs2atEy
                0x0000000068f6fbec        0xc C:/mingw64/bin/../lib/gcc/x86_64-w64-mingw32/8.1.0\libstdc++.a(cow-string-inst.o)
 .xdata$_ZNSs5clearEv
                0x0000000068f6fbf8        0x4 C:/mingw64/bin/../lib/gcc/x86_64-w64-mingw32/8.1.0\libstdc++.a(cow-string-inst.o)
 .xdata$_ZNSs5eraseEyy
                0x0000000068f6fbfc        0x8 C:/mingw64/bin/../lib/gcc/x86_64-w64-mingw32/8.1.0\libstdc++.a(cow-string-inst.o)
 .xdata$_ZNSs5eraseEN9__gnu_cxx17__normal_iteratorIPcSsEE
                0x0000000068f6fc04        0xc C:/mingw64/bin/../lib/gcc/x86_64-w64-mingw32/8.1.0\libstdc++.a(cow-string-inst.o)
 .xdata$_ZNSs5eraseEN9__gnu_cxx17__normal_iteratorIPcSsEES2_
                0x0000000068f6fc10        0xc C:/mingw64/bin/../lib/gcc/x86_64-w64-mingw32/8.1.0\libstdc++.a(cow-string-inst.o)
 .xdata$_ZNSs14_M_replace_auxEyyyc
                0x0000000068f6fc1c       0x10 C:/mingw64/bin/../lib/gcc/x86_64-w64-mingw32/8.1.0\libstdc++.a(cow-string-inst.o)
 .xdata$_ZNSs6assignEyc
                0x0000000068f6fc2c        0x8 C:/mingw64/bin/../lib/gcc/x86_64-w64-mingw32/8.1.0\libstdc++.a(cow-string-inst.o)
 .xdata$_ZNSsaSEc
                0x0000000068f6fc34        0x8 C:/mingw64/bin/../lib/gcc/x86_64-w64-mingw32/8.1.0\libstdc++.a(cow-string-inst.o)
 .xdata$_ZNSs6insertEyyc
                0x0000000068f6fc3c        0x8 C:/mingw64/bin/../lib/gcc/x86_64-w64-mingw32/8.1.0\libstdc++.a(cow-string-inst.o)
 .xdata$_ZNSs6insertEN9__gnu_cxx17__normal_iteratorIPcSsEEc
                0x0000000068f6fc44        0xc C:/mingw64/bin/../lib/gcc/x86_64-w64-mingw32/8.1.0\libstdc++.a(cow-string-inst.o)
 .xdata$_ZNSs7replaceEyyyc
                0x0000000068f6fc50        0x8 C:/mingw64/bin/../lib/gcc/x86_64-w64-mingw32/8.1.0\libstdc++.a(cow-string-inst.o)
 .xdata$_ZNSs7replaceEN9__gnu_cxx17__normal_iteratorIPcSsEES2_yc
                0x0000000068f6fc58        0x4 C:/mingw64/bin/../lib/gcc/x86_64-w64-mingw32/8.1.0\libstdc++.a(cow-string-inst.o)
 .xdata$_ZNSs6insertEN9__gnu_cxx17__normal_iteratorIPcSsEEyc
                0x0000000068f6fc5c        0x8 C:/mingw64/bin/../lib/gcc/x86_64-w64-mingw32/8.1.0\libstdc++.a(cow-string-inst.o)
 .xdata$_ZNSs15_M_replace_safeEyyPKcy
                0x0000000068f6fc64       0x10 C:/mingw64/bin/../lib/gcc/x86_64-w64-mingw32/8.1.0\libstdc++.a(cow-string-inst.o)
 .xdata$_ZNSs6assignEPKcy
                0x0000000068f6fc74        0xc C:/mingw64/bin/../lib/gcc/x86_64-w64-mingw32/8.1.0\libstdc++.a(cow-string-inst.o)
 .xdata$_ZNSsaSESt16initializer_listIcE
                0x0000000068f6fc80        0x8 C:/mingw64/bin/../lib/gcc/x86_64-w64-mingw32/8.1.0\libstdc++.a(cow-string-inst.o)
 .xdata$_ZNSs6assignERKSsyy
                0x0000000068f6fc88        0x8 C:/mingw64/bin/../lib/gcc/x86_64-w64-mingw32/8.1.0\libstdc++.a(cow-string-inst.o)
 .xdata$_ZNSs6assignEPKc
                0x0000000068f6fc90        0xc C:/mingw64/bin/../lib/gcc/x86_64-w64-mingw32/8.1.0\libstdc++.a(cow-string-inst.o)
 .xdata$_ZNSsaSEPKc
                0x0000000068f6fc9c        0xc C:/mingw64/bin/../lib/gcc/x86_64-w64-mingw32/8.1.0\libstdc++.a(cow-string-inst.o)
 .xdata$_ZNSs6assignESt16initializer_listIcE
                0x0000000068f6fca8        0x4 C:/mingw64/bin/../lib/gcc/x86_64-w64-mingw32/8.1.0\libstdc++.a(cow-string-inst.o)
 .xdata$_ZNSs6insertEyPKcy
                0x0000000068f6fcac       0x10 C:/mingw64/bin/../lib/gcc/x86_64-w64-mingw32/8.1.0\libstdc++.a(cow-string-inst.o)
 .xdata$_ZNSs6insertEN9__gnu_cxx17__normal_iteratorIPcSsEESt16initializer_listIcE
                0x0000000068f6fcbc        0x4 C:/mingw64/bin/../lib/gcc/x86_64-w64-mingw32/8.1.0\libstdc++.a(cow-string-inst.o)
 .xdata$_ZNSs6insertEyRKSsyy
                0x0000000068f6fcc0        0x8 C:/mingw64/bin/../lib/gcc/x86_64-w64-mingw32/8.1.0\libstdc++.a(cow-string-inst.o)
 .xdata$_ZNSs6insertEyPKc
                0x0000000068f6fcc8        0xc C:/mingw64/bin/../lib/gcc/x86_64-w64-mingw32/8.1.0\libstdc++.a(cow-string-inst.o)
 .xdata$_ZNSs6insertEyRKSs
                0x0000000068f6fcd4        0x4 C:/mingw64/bin/../lib/gcc/x86_64-w64-mingw32/8.1.0\libstdc++.a(cow-string-inst.o)
 .xdata$_ZNSs8pop_backEv
                0x0000000068f6fcd8        0x8 C:/mingw64/bin/../lib/gcc/x86_64-w64-mingw32/8.1.0\libstdc++.a(cow-string-inst.o)
 .xdata$_ZNSs12_S_constructEycRKSaIcE
                0x0000000068f6fce0        0xc C:/mingw64/bin/../lib/gcc/x86_64-w64-mingw32/8.1.0\libstdc++.a(cow-string-inst.o)
 .xdata$_ZNSsC2Ev
                0x0000000068f6fcec        0x8 C:/mingw64/bin/../lib/gcc/x86_64-w64-mingw32/8.1.0\libstdc++.a(cow-string-inst.o)
 .xdata$_ZNSsC1Ev
                0x0000000068f6fcf4        0x8 C:/mingw64/bin/../lib/gcc/x86_64-w64-mingw32/8.1.0\libstdc++.a(cow-string-inst.o)
 .xdata$_ZNSsC2ERKSaIcE
                0x0000000068f6fcfc        0x8 C:/mingw64/bin/../lib/gcc/x86_64-w64-mingw32/8.1.0\libstdc++.a(cow-string-inst.o)
 .xdata$_ZNSsC1ERKSaIcE
                0x0000000068f6fd04        0x8 C:/mingw64/bin/../lib/gcc/x86_64-w64-mingw32/8.1.0\libstdc++.a(cow-string-inst.o)
 .xdata$_ZNSsC2EycRKSaIcE
                0x0000000068f6fd0c        0x8 C:/mingw64/bin/../lib/gcc/x86_64-w64-mingw32/8.1.0\libstdc++.a(cow-string-inst.o)
 .xdata$_ZNSsC1EycRKSaIcE
                0x0000000068f6fd14        0x8 C:/mingw64/bin/../lib/gcc/x86_64-w64-mingw32/8.1.0\libstdc++.a(cow-string-inst.o)
 .xdata$_ZNSsC2EOSs
                0x0000000068f6fd1c        0x8 C:/mingw64/bin/../lib/gcc/x86_64-w64-mingw32/8.1.0\libstdc++.a(cow-string-inst.o)
 .xdata$_ZNSsC1EOSs
                0x0000000068f6fd24        0x8 C:/mingw64/bin/../lib/gcc/x86_64-w64-mingw32/8.1.0\libstdc++.a(cow-string-inst.o)
 .xdata$_ZNSs18_S_construct_aux_2EycRKSaIcE
                0x0000000068f6fd2c        0x4 C:/mingw64/bin/../lib/gcc/x86_64-w64-mingw32/8.1.0\libstdc++.a(cow-string-inst.o)
 .xdata$_ZNSs4_Rep10_M_disposeERKSaIcE
                0x0000000068f6fd30        0x4 C:/mingw64/bin/../lib/gcc/x86_64-w64-mingw32/8.1.0\libstdc++.a(cow-string-inst.o)
 .xdata$_ZNSs4_Rep10_M_destroyERKSaIcE
                0x0000000068f6fd34        0x4 C:/mingw64/bin/../lib/gcc/x86_64-w64-mingw32/8.1.0\libstdc++.a(cow-string-inst.o)
 .xdata$_ZNSs4_Rep10_M_refcopyEv
                0x0000000068f6fd38        0x4 C:/mingw64/bin/../lib/gcc/x86_64-w64-mingw32/8.1.0\libstdc++.a(cow-string-inst.o)
 .xdata$_ZNSs4_Rep8_M_cloneERKSaIcEy
                0x0000000068f6fd3c        0xc C:/mingw64/bin/../lib/gcc/x86_64-w64-mingw32/8.1.0\libstdc++.a(cow-string-inst.o)
 .xdata$_ZNSs7reserveEy
                0x0000000068f6fd48        0x8 C:/mingw64/bin/../lib/gcc/x86_64-w64-mingw32/8.1.0\libstdc++.a(cow-string-inst.o)
 .xdata$_ZNSs13shrink_to_fitEv
                0x0000000068f6fd50       0x1c C:/mingw64/bin/../lib/gcc/x86_64-w64-mingw32/8.1.0\libstdc++.a(cow-string-inst.o)
 .xdata$_ZNSs6appendERKSs
                0x0000000068f6fd6c       0x10 C:/mingw64/bin/../lib/gcc/x86_64-w64-mingw32/8.1.0\libstdc++.a(cow-string-inst.o)
 .xdata$_ZNSspLERKSs
                0x0000000068f6fd7c        0x4 C:/mingw64/bin/../lib/gcc/x86_64-w64-mingw32/8.1.0\libstdc++.a(cow-string-inst.o)
 .xdata$_ZNSs6appendERKSsyy
                0x0000000068f6fd80       0x10 C:/mingw64/bin/../lib/gcc/x86_64-w64-mingw32/8.1.0\libstdc++.a(cow-string-inst.o)
 .xdata$_ZNSs6appendEPKcy
                0x0000000068f6fd90        0xc C:/mingw64/bin/../lib/gcc/x86_64-w64-mingw32/8.1.0\libstdc++.a(cow-string-inst.o)
 .xdata$_ZNSspLESt16initializer_listIcE
                0x0000000068f6fd9c        0x4 C:/mingw64/bin/../lib/gcc/x86_64-w64-mingw32/8.1.0\libstdc++.a(cow-string-inst.o)
 .xdata$_ZNSs6appendEPKc
                0x0000000068f6fda0        0xc C:/mingw64/bin/../lib/gcc/x86_64-w64-mingw32/8.1.0\libstdc++.a(cow-string-inst.o)
 .xdata$_ZNSspLEPKc
                0x0000000068f6fdac        0xc C:/mingw64/bin/../lib/gcc/x86_64-w64-mingw32/8.1.0\libstdc++.a(cow-string-inst.o)
 .xdata$_ZNSs6appendESt16initializer_listIcE
                0x0000000068f6fdb8        0x4 C:/mingw64/bin/../lib/gcc/x86_64-w64-mingw32/8.1.0\libstdc++.a(cow-string-inst.o)
 .xdata$_ZNSs6appendEyc.part.20
                0x0000000068f6fdbc       0x10 C:/mingw64/bin/../lib/gcc/x86_64-w64-mingw32/8.1.0\libstdc++.a(cow-string-inst.o)
 .xdata$_ZNSs6appendEyc
                0x0000000068f6fdcc        0x8 C:/mingw64/bin/../lib/gcc/x86_64-w64-mingw32/8.1.0\libstdc++.a(cow-string-inst.o)
 .xdata$_ZNSs6resizeEyc
                0x0000000068f6fdd4        0x8 C:/mingw64/bin/../lib/gcc/x86_64-w64-mingw32/8.1.0\libstdc++.a(cow-string-inst.o)
 .xdata$_ZNSs6resizeEy
                0x0000000068f6fddc        0x4 C:/mingw64/bin/../lib/gcc/x86_64-w64-mingw32/8.1.0\libstdc++.a(cow-string-inst.o)
 .xdata$_ZNSs9push_backEc
                0x0000000068f6fde0       0x10 C:/mingw64/bin/../lib/gcc/x86_64-w64-mingw32/8.1.0\libstdc++.a(cow-string-inst.o)
 .xdata$_ZNSspLEc
                0x0000000068f6fdf0       0x10 C:/mingw64/bin/../lib/gcc/x86_64-w64-mingw32/8.1.0\libstdc++.a(cow-string-inst.o)
 .xdata$_ZNSs4_Rep7_M_grabERKSaIcES2_
                0x0000000068f6fe00        0x4 C:/mingw64/bin/../lib/gcc/x86_64-w64-mingw32/8.1.0\libstdc++.a(cow-string-inst.o)
 .xdata$_ZNSsC1ERKSs
                0x0000000068f6fe04        0x8 C:/mingw64/bin/../lib/gcc/x86_64-w64-mingw32/8.1.0\libstdc++.a(cow-string-inst.o)
 .xdata$_ZNSsC2ERKSs
                0x0000000068f6fe0c        0x8 C:/mingw64/bin/../lib/gcc/x86_64-w64-mingw32/8.1.0\libstdc++.a(cow-string-inst.o)
 .xdata$_ZNSs6assignERKSs
                0x0000000068f6fe14        0xc C:/mingw64/bin/../lib/gcc/x86_64-w64-mingw32/8.1.0\libstdc++.a(cow-string-inst.o)
 .xdata$_ZNSsaSERKSs
                0x0000000068f6fe20        0x4 C:/mingw64/bin/../lib/gcc/x86_64-w64-mingw32/8.1.0\libstdc++.a(cow-string-inst.o)
 .xdata$_ZStplIcSt11char_traitsIcESaIcEESbIT_T0_T1_EPKS3_RKS6_
                0x0000000068f6fe24       0x28 C:/mingw64/bin/../lib/gcc/x86_64-w64-mingw32/8.1.0\libstdc++.a(cow-string-inst.o)
 .xdata$_ZStplIcSt11char_traitsIcESaIcEESbIT_T0_T1_ES3_RKS6_
                0x0000000068f6fe4c       0x24 C:/mingw64/bin/../lib/gcc/x86_64-w64-mingw32/8.1.0\libstdc++.a(cow-string-inst.o)
 .xdata$_ZStplIcSt11char_traitsIcESaIcEESbIT_T0_T1_ERKS6_S8_
                0x0000000068f6fe70       0x1c C:/mingw64/bin/../lib/gcc/x86_64-w64-mingw32/8.1.0\libstdc++.a(cow-string-inst.o)
 .xdata$_ZNSs12_S_constructIN9__gnu_cxx17__normal_iteratorIPcSsEEEES2_T_S4_RKSaIcESt20forward_iterator_tag
                0x0000000068f6fe8c        0xc C:/mingw64/bin/../lib/gcc/x86_64-w64-mingw32/8.1.0\libstdc++.a(cow-string-inst.o)
 .xdata$_ZNSsC2IN9__gnu_cxx17__normal_iteratorIPcSsEEEET_S4_RKSaIcE
                0x0000000068f6fe98        0x8 C:/mingw64/bin/../lib/gcc/x86_64-w64-mingw32/8.1.0\libstdc++.a(cow-string-inst.o)
 .xdata$_ZNSsC1IN9__gnu_cxx17__normal_iteratorIPcSsEEEET_S4_RKSaIcE
                0x0000000068f6fea0        0x8 C:/mingw64/bin/../lib/gcc/x86_64-w64-mingw32/8.1.0\libstdc++.a(cow-string-inst.o)
 .xdata$_ZNSs12_S_constructIPcEES0_T_S1_RKSaIcESt20forward_iterator_tag
                0x0000000068f6fea8        0xc C:/mingw64/bin/../lib/gcc/x86_64-w64-mingw32/8.1.0\libstdc++.a(cow-string-inst.o)
 .xdata$_ZNSsC2ERKSsyRKSaIcE
                0x0000000068f6feb4        0x8 C:/mingw64/bin/../lib/gcc/x86_64-w64-mingw32/8.1.0\libstdc++.a(cow-string-inst.o)
 .xdata$_ZNSsC1ERKSsyRKSaIcE
                0x0000000068f6febc        0x8 C:/mingw64/bin/../lib/gcc/x86_64-w64-mingw32/8.1.0\libstdc++.a(cow-string-inst.o)
 .xdata$_ZNSsC2ERKSsyy
                0x0000000068f6fec4        0x8 C:/mingw64/bin/../lib/gcc/x86_64-w64-mingw32/8.1.0\libstdc++.a(cow-string-inst.o)
 .xdata$_ZNSsC1ERKSsyy
                0x0000000068f6fecc        0x8 C:/mingw64/bin/../lib/gcc/x86_64-w64-mingw32/8.1.0\libstdc++.a(cow-string-inst.o)
 .xdata$_ZNKSs6substrEyy
                0x0000000068f6fed4        0x8 C:/mingw64/bin/../lib/gcc/x86_64-w64-mingw32/8.1.0\libstdc++.a(cow-string-inst.o)
 .xdata$_ZNSsC2ERKSsyyRKSaIcE
                0x0000000068f6fedc        0x8 C:/mingw64/bin/../lib/gcc/x86_64-w64-mingw32/8.1.0\libstdc++.a(cow-string-inst.o)
 .xdata$_ZNSsC1ERKSsyyRKSaIcE
                0x0000000068f6fee4        0x8 C:/mingw64/bin/../lib/gcc/x86_64-w64-mingw32/8.1.0\libstdc++.a(cow-string-inst.o)
 .xdata$_ZNSsC2IPcEET_S1_RKSaIcE
                0x0000000068f6feec        0x8 C:/mingw64/bin/../lib/gcc/x86_64-w64-mingw32/8.1.0\libstdc++.a(cow-string-inst.o)
 .xdata$_ZNSsC1IPcEET_S1_RKSaIcE
                0x0000000068f6fef4        0x8 C:/mingw64/bin/../lib/gcc/x86_64-w64-mingw32/8.1.0\libstdc++.a(cow-string-inst.o)
 .xdata$_ZNSs12_S_constructIPKcEEPcT_S3_RKSaIcESt20forward_iterator_tag
                0x0000000068f6fefc        0xc C:/mingw64/bin/../lib/gcc/x86_64-w64-mingw32/8.1.0\libstdc++.a(cow-string-inst.o)
 .xdata$_ZNSsC2EPKcyRKSaIcE
                0x0000000068f6ff08        0x8 C:/mingw64/bin/../lib/gcc/x86_64-w64-mingw32/8.1.0\libstdc++.a(cow-string-inst.o)
 .xdata$_ZNSsC1EPKcyRKSaIcE
                0x0000000068f6ff10        0x8 C:/mingw64/bin/../lib/gcc/x86_64-w64-mingw32/8.1.0\libstdc++.a(cow-string-inst.o)
 .xdata$_ZNSs7replaceEyyPKcy
                0x0000000068f6ff18       0x2c C:/mingw64/bin/../lib/gcc/x86_64-w64-mingw32/8.1.0\libstdc++.a(cow-string-inst.o)
 .xdata$_ZNSs7replaceEyyRKSs
                0x0000000068f6ff44        0x8 C:/mingw64/bin/../lib/gcc/x86_64-w64-mingw32/8.1.0\libstdc++.a(cow-string-inst.o)
 .xdata$_ZNSs7replaceEyyRKSsyy
                0x0000000068f6ff4c        0x8 C:/mingw64/bin/../lib/gcc/x86_64-w64-mingw32/8.1.0\libstdc++.a(cow-string-inst.o)
 .xdata$_ZNSs7replaceEyyPKc
                0x0000000068f6ff54       0x10 C:/mingw64/bin/../lib/gcc/x86_64-w64-mingw32/8.1.0\libstdc++.a(cow-string-inst.o)
 .xdata$_ZNSs7replaceEN9__gnu_cxx17__normal_iteratorIPcSsEES2_PKcy
                0x0000000068f6ff64        0x4 C:/mingw64/bin/../lib/gcc/x86_64-w64-mingw32/8.1.0\libstdc++.a(cow-string-inst.o)
 .xdata$_ZNSs7replaceEN9__gnu_cxx17__normal_iteratorIPcSsEES2_RKSs
                0x0000000068f6ff68        0x8 C:/mingw64/bin/../lib/gcc/x86_64-w64-mingw32/8.1.0\libstdc++.a(cow-string-inst.o)
 .xdata$_ZNSs7replaceEN9__gnu_cxx17__normal_iteratorIPcSsEES2_PKc
                0x0000000068f6ff70       0x10 C:/mingw64/bin/../lib/gcc/x86_64-w64-mingw32/8.1.0\libstdc++.a(cow-string-inst.o)
 .xdata$_ZNSs7replaceEN9__gnu_cxx17__normal_iteratorIPcSsEES2_S1_S1_
                0x0000000068f6ff80        0x4 C:/mingw64/bin/../lib/gcc/x86_64-w64-mingw32/8.1.0\libstdc++.a(cow-string-inst.o)
 .xdata$_ZNSs7replaceEN9__gnu_cxx17__normal_iteratorIPcSsEES2_PKcS4_
                0x0000000068f6ff84        0x4 C:/mingw64/bin/../lib/gcc/x86_64-w64-mingw32/8.1.0\libstdc++.a(cow-string-inst.o)
 .xdata$_ZNSs7replaceEN9__gnu_cxx17__normal_iteratorIPcSsEES2_St16initializer_listIcE
                0x0000000068f6ff88        0x8 C:/mingw64/bin/../lib/gcc/x86_64-w64-mingw32/8.1.0\libstdc++.a(cow-string-inst.o)
 .xdata$_ZNSs7replaceEN9__gnu_cxx17__normal_iteratorIPcSsEES2_S2_S2_
                0x0000000068f6ff90        0x4 C:/mingw64/bin/../lib/gcc/x86_64-w64-mingw32/8.1.0\libstdc++.a(cow-string-inst.o)
 .xdata$_ZNSs7replaceEN9__gnu_cxx17__normal_iteratorIPcSsEES2_NS0_IPKcSsEES5_
                0x0000000068f6ff94        0x4 C:/mingw64/bin/../lib/gcc/x86_64-w64-mingw32/8.1.0\libstdc++.a(cow-string-inst.o)
 .xdata$_ZNSsC2EPKcRKSaIcE
                0x0000000068f6ff98        0xc C:/mingw64/bin/../lib/gcc/x86_64-w64-mingw32/8.1.0\libstdc++.a(cow-string-inst.o)
 .xdata$_ZNSsC1EPKcRKSaIcE
                0x0000000068f6ffa4        0xc C:/mingw64/bin/../lib/gcc/x86_64-w64-mingw32/8.1.0\libstdc++.a(cow-string-inst.o)
 .xdata$_ZNSsC2ESt16initializer_listIcERKSaIcE
                0x0000000068f6ffb0        0x8 C:/mingw64/bin/../lib/gcc/x86_64-w64-mingw32/8.1.0\libstdc++.a(cow-string-inst.o)
 .xdata$_ZNSsC1ESt16initializer_listIcERKSaIcE
                0x0000000068f6ffb8        0x8 C:/mingw64/bin/../lib/gcc/x86_64-w64-mingw32/8.1.0\libstdc++.a(cow-string-inst.o)
 .xdata$_ZNSsC2IPKcEET_S2_RKSaIcE
                0x0000000068f6ffc0        0x8 C:/mingw64/bin/../lib/gcc/x86_64-w64-mingw32/8.1.0\libstdc++.a(cow-string-inst.o)
 .xdata$_ZNSsC1IPKcEET_S2_RKSaIcE
                0x0000000068f6ffc8        0x8 C:/mingw64/bin/../lib/gcc/x86_64-w64-mingw32/8.1.0\libstdc++.a(cow-string-inst.o)
 .xdata$_ZN9__gnu_cxxeqIPcSsEEbRKNS_17__normal_iteratorIT_T0_EES7_
                0x0000000068f6ffd0        0x4 C:/mingw64/bin/../lib/gcc/x86_64-w64-mingw32/8.1.0\libstdc++.a(cow-string-inst.o)
 .xdata$_ZN9__gnu_cxxeqIPKcSsEEbRKNS_17__normal_iteratorIT_T0_EES8_
                0x0000000068f6ffd4        0x4 C:/mingw64/bin/../lib/gcc/x86_64-w64-mingw32/8.1.0\libstdc++.a(cow-string-inst.o)
 .xdata$_ZNSt13random_device7_M_initERKSs
                0x0000000068f6ffd8        0xc C:/mingw64/bin/../lib/gcc/x86_64-w64-mingw32/8.1.0\libstdc++.a(cow-string-inst.o)
 .xdata$_ZNSt13random_device14_M_init_pretr1ERKSs
                0x0000000068f6ffe4        0xc C:/mingw64/bin/../lib/gcc/x86_64-w64-mingw32/8.1.0\libstdc++.a(cow-string-inst.o)
 .xdata$_ZSt21__throw_bad_exceptionv
                0x0000000068f6fff0        0x8 C:/mingw64/bin/../lib/gcc/x86_64-w64-mingw32/8.1.0\libstdc++.a(functexcept.o)
 .xdata$_ZSt17__throw_bad_allocv
                0x0000000068f6fff8        0x8 C:/mingw64/bin/../lib/gcc/x86_64-w64-mingw32/8.1.0\libstdc++.a(functexcept.o)
 .xdata$_ZSt16__throw_bad_castv
                0x0000000068f70000        0x8 C:/mingw64/bin/../lib/gcc/x86_64-w64-mingw32/8.1.0\libstdc++.a(functexcept.o)
 .xdata$_ZSt18__throw_bad_typeidv
                0x0000000068f70008        0x8 C:/mingw64/bin/../lib/gcc/x86_64-w64-mingw32/8.1.0\libstdc++.a(functexcept.o)
 .xdata$_ZSt19__throw_logic_errorPKc
                0x0000000068f70010       0x1c C:/mingw64/bin/../lib/gcc/x86_64-w64-mingw32/8.1.0\libstdc++.a(functexcept.o)
 .xdata$_ZSt20__throw_domain_errorPKc
                0x0000000068f7002c       0x1c C:/mingw64/bin/../lib/gcc/x86_64-w64-mingw32/8.1.0\libstdc++.a(functexcept.o)
 .xdata$_ZSt24__throw_invalid_argumentPKc
                0x0000000068f70048       0x1c C:/mingw64/bin/../lib/gcc/x86_64-w64-mingw32/8.1.0\libstdc++.a(functexcept.o)
 .xdata$_ZSt20__throw_length_errorPKc
                0x0000000068f70064       0x1c C:/mingw64/bin/../lib/gcc/x86_64-w64-mingw32/8.1.0\libstdc++.a(functexcept.o)
 .xdata$_ZSt20__throw_out_of_rangePKc
                0x0000000068f70080       0x1c C:/mingw64/bin/../lib/gcc/x86_64-w64-mingw32/8.1.0\libstdc++.a(functexcept.o)
 .xdata$_ZSt24__throw_out_of_range_fmtPKcz
                0x0000000068f7009c       0x24 C:/mingw64/bin/../lib/gcc/x86_64-w64-mingw32/8.1.0\libstdc++.a(functexcept.o)
 .xdata$_ZSt21__throw_runtime_errorPKc
                0x0000000068f700c0       0x1c C:/mingw64/bin/../lib/gcc/x86_64-w64-mingw32/8.1.0\libstdc++.a(functexcept.o)
 .xdata$_ZSt19__throw_range_errorPKc
                0x0000000068f700dc       0x1c C:/mingw64/bin/../lib/gcc/x86_64-w64-mingw32/8.1.0\libstdc++.a(functexcept.o)
 .xdata$_ZSt22__throw_overflow_errorPKc
                0x0000000068f700f8       0x1c C:/mingw64/bin/../lib/gcc/x86_64-w64-mingw32/8.1.0\libstdc++.a(functexcept.o)
 .xdata$_ZSt23__throw_underflow_errorPKc
                0x0000000068f70114       0x1c C:/mingw64/bin/../lib/gcc/x86_64-w64-mingw32/8.1.0\libstdc++.a(functexcept.o)
 .xdata$_ZNKSt17bad_function_call4whatEv
                0x0000000068f70130        0x4 C:/mingw64/bin/../lib/gcc/x86_64-w64-mingw32/8.1.0\libstdc++.a(functional.o)
 .xdata$_ZNSt17bad_function_callD2Ev
                0x0000000068f70134        0x4 C:/mingw64/bin/../lib/gcc/x86_64-w64-mingw32/8.1.0\libstdc++.a(functional.o)
 .xdata$_ZNSt17bad_function_callD0Ev
                0x0000000068f70138        0x8 C:/mingw64/bin/../lib/gcc/x86_64-w64-mingw32/8.1.0\libstdc++.a(functional.o)
 .xdata$_ZSt25__throw_bad_function_callv
                0x0000000068f70140        0x8 C:/mingw64/bin/../lib/gcc/x86_64-w64-mingw32/8.1.0\libstdc++.a(functional.o)
 .xdata$_ZN9__gnu_cxx26__throw_insufficient_spaceEPKcS1_
                0x0000000068f70148       0x1c C:/mingw64/bin/../lib/gcc/x86_64-w64-mingw32/8.1.0\libstdc++.a(snprintf_lite.o)
 .xdata$_ZN9__gnu_cxx15__concat_size_tEPcyy
                0x0000000068f70164       0x14 C:/mingw64/bin/../lib/gcc/x86_64-w64-mingw32/8.1.0\libstdc++.a(snprintf_lite.o)
 .xdata$_ZN9__gnu_cxx15__snprintf_liteEPcyPKcS0_
                0x0000000068f70178       0x10 C:/mingw64/bin/../lib/gcc/x86_64-w64-mingw32/8.1.0\libstdc++.a(snprintf_lite.o)
 .xdata$_ZNSt12__sso_stringC2Ev
                0x0000000068f70188        0x4 C:/mingw64/bin/../lib/gcc/x86_64-w64-mingw32/8.1.0\libstdc++.a(sso_string.o)
 .xdata$_ZNSt12__sso_stringC2ERKNSt7__cxx1112basic_stringIcSt11char_traitsIcESaIcEEE
                0x0000000068f7018c        0x4 C:/mingw64/bin/../lib/gcc/x86_64-w64-mingw32/8.1.0\libstdc++.a(sso_string.o)
 .xdata$_ZNSt12__sso_stringC2EPKcy
                0x0000000068f70190        0x4 C:/mingw64/bin/../lib/gcc/x86_64-w64-mingw32/8.1.0\libstdc++.a(sso_string.o)
 .xdata$_ZNSt12__sso_stringC2ERKS_
                0x0000000068f70194        0xc C:/mingw64/bin/../lib/gcc/x86_64-w64-mingw32/8.1.0\libstdc++.a(sso_string.o)
 .xdata$_ZNSt12__sso_stringaSERKS_
                0x0000000068f701a0       0x10 C:/mingw64/bin/../lib/gcc/x86_64-w64-mingw32/8.1.0\libstdc++.a(sso_string.o)
 .xdata$_ZNSt12__sso_stringD2Ev
                0x0000000068f701b0        0x4 C:/mingw64/bin/../lib/gcc/x86_64-w64-mingw32/8.1.0\libstdc++.a(sso_string.o)
 .xdata$_ZNSt12__sso_stringC2EOS_
                0x0000000068f701b4        0x4 C:/mingw64/bin/../lib/gcc/x86_64-w64-mingw32/8.1.0\libstdc++.a(sso_string.o)
 .xdata$_ZNSt12__sso_stringaSEOS_
                0x0000000068f701b8       0x10 C:/mingw64/bin/../lib/gcc/x86_64-w64-mingw32/8.1.0\libstdc++.a(sso_string.o)
 .xdata$_ZNSt7__cxx1112basic_stringIcSt11char_traitsIcESaIcEE7_M_dataEPc
                0x0000000068f701c8        0x4 C:/mingw64/bin/../lib/gcc/x86_64-w64-mingw32/8.1.0\libstdc++.a(string-inst.o)
 .xdata$_ZNSt7__cxx1112basic_stringIcSt11char_traitsIcESaIcEE9_M_lengthEy
                0x0000000068f701cc        0x4 C:/mingw64/bin/../lib/gcc/x86_64-w64-mingw32/8.1.0\libstdc++.a(string-inst.o)
 .xdata$_ZNKSt7__cxx1112basic_stringIcSt11char_traitsIcESaIcEE7_M_dataEv
                0x0000000068f701d0        0x4 C:/mingw64/bin/../lib/gcc/x86_64-w64-mingw32/8.1.0\libstdc++.a(string-inst.o)
 .xdata$_ZNSt7__cxx1112basic_stringIcSt11char_traitsIcESaIcEE13_M_local_dataEv
                0x0000000068f701d4        0x4 C:/mingw64/bin/../lib/gcc/x86_64-w64-mingw32/8.1.0\libstdc++.a(string-inst.o)
 .xdata$_ZNKSt7__cxx1112basic_stringIcSt11char_traitsIcESaIcEE13_M_local_dataEv
                0x0000000068f701d8        0x4 C:/mingw64/bin/../lib/gcc/x86_64-w64-mingw32/8.1.0\libstdc++.a(string-inst.o)
 .xdata$_ZNSt7__cxx1112basic_stringIcSt11char_traitsIcESaIcEE11_M_capacityEy
                0x0000000068f701dc        0x4 C:/mingw64/bin/../lib/gcc/x86_64-w64-mingw32/8.1.0\libstdc++.a(string-inst.o)
 .xdata$_ZNSt7__cxx1112basic_stringIcSt11char_traitsIcESaIcEE13_M_set_lengthEy
                0x0000000068f701e0        0x4 C:/mingw64/bin/../lib/gcc/x86_64-w64-mingw32/8.1.0\libstdc++.a(string-inst.o)
 .xdata$_ZNKSt7__cxx1112basic_stringIcSt11char_traitsIcESaIcEE11_M_is_localEv
                0x0000000068f701e4        0x4 C:/mingw64/bin/../lib/gcc/x86_64-w64-mingw32/8.1.0\libstdc++.a(string-inst.o)
 .xdata$_ZNSt7__cxx1112basic_stringIcSt11char_traitsIcESaIcEE9_M_createERyy
                0x0000000068f701e8        0x8 C:/mingw64/bin/../lib/gcc/x86_64-w64-mingw32/8.1.0\libstdc++.a(string-inst.o)
 .xdata$_ZNSt7__cxx1112basic_stringIcSt11char_traitsIcESaIcEE10_M_disposeEv
                0x0000000068f701f0        0x4 C:/mingw64/bin/../lib/gcc/x86_64-w64-mingw32/8.1.0\libstdc++.a(string-inst.o)
 .xdata$_ZNSt7__cxx1112basic_stringIcSt11char_traitsIcESaIcEE10_M_destroyEy
                0x0000000068f701f4        0x4 C:/mingw64/bin/../lib/gcc/x86_64-w64-mingw32/8.1.0\libstdc++.a(string-inst.o)
 .xdata$_ZNSt7__cxx1112basic_stringIcSt11char_traitsIcESaIcEE12_M_constructEyc
                0x0000000068f701f8        0xc C:/mingw64/bin/../lib/gcc/x86_64-w64-mingw32/8.1.0\libstdc++.a(string-inst.o)
 .xdata$_ZNSt7__cxx1112basic_stringIcSt11char_traitsIcESaIcEE18_M_construct_aux_2Eyc
                0x0000000068f70204        0x4 C:/mingw64/bin/../lib/gcc/x86_64-w64-mingw32/8.1.0\libstdc++.a(string-inst.o)
 .xdata$_ZNSt7__cxx1112basic_stringIcSt11char_traitsIcESaIcEE16_M_get_allocatorEv
                0x0000000068f70208        0x4 C:/mingw64/bin/../lib/gcc/x86_64-w64-mingw32/8.1.0\libstdc++.a(string-inst.o)
 .xdata$_ZNKSt7__cxx1112basic_stringIcSt11char_traitsIcESaIcEE16_M_get_allocatorEv
                0x0000000068f7020c        0x4 C:/mingw64/bin/../lib/gcc/x86_64-w64-mingw32/8.1.0\libstdc++.a(string-inst.o)
 .xdata$_ZNKSt7__cxx1112basic_stringIcSt11char_traitsIcESaIcEE8_M_checkEyPKc
                0x0000000068f70210        0x8 C:/mingw64/bin/../lib/gcc/x86_64-w64-mingw32/8.1.0\libstdc++.a(string-inst.o)
 .xdata$_ZNKSt7__cxx1112basic_stringIcSt11char_traitsIcESaIcEE15_M_check_lengthEyyPKc
                0x0000000068f70218        0x8 C:/mingw64/bin/../lib/gcc/x86_64-w64-mingw32/8.1.0\libstdc++.a(string-inst.o)
 .xdata$_ZNKSt7__cxx1112basic_stringIcSt11char_traitsIcESaIcEE8_M_limitEyy
                0x0000000068f70220        0x4 C:/mingw64/bin/../lib/gcc/x86_64-w64-mingw32/8.1.0\libstdc++.a(string-inst.o)
 .xdata$_ZNKSt7__cxx1112basic_stringIcSt11char_traitsIcESaIcEE11_M_disjunctEPKc
                0x0000000068f70224        0x4 C:/mingw64/bin/../lib/gcc/x86_64-w64-mingw32/8.1.0\libstdc++.a(string-inst.o)
 .xdata$_ZNSt7__cxx1112basic_stringIcSt11char_traitsIcESaIcEE9_S_assignEPcyc
                0x0000000068f70228        0x4 C:/mingw64/bin/../lib/gcc/x86_64-w64-mingw32/8.1.0\libstdc++.a(string-inst.o)
 .xdata$_ZNSt7__cxx1112basic_stringIcSt11char_traitsIcESaIcEE13_S_copy_charsEPcN9__gnu_cxx17__normal_iteratorIS5_S4_EES8_
                0x0000000068f7022c        0x4 C:/mingw64/bin/../lib/gcc/x86_64-w64-mingw32/8.1.0\libstdc++.a(string-inst.o)
 .xdata$_ZNSt7__cxx1112basic_stringIcSt11char_traitsIcESaIcEE13_S_copy_charsEPcN9__gnu_cxx17__normal_iteratorIPKcS4_EESA_
                0x0000000068f70230        0x4 C:/mingw64/bin/../lib/gcc/x86_64-w64-mingw32/8.1.0\libstdc++.a(string-inst.o)
 .xdata$_ZNSt7__cxx1112basic_stringIcSt11char_traitsIcESaIcEE13_S_copy_charsEPcS5_S5_
                0x0000000068f70234        0x4 C:/mingw64/bin/../lib/gcc/x86_64-w64-mingw32/8.1.0\libstdc++.a(string-inst.o)
 .xdata$_ZNSt7__cxx1112basic_stringIcSt11char_traitsIcESaIcEE13_S_copy_charsEPcPKcS7_
                0x0000000068f70238        0x4 C:/mingw64/bin/../lib/gcc/x86_64-w64-mingw32/8.1.0\libstdc++.a(string-inst.o)
 .xdata$_ZNSt7__cxx1112basic_stringIcSt11char_traitsIcESaIcEE10_S_compareEyy
                0x0000000068f7023c        0x4 C:/mingw64/bin/../lib/gcc/x86_64-w64-mingw32/8.1.0\libstdc++.a(string-inst.o)
 .xdata$_ZNSt7__cxx1112basic_stringIcSt11char_traitsIcESaIcEE9_M_assignERKS4_
                0x0000000068f70240       0x10 C:/mingw64/bin/../lib/gcc/x86_64-w64-mingw32/8.1.0\libstdc++.a(string-inst.o)
 .xdata$_ZNSt7__cxx1112basic_stringIcSt11char_traitsIcESaIcEE8_M_eraseEyy
                0x0000000068f70250        0xc C:/mingw64/bin/../lib/gcc/x86_64-w64-mingw32/8.1.0\libstdc++.a(string-inst.o)
 .xdata$_ZNSt7__cxx1112basic_stringIcSt11char_traitsIcESaIcEEC2Ev
                0x0000000068f7025c        0x4 C:/mingw64/bin/../lib/gcc/x86_64-w64-mingw32/8.1.0\libstdc++.a(string-inst.o)
 .xdata$_ZNSt7__cxx1112basic_stringIcSt11char_traitsIcESaIcEEC1Ev
                0x0000000068f70260        0x4 C:/mingw64/bin/../lib/gcc/x86_64-w64-mingw32/8.1.0\libstdc++.a(string-inst.o)
 .xdata$_ZNSt7__cxx1112basic_stringIcSt11char_traitsIcESaIcEEC2ERKS3_
                0x0000000068f70264        0x4 C:/mingw64/bin/../lib/gcc/x86_64-w64-mingw32/8.1.0\libstdc++.a(string-inst.o)
 .xdata$_ZNSt7__cxx1112basic_stringIcSt11char_traitsIcESaIcEEC1ERKS3_
                0x0000000068f70268        0x4 C:/mingw64/bin/../lib/gcc/x86_64-w64-mingw32/8.1.0\libstdc++.a(string-inst.o)
 .xdata$_ZNSt7__cxx1112basic_stringIcSt11char_traitsIcESaIcEEC2EycRKS3_
                0x0000000068f7026c        0x4 C:/mingw64/bin/../lib/gcc/x86_64-w64-mingw32/8.1.0\libstdc++.a(string-inst.o)
 .xdata$_ZNSt7__cxx1112basic_stringIcSt11char_traitsIcESaIcEEC1EycRKS3_
                0x0000000068f70270        0x4 C:/mingw64/bin/../lib/gcc/x86_64-w64-mingw32/8.1.0\libstdc++.a(string-inst.o)
 .xdata$_ZNSt7__cxx1112basic_stringIcSt11char_traitsIcESaIcEEC2EOS4_
                0x0000000068f70274        0x4 C:/mingw64/bin/../lib/gcc/x86_64-w64-mingw32/8.1.0\libstdc++.a(string-inst.o)
 .xdata$_ZNSt7__cxx1112basic_stringIcSt11char_traitsIcESaIcEEC1EOS4_
                0x0000000068f70278        0x4 C:/mingw64/bin/../lib/gcc/x86_64-w64-mingw32/8.1.0\libstdc++.a(string-inst.o)
 .xdata$_ZNSt7__cxx1112basic_stringIcSt11char_traitsIcESaIcEEC2EOS4_RKS3_
                0x0000000068f7027c        0x4 C:/mingw64/bin/../lib/gcc/x86_64-w64-mingw32/8.1.0\libstdc++.a(string-inst.o)
 .xdata$_ZNSt7__cxx1112basic_stringIcSt11char_traitsIcESaIcEEC1EOS4_RKS3_
                0x0000000068f70280        0x4 C:/mingw64/bin/../lib/gcc/x86_64-w64-mingw32/8.1.0\libstdc++.a(string-inst.o)
 .xdata$_ZNSt7__cxx1112basic_stringIcSt11char_traitsIcESaIcEED2Ev
                0x0000000068f70284        0x4 C:/mingw64/bin/../lib/gcc/x86_64-w64-mingw32/8.1.0\libstdc++.a(string-inst.o)
 .xdata$_ZNSt7__cxx1112basic_stringIcSt11char_traitsIcESaIcEED1Ev
                0x0000000068f70288        0x4 C:/mingw64/bin/../lib/gcc/x86_64-w64-mingw32/8.1.0\libstdc++.a(string-inst.o)
 .xdata$_ZNSt7__cxx1112basic_stringIcSt11char_traitsIcESaIcEEaSERKS4_
                0x0000000068f7028c        0x8 C:/mingw64/bin/../lib/gcc/x86_64-w64-mingw32/8.1.0\libstdc++.a(string-inst.o)
 .xdata$_ZNSt7__cxx1112basic_stringIcSt11char_traitsIcESaIcEEaSEOS4_
                0x0000000068f70294       0x10 C:/mingw64/bin/../lib/gcc/x86_64-w64-mingw32/8.1.0\libstdc++.a(string-inst.o)
 .xdata$_ZNSt7__cxx1112basic_stringIcSt11char_traitsIcESaIcEE5beginEv
                0x0000000068f702a4        0x4 C:/mingw64/bin/../lib/gcc/x86_64-w64-mingw32/8.1.0\libstdc++.a(string-inst.o)
 .xdata$_ZNKSt7__cxx1112basic_stringIcSt11char_traitsIcESaIcEE5beginEv
                0x0000000068f702a8        0x4 C:/mingw64/bin/../lib/gcc/x86_64-w64-mingw32/8.1.0\libstdc++.a(string-inst.o)
 .xdata$_ZNSt7__cxx1112basic_stringIcSt11char_traitsIcESaIcEE3endEv
                0x0000000068f702ac        0x4 C:/mingw64/bin/../lib/gcc/x86_64-w64-mingw32/8.1.0\libstdc++.a(string-inst.o)
 .xdata$_ZNKSt7__cxx1112basic_stringIcSt11char_traitsIcESaIcEE3endEv
                0x0000000068f702b0        0x4 C:/mingw64/bin/../lib/gcc/x86_64-w64-mingw32/8.1.0\libstdc++.a(string-inst.o)
 .xdata$_ZNSt7__cxx1112basic_stringIcSt11char_traitsIcESaIcEE6rbeginEv
                0x0000000068f702b4        0x4 C:/mingw64/bin/../lib/gcc/x86_64-w64-mingw32/8.1.0\libstdc++.a(string-inst.o)
 .xdata$_ZNKSt7__cxx1112basic_stringIcSt11char_traitsIcESaIcEE6rbeginEv
                0x0000000068f702b8        0x4 C:/mingw64/bin/../lib/gcc/x86_64-w64-mingw32/8.1.0\libstdc++.a(string-inst.o)
 .xdata$_ZNSt7__cxx1112basic_stringIcSt11char_traitsIcESaIcEE4rendEv
                0x0000000068f702bc        0x4 C:/mingw64/bin/../lib/gcc/x86_64-w64-mingw32/8.1.0\libstdc++.a(string-inst.o)
 .xdata$_ZNKSt7__cxx1112basic_stringIcSt11char_traitsIcESaIcEE4rendEv
                0x0000000068f702c0        0x4 C:/mingw64/bin/../lib/gcc/x86_64-w64-mingw32/8.1.0\libstdc++.a(string-inst.o)
 .xdata$_ZNKSt7__cxx1112basic_stringIcSt11char_traitsIcESaIcEE6cbeginEv
                0x0000000068f702c4        0x4 C:/mingw64/bin/../lib/gcc/x86_64-w64-mingw32/8.1.0\libstdc++.a(string-inst.o)
 .xdata$_ZNKSt7__cxx1112basic_stringIcSt11char_traitsIcESaIcEE4cendEv
                0x0000000068f702c8        0x4 C:/mingw64/bin/../lib/gcc/x86_64-w64-mingw32/8.1.0\libstdc++.a(string-inst.o)
 .xdata$_ZNKSt7__cxx1112basic_stringIcSt11char_traitsIcESaIcEE7crbeginEv
                0x0000000068f702cc        0x4 C:/mingw64/bin/../lib/gcc/x86_64-w64-mingw32/8.1.0\libstdc++.a(string-inst.o)
 .xdata$_ZNKSt7__cxx1112basic_stringIcSt11char_traitsIcESaIcEE5crendEv
                0x0000000068f702d0        0x4 C:/mingw64/bin/../lib/gcc/x86_64-w64-mingw32/8.1.0\libstdc++.a(string-inst.o)
 .xdata$_ZNKSt7__cxx1112basic_stringIcSt11char_traitsIcESaIcEE4sizeEv
                0x0000000068f702d4        0x4 C:/mingw64/bin/../lib/gcc/x86_64-w64-mingw32/8.1.0\libstdc++.a(string-inst.o)
 .xdata$_ZNKSt7__cxx1112basic_stringIcSt11char_traitsIcESaIcEE6lengthEv
                0x0000000068f702d8        0x4 C:/mingw64/bin/../lib/gcc/x86_64-w64-mingw32/8.1.0\libstdc++.a(string-inst.o)
 .xdata$_ZNKSt7__cxx1112basic_stringIcSt11char_traitsIcESaIcEE8max_sizeEv
                0x0000000068f702dc        0x4 C:/mingw64/bin/../lib/gcc/x86_64-w64-mingw32/8.1.0\libstdc++.a(string-inst.o)
 .xdata$_ZNKSt7__cxx1112basic_stringIcSt11char_traitsIcESaIcEE8capacityEv
                0x0000000068f702e0        0x4 C:/mingw64/bin/../lib/gcc/x86_64-w64-mingw32/8.1.0\libstdc++.a(string-inst.o)
 .xdata$_ZNSt7__cxx1112basic_stringIcSt11char_traitsIcESaIcEE7reserveEy
                0x0000000068f702e4       0x10 C:/mingw64/bin/../lib/gcc/x86_64-w64-mingw32/8.1.0\libstdc++.a(string-inst.o)
 .xdata$_ZNSt7__cxx1112basic_stringIcSt11char_traitsIcESaIcEE13shrink_to_fitEv
                0x0000000068f702f4       0x1c C:/mingw64/bin/../lib/gcc/x86_64-w64-mingw32/8.1.0\libstdc++.a(string-inst.o)
 .xdata$_ZNSt7__cxx1112basic_stringIcSt11char_traitsIcESaIcEE5clearEv
                0x0000000068f70310        0x4 C:/mingw64/bin/../lib/gcc/x86_64-w64-mingw32/8.1.0\libstdc++.a(string-inst.o)
 .xdata$_ZNKSt7__cxx1112basic_stringIcSt11char_traitsIcESaIcEE5emptyEv
                0x0000000068f70314        0x4 C:/mingw64/bin/../lib/gcc/x86_64-w64-mingw32/8.1.0\libstdc++.a(string-inst.o)
 .xdata$_ZNKSt7__cxx1112basic_stringIcSt11char_traitsIcESaIcEEixEy
                0x0000000068f70318        0x4 C:/mingw64/bin/../lib/gcc/x86_64-w64-mingw32/8.1.0\libstdc++.a(string-inst.o)
 .xdata$_ZNSt7__cxx1112basic_stringIcSt11char_traitsIcESaIcEEixEy
                0x0000000068f7031c        0x4 C:/mingw64/bin/../lib/gcc/x86_64-w64-mingw32/8.1.0\libstdc++.a(string-inst.o)
 .xdata$_ZNKSt7__cxx1112basic_stringIcSt11char_traitsIcESaIcEE2atEy
                0x0000000068f70320        0x8 C:/mingw64/bin/../lib/gcc/x86_64-w64-mingw32/8.1.0\libstdc++.a(string-inst.o)
 .xdata$_ZNSt7__cxx1112basic_stringIcSt11char_traitsIcESaIcEE2atEy
                0x0000000068f70328        0x8 C:/mingw64/bin/../lib/gcc/x86_64-w64-mingw32/8.1.0\libstdc++.a(string-inst.o)
 .xdata$_ZNSt7__cxx1112basic_stringIcSt11char_traitsIcESaIcEE5frontEv
                0x0000000068f70330        0x4 C:/mingw64/bin/../lib/gcc/x86_64-w64-mingw32/8.1.0\libstdc++.a(string-inst.o)
 .xdata$_ZNKSt7__cxx1112basic_stringIcSt11char_traitsIcESaIcEE5frontEv
                0x0000000068f70334        0x4 C:/mingw64/bin/../lib/gcc/x86_64-w64-mingw32/8.1.0\libstdc++.a(string-inst.o)
 .xdata$_ZNSt7__cxx1112basic_stringIcSt11char_traitsIcESaIcEE4backEv
                0x0000000068f70338        0x4 C:/mingw64/bin/../lib/gcc/x86_64-w64-mingw32/8.1.0\libstdc++.a(string-inst.o)
 .xdata$_ZNKSt7__cxx1112basic_stringIcSt11char_traitsIcESaIcEE4backEv
                0x0000000068f7033c        0x4 C:/mingw64/bin/../lib/gcc/x86_64-w64-mingw32/8.1.0\libstdc++.a(string-inst.o)
 .xdata$_ZNSt7__cxx1112basic_stringIcSt11char_traitsIcESaIcEEpLEc
                0x0000000068f70340       0x10 C:/mingw64/bin/../lib/gcc/x86_64-w64-mingw32/8.1.0\libstdc++.a(string-inst.o)
 .xdata$_ZNSt7__cxx1112basic_stringIcSt11char_traitsIcESaIcEE9push_backEc
                0x0000000068f70350       0x10 C:/mingw64/bin/../lib/gcc/x86_64-w64-mingw32/8.1.0\libstdc++.a(string-inst.o)
 .xdata$_ZNSt7__cxx1112basic_stringIcSt11char_traitsIcESaIcEE6assignERKS4_
                0x0000000068f70360        0x8 C:/mingw64/bin/../lib/gcc/x86_64-w64-mingw32/8.1.0\libstdc++.a(string-inst.o)
 .xdata$_ZNSt7__cxx1112basic_stringIcSt11char_traitsIcESaIcEE6assignEOS4_
                0x0000000068f70368       0x10 C:/mingw64/bin/../lib/gcc/x86_64-w64-mingw32/8.1.0\libstdc++.a(string-inst.o)
 .xdata$_ZNSt7__cxx1112basic_stringIcSt11char_traitsIcESaIcEE5eraseEyy
                0x0000000068f70378        0x8 C:/mingw64/bin/../lib/gcc/x86_64-w64-mingw32/8.1.0\libstdc++.a(string-inst.o)
 .xdata$_ZNSt7__cxx1112basic_stringIcSt11char_traitsIcESaIcEE5eraseEN9__gnu_cxx17__normal_iteratorIPKcS4_EE
                0x0000000068f70380        0xc C:/mingw64/bin/../lib/gcc/x86_64-w64-mingw32/8.1.0\libstdc++.a(string-inst.o)
 .xdata$_ZNSt7__cxx1112basic_stringIcSt11char_traitsIcESaIcEE5eraseEN9__gnu_cxx17__normal_iteratorIPKcS4_EES9_
                0x0000000068f7038c        0xc C:/mingw64/bin/../lib/gcc/x86_64-w64-mingw32/8.1.0\libstdc++.a(string-inst.o)
 .xdata$_ZNSt7__cxx1112basic_stringIcSt11char_traitsIcESaIcEE8pop_backEv
                0x0000000068f70398        0x4 C:/mingw64/bin/../lib/gcc/x86_64-w64-mingw32/8.1.0\libstdc++.a(string-inst.o)
 .xdata$_ZNSt7__cxx1112basic_stringIcSt11char_traitsIcESaIcEE14_M_replace_auxEyyyc
                0x0000000068f7039c       0x10 C:/mingw64/bin/../lib/gcc/x86_64-w64-mingw32/8.1.0\libstdc++.a(string-inst.o)
 .xdata$_ZNSt7__cxx1112basic_stringIcSt11char_traitsIcESaIcEE6appendEyc
                0x0000000068f703ac        0x8 C:/mingw64/bin/../lib/gcc/x86_64-w64-mingw32/8.1.0\libstdc++.a(string-inst.o)
 .xdata$_ZNSt7__cxx1112basic_stringIcSt11char_traitsIcESaIcEE6resizeEyc
                0x0000000068f703b4        0x8 C:/mingw64/bin/../lib/gcc/x86_64-w64-mingw32/8.1.0\libstdc++.a(string-inst.o)
 .xdata$_ZNSt7__cxx1112basic_stringIcSt11char_traitsIcESaIcEE6resizeEy
                0x0000000068f703bc        0x4 C:/mingw64/bin/../lib/gcc/x86_64-w64-mingw32/8.1.0\libstdc++.a(string-inst.o)
 .xdata$_ZNSt7__cxx1112basic_stringIcSt11char_traitsIcESaIcEE6assignEyc
                0x0000000068f703c0        0x8 C:/mingw64/bin/../lib/gcc/x86_64-w64-mingw32/8.1.0\libstdc++.a(string-inst.o)
 .xdata$_ZNSt7__cxx1112basic_stringIcSt11char_traitsIcESaIcEEaSEc
                0x0000000068f703c8        0x8 C:/mingw64/bin/../lib/gcc/x86_64-w64-mingw32/8.1.0\libstdc++.a(string-inst.o)
 .xdata$_ZNSt7__cxx1112basic_stringIcSt11char_traitsIcESaIcEE6insertEyyc
                0x0000000068f703d0        0x8 C:/mingw64/bin/../lib/gcc/x86_64-w64-mingw32/8.1.0\libstdc++.a(string-inst.o)
 .xdata$_ZNSt7__cxx1112basic_stringIcSt11char_traitsIcESaIcEE6insertEN9__gnu_cxx17__normal_iteratorIPKcS4_EEc
                0x0000000068f703d8        0xc C:/mingw64/bin/../lib/gcc/x86_64-w64-mingw32/8.1.0\libstdc++.a(string-inst.o)
 .xdata$_ZNSt7__cxx1112basic_stringIcSt11char_traitsIcESaIcEE7replaceEyyyc
                0x0000000068f703e4        0x8 C:/mingw64/bin/../lib/gcc/x86_64-w64-mingw32/8.1.0\libstdc++.a(string-inst.o)
 .xdata$_ZNSt7__cxx1112basic_stringIcSt11char_traitsIcESaIcEE7replaceEN9__gnu_cxx17__normal_iteratorIPKcS4_EES9_yc
                0x0000000068f703ec        0x4 C:/mingw64/bin/../lib/gcc/x86_64-w64-mingw32/8.1.0\libstdc++.a(string-inst.o)
 .xdata$_ZNSt7__cxx1112basic_stringIcSt11char_traitsIcESaIcEE6insertEN9__gnu_cxx17__normal_iteratorIPKcS4_EEyc
                0x0000000068f703f0        0xc C:/mingw64/bin/../lib/gcc/x86_64-w64-mingw32/8.1.0\libstdc++.a(string-inst.o)
 .xdata$_ZNSt7__cxx1112basic_stringIcSt11char_traitsIcESaIcEE6assignERKS4_yy
                0x0000000068f703fc        0x8 C:/mingw64/bin/../lib/gcc/x86_64-w64-mingw32/8.1.0\libstdc++.a(string-inst.o)
 .xdata$_ZNSt7__cxx1112basic_stringIcSt11char_traitsIcESaIcEE6assignEPKcy
                0x0000000068f70404        0x8 C:/mingw64/bin/../lib/gcc/x86_64-w64-mingw32/8.1.0\libstdc++.a(string-inst.o)
 .xdata$_ZNSt7__cxx1112basic_stringIcSt11char_traitsIcESaIcEEaSESt16initializer_listIcE
                0x0000000068f7040c        0x8 C:/mingw64/bin/../lib/gcc/x86_64-w64-mingw32/8.1.0\libstdc++.a(string-inst.o)
 .xdata$_ZNSt7__cxx1112basic_stringIcSt11char_traitsIcESaIcEE6assignESt16initializer_listIcE
                0x0000000068f70414        0x8 C:/mingw64/bin/../lib/gcc/x86_64-w64-mingw32/8.1.0\libstdc++.a(string-inst.o)
 .xdata$_ZNSt7__cxx1112basic_stringIcSt11char_traitsIcESaIcEE6assignEPKc
                0x0000000068f7041c        0xc C:/mingw64/bin/../lib/gcc/x86_64-w64-mingw32/8.1.0\libstdc++.a(string-inst.o)
 .xdata$_ZNSt7__cxx1112basic_stringIcSt11char_traitsIcESaIcEE7replaceEyyPKcy
                0x0000000068f70428        0x8 C:/mingw64/bin/../lib/gcc/x86_64-w64-mingw32/8.1.0\libstdc++.a(string-inst.o)
 .xdata$_ZNSt7__cxx1112basic_stringIcSt11char_traitsIcESaIcEEaSEPKc
                0x0000000068f70430        0xc C:/mingw64/bin/../lib/gcc/x86_64-w64-mingw32/8.1.0\libstdc++.a(string-inst.o)
 .xdata$_ZNSt7__cxx1112basic_stringIcSt11char_traitsIcESaIcEE6insertEyRKS4_
                0x0000000068f7043c        0x8 C:/mingw64/bin/../lib/gcc/x86_64-w64-mingw32/8.1.0\libstdc++.a(string-inst.o)
 .xdata$_ZNSt7__cxx1112basic_stringIcSt11char_traitsIcESaIcEE6insertEyPKcy
                0x0000000068f70444        0x8 C:/mingw64/bin/../lib/gcc/x86_64-w64-mingw32/8.1.0\libstdc++.a(string-inst.o)
 .xdata$_ZNSt7__cxx1112basic_stringIcSt11char_traitsIcESaIcEE7replaceEyyRKS4_
                0x0000000068f7044c        0x8 C:/mingw64/bin/../lib/gcc/x86_64-w64-mingw32/8.1.0\libstdc++.a(string-inst.o)
 .xdata$_ZNSt7__cxx1112basic_stringIcSt11char_traitsIcESaIcEE7replaceEN9__gnu_cxx17__normal_iteratorIPKcS4_EES9_RKS4_
                0x0000000068f70454        0x8 C:/mingw64/bin/../lib/gcc/x86_64-w64-mingw32/8.1.0\libstdc++.a(string-inst.o)
 .xdata$_ZNSt7__cxx1112basic_stringIcSt11char_traitsIcESaIcEE7replaceEN9__gnu_cxx17__normal_iteratorIPKcS4_EES9_S8_y
                0x0000000068f7045c        0x8 C:/mingw64/bin/../lib/gcc/x86_64-w64-mingw32/8.1.0\libstdc++.a(string-inst.o)
 .xdata$_ZNSt7__cxx1112basic_stringIcSt11char_traitsIcESaIcEE7replaceEN9__gnu_cxx17__normal_iteratorIPKcS4_EES9_PcSA_
                0x0000000068f70464        0x8 C:/mingw64/bin/../lib/gcc/x86_64-w64-mingw32/8.1.0\libstdc++.a(string-inst.o)
 .xdata$_ZNSt7__cxx1112basic_stringIcSt11char_traitsIcESaIcEE7replaceEN9__gnu_cxx17__normal_iteratorIPKcS4_EES9_S8_S8_
                0x0000000068f7046c        0x8 C:/mingw64/bin/../lib/gcc/x86_64-w64-mingw32/8.1.0\libstdc++.a(string-inst.o)
 .xdata$_ZNSt7__cxx1112basic_stringIcSt11char_traitsIcESaIcEE7replaceEN9__gnu_cxx17__normal_iteratorIPKcS4_EES9_St16initializer_listIcE
                0x0000000068f70474        0x8 C:/mingw64/bin/../lib/gcc/x86_64-w64-mingw32/8.1.0\libstdc++.a(string-inst.o)
 .xdata$_ZNSt7__cxx1112basic_stringIcSt11char_traitsIcESaIcEE6insertEyRKS4_yy
                0x0000000068f7047c        0x8 C:/mingw64/bin/../lib/gcc/x86_64-w64-mingw32/8.1.0\libstdc++.a(string-inst.o)
 .xdata$_ZNSt7__cxx1112basic_stringIcSt11char_traitsIcESaIcEE7replaceEyyRKS4_yy
                0x0000000068f70484        0xc C:/mingw64/bin/../lib/gcc/x86_64-w64-mingw32/8.1.0\libstdc++.a(string-inst.o)
 .xdata$_ZNSt7__cxx1112basic_stringIcSt11char_traitsIcESaIcEE7replaceEN9__gnu_cxx17__normal_iteratorIPKcS4_EES9_NS6_IPcS4_EESB_
                0x0000000068f70490        0x8 C:/mingw64/bin/../lib/gcc/x86_64-w64-mingw32/8.1.0\libstdc++.a(string-inst.o)
 .xdata$_ZNSt7__cxx1112basic_stringIcSt11char_traitsIcESaIcEE7replaceEN9__gnu_cxx17__normal_iteratorIPKcS4_EES9_S9_S9_
                0x0000000068f70498        0x8 C:/mingw64/bin/../lib/gcc/x86_64-w64-mingw32/8.1.0\libstdc++.a(string-inst.o)
 .xdata$_ZNSt7__cxx1112basic_stringIcSt11char_traitsIcESaIcEE6insertEN9__gnu_cxx17__normal_iteratorIPcS4_EESt16initializer_listIcE
                0x0000000068f704a0        0x8 C:/mingw64/bin/../lib/gcc/x86_64-w64-mingw32/8.1.0\libstdc++.a(string-inst.o)
 .xdata$_ZNSt7__cxx1112basic_stringIcSt11char_traitsIcESaIcEE7replaceEyyPKc
                0x0000000068f704a8       0x10 C:/mingw64/bin/../lib/gcc/x86_64-w64-mingw32/8.1.0\libstdc++.a(string-inst.o)
 .xdata$_ZNSt7__cxx1112basic_stringIcSt11char_traitsIcESaIcEE6insertEyPKc
                0x0000000068f704b8        0xc C:/mingw64/bin/../lib/gcc/x86_64-w64-mingw32/8.1.0\libstdc++.a(string-inst.o)
 .xdata$_ZNSt7__cxx1112basic_stringIcSt11char_traitsIcESaIcEE7replaceEN9__gnu_cxx17__normal_iteratorIPKcS4_EES9_S8_
                0x0000000068f704c4       0x10 C:/mingw64/bin/../lib/gcc/x86_64-w64-mingw32/8.1.0\libstdc++.a(string-inst.o)
 .xdata$_ZNSt7__cxx1112basic_stringIcSt11char_traitsIcESaIcEE9_M_appendEPKcy
                0x0000000068f704d4        0xc C:/mingw64/bin/../lib/gcc/x86_64-w64-mingw32/8.1.0\libstdc++.a(string-inst.o)
 .xdata$_ZNSt7__cxx1112basic_stringIcSt11char_traitsIcESaIcEE6appendERKS4_
                0x0000000068f704e0        0x4 C:/mingw64/bin/../lib/gcc/x86_64-w64-mingw32/8.1.0\libstdc++.a(string-inst.o)
 .xdata$_ZNSt7__cxx1112basic_stringIcSt11char_traitsIcESaIcEEpLERKS4_
                0x0000000068f704e4        0x4 C:/mingw64/bin/../lib/gcc/x86_64-w64-mingw32/8.1.0\libstdc++.a(string-inst.o)
 .xdata$_ZNSt7__cxx1112basic_stringIcSt11char_traitsIcESaIcEE6appendERKS4_yy
                0x0000000068f704e8        0x8 C:/mingw64/bin/../lib/gcc/x86_64-w64-mingw32/8.1.0\libstdc++.a(string-inst.o)
 .xdata$_ZNSt7__cxx1112basic_stringIcSt11char_traitsIcESaIcEE6appendEPKcy
                0x0000000068f704f0        0x8 C:/mingw64/bin/../lib/gcc/x86_64-w64-mingw32/8.1.0\libstdc++.a(string-inst.o)
 .xdata$_ZNSt7__cxx1112basic_stringIcSt11char_traitsIcESaIcEE6appendEPKc
                0x0000000068f704f8        0xc C:/mingw64/bin/../lib/gcc/x86_64-w64-mingw32/8.1.0\libstdc++.a(string-inst.o)
 .xdata$_ZNSt7__cxx1112basic_stringIcSt11char_traitsIcESaIcEEpLEPKc
                0x0000000068f70504        0xc C:/mingw64/bin/../lib/gcc/x86_64-w64-mingw32/8.1.0\libstdc++.a(string-inst.o)
 .xdata$_ZNSt7__cxx1112basic_stringIcSt11char_traitsIcESaIcEE6appendESt16initializer_listIcE
                0x0000000068f70510        0x8 C:/mingw64/bin/../lib/gcc/x86_64-w64-mingw32/8.1.0\libstdc++.a(string-inst.o)
 .xdata$_ZNSt7__cxx1112basic_stringIcSt11char_traitsIcESaIcEEpLESt16initializer_listIcE
                0x0000000068f70518        0x8 C:/mingw64/bin/../lib/gcc/x86_64-w64-mingw32/8.1.0\libstdc++.a(string-inst.o)
 .xdata$_ZNKSt7__cxx1112basic_stringIcSt11char_traitsIcESaIcEE4copyEPcyy
                0x0000000068f70520        0x8 C:/mingw64/bin/../lib/gcc/x86_64-w64-mingw32/8.1.0\libstdc++.a(string-inst.o)
 .xdata$_ZNSt7__cxx1112basic_stringIcSt11char_traitsIcESaIcEE4swapERS4_
                0x0000000068f70528        0x4 C:/mingw64/bin/../lib/gcc/x86_64-w64-mingw32/8.1.0\libstdc++.a(string-inst.o)
 .xdata$_ZNKSt7__cxx1112basic_stringIcSt11char_traitsIcESaIcEE5c_strEv
                0x0000000068f7052c        0x4 C:/mingw64/bin/../lib/gcc/x86_64-w64-mingw32/8.1.0\libstdc++.a(string-inst.o)
 .xdata$_ZNKSt7__cxx1112basic_stringIcSt11char_traitsIcESaIcEE4dataEv
                0x0000000068f70530        0x4 C:/mingw64/bin/../lib/gcc/x86_64-w64-mingw32/8.1.0\libstdc++.a(string-inst.o)
 .xdata$_ZNKSt7__cxx1112basic_stringIcSt11char_traitsIcESaIcEE13get_allocatorEv
                0x0000000068f70534        0x4 C:/mingw64/bin/../lib/gcc/x86_64-w64-mingw32/8.1.0\libstdc++.a(string-inst.o)
 .xdata$_ZNKSt7__cxx1112basic_stringIcSt11char_traitsIcESaIcEE4findEPKcyy
                0x0000000068f70538       0x14 C:/mingw64/bin/../lib/gcc/x86_64-w64-mingw32/8.1.0\libstdc++.a(string-inst.o)
 .xdata$_ZNKSt7__cxx1112basic_stringIcSt11char_traitsIcESaIcEE4findERKS4_y
                0x0000000068f7054c        0x4 C:/mingw64/bin/../lib/gcc/x86_64-w64-mingw32/8.1.0\libstdc++.a(string-inst.o)
 .xdata$_ZNKSt7__cxx1112basic_stringIcSt11char_traitsIcESaIcEE4findEPKcy
                0x0000000068f70550        0xc C:/mingw64/bin/../lib/gcc/x86_64-w64-mingw32/8.1.0\libstdc++.a(string-inst.o)
 .xdata$_ZNKSt7__cxx1112basic_stringIcSt11char_traitsIcESaIcEE4findEcy
                0x0000000068f7055c        0xc C:/mingw64/bin/../lib/gcc/x86_64-w64-mingw32/8.1.0\libstdc++.a(string-inst.o)
 .xdata$_ZNKSt7__cxx1112basic_stringIcSt11char_traitsIcESaIcEE5rfindEPKcyy
                0x0000000068f70568       0x10 C:/mingw64/bin/../lib/gcc/x86_64-w64-mingw32/8.1.0\libstdc++.a(string-inst.o)
 .xdata$_ZNKSt7__cxx1112basic_stringIcSt11char_traitsIcESaIcEE5rfindERKS4_y
                0x0000000068f70578        0x4 C:/mingw64/bin/../lib/gcc/x86_64-w64-mingw32/8.1.0\libstdc++.a(string-inst.o)
 .xdata$_ZNKSt7__cxx1112basic_stringIcSt11char_traitsIcESaIcEE5rfindEPKcy
                0x0000000068f7057c        0xc C:/mingw64/bin/../lib/gcc/x86_64-w64-mingw32/8.1.0\libstdc++.a(string-inst.o)
 .xdata$_ZNKSt7__cxx1112basic_stringIcSt11char_traitsIcESaIcEE5rfindEcy
                0x0000000068f70588        0x4 C:/mingw64/bin/../lib/gcc/x86_64-w64-mingw32/8.1.0\libstdc++.a(string-inst.o)
 .xdata$_ZNKSt7__cxx1112basic_stringIcSt11char_traitsIcESaIcEE13find_first_ofEPKcyy
                0x0000000068f7058c       0x10 C:/mingw64/bin/../lib/gcc/x86_64-w64-mingw32/8.1.0\libstdc++.a(string-inst.o)
 .xdata$_ZNKSt7__cxx1112basic_stringIcSt11char_traitsIcESaIcEE13find_first_ofERKS4_y
                0x0000000068f7059c        0x4 C:/mingw64/bin/../lib/gcc/x86_64-w64-mingw32/8.1.0\libstdc++.a(string-inst.o)
 .xdata$_ZNKSt7__cxx1112basic_stringIcSt11char_traitsIcESaIcEE13find_first_ofEPKcy
                0x0000000068f705a0        0xc C:/mingw64/bin/../lib/gcc/x86_64-w64-mingw32/8.1.0\libstdc++.a(string-inst.o)
 .xdata$_ZNKSt7__cxx1112basic_stringIcSt11char_traitsIcESaIcEE13find_first_ofEcy
                0x0000000068f705ac        0x4 C:/mingw64/bin/../lib/gcc/x86_64-w64-mingw32/8.1.0\libstdc++.a(string-inst.o)
 .xdata$_ZNKSt7__cxx1112basic_stringIcSt11char_traitsIcESaIcEE12find_last_ofEPKcyy
                0x0000000068f705b0       0x10 C:/mingw64/bin/../lib/gcc/x86_64-w64-mingw32/8.1.0\libstdc++.a(string-inst.o)
 .xdata$_ZNKSt7__cxx1112basic_stringIcSt11char_traitsIcESaIcEE12find_last_ofERKS4_y
                0x0000000068f705c0        0x4 C:/mingw64/bin/../lib/gcc/x86_64-w64-mingw32/8.1.0\libstdc++.a(string-inst.o)
 .xdata$_ZNKSt7__cxx1112basic_stringIcSt11char_traitsIcESaIcEE12find_last_ofEPKcy
                0x0000000068f705c4        0xc C:/mingw64/bin/../lib/gcc/x86_64-w64-mingw32/8.1.0\libstdc++.a(string-inst.o)
 .xdata$_ZNKSt7__cxx1112basic_stringIcSt11char_traitsIcESaIcEE12find_last_ofEcy
                0x0000000068f705d0        0x4 C:/mingw64/bin/../lib/gcc/x86_64-w64-mingw32/8.1.0\libstdc++.a(string-inst.o)
 .xdata$_ZNKSt7__cxx1112basic_stringIcSt11char_traitsIcESaIcEE17find_first_not_ofEPKcyy
                0x0000000068f705d4       0x10 C:/mingw64/bin/../lib/gcc/x86_64-w64-mingw32/8.1.0\libstdc++.a(string-inst.o)
 .xdata$_ZNKSt7__cxx1112basic_stringIcSt11char_traitsIcESaIcEE17find_first_not_ofERKS4_y
                0x0000000068f705e4        0x4 C:/mingw64/bin/../lib/gcc/x86_64-w64-mingw32/8.1.0\libstdc++.a(string-inst.o)
 .xdata$_ZNKSt7__cxx1112basic_stringIcSt11char_traitsIcESaIcEE17find_first_not_ofEPKcy
                0x0000000068f705e8        0xc C:/mingw64/bin/../lib/gcc/x86_64-w64-mingw32/8.1.0\libstdc++.a(string-inst.o)
 .xdata$_ZNKSt7__cxx1112basic_stringIcSt11char_traitsIcESaIcEE17find_first_not_ofEcy
                0x0000000068f705f4        0x4 C:/mingw64/bin/../lib/gcc/x86_64-w64-mingw32/8.1.0\libstdc++.a(string-inst.o)
 .xdata$_ZNKSt7__cxx1112basic_stringIcSt11char_traitsIcESaIcEE16find_last_not_ofEPKcyy
                0x0000000068f705f8       0x10 C:/mingw64/bin/../lib/gcc/x86_64-w64-mingw32/8.1.0\libstdc++.a(string-inst.o)
 .xdata$_ZNKSt7__cxx1112basic_stringIcSt11char_traitsIcESaIcEE16find_last_not_ofERKS4_y
                0x0000000068f70608        0x4 C:/mingw64/bin/../lib/gcc/x86_64-w64-mingw32/8.1.0\libstdc++.a(string-inst.o)
 .xdata$_ZNKSt7__cxx1112basic_stringIcSt11char_traitsIcESaIcEE16find_last_not_ofEPKcy
                0x0000000068f7060c        0xc C:/mingw64/bin/../lib/gcc/x86_64-w64-mingw32/8.1.0\libstdc++.a(string-inst.o)
 .xdata$_ZNKSt7__cxx1112basic_stringIcSt11char_traitsIcESaIcEE16find_last_not_ofEcy
                0x0000000068f70618        0x4 C:/mingw64/bin/../lib/gcc/x86_64-w64-mingw32/8.1.0\libstdc++.a(string-inst.o)
 .xdata$_ZNKSt7__cxx1112basic_stringIcSt11char_traitsIcESaIcEE7compareERKS4_
                0x0000000068f7061c        0xc C:/mingw64/bin/../lib/gcc/x86_64-w64-mingw32/8.1.0\libstdc++.a(string-inst.o)
 .xdata$_ZNKSt7__cxx1112basic_stringIcSt11char_traitsIcESaIcEE7compareEyyRKS4_
                0x0000000068f70628        0xc C:/mingw64/bin/../lib/gcc/x86_64-w64-mingw32/8.1.0\libstdc++.a(string-inst.o)
 .xdata$_ZNKSt7__cxx1112basic_stringIcSt11char_traitsIcESaIcEE7compareEyyRKS4_yy
                0x0000000068f70634        0xc C:/mingw64/bin/../lib/gcc/x86_64-w64-mingw32/8.1.0\libstdc++.a(string-inst.o)
 .xdata$_ZNKSt7__cxx1112basic_stringIcSt11char_traitsIcESaIcEE7compareEPKc
                0x0000000068f70640       0x10 C:/mingw64/bin/../lib/gcc/x86_64-w64-mingw32/8.1.0\libstdc++.a(string-inst.o)
 .xdata$_ZNKSt7__cxx1112basic_stringIcSt11char_traitsIcESaIcEE7compareEyyPKc
                0x0000000068f70650       0x10 C:/mingw64/bin/../lib/gcc/x86_64-w64-mingw32/8.1.0\libstdc++.a(string-inst.o)
 .xdata$_ZNKSt7__cxx1112basic_stringIcSt11char_traitsIcESaIcEE7compareEyyPKcy
                0x0000000068f70660        0xc C:/mingw64/bin/../lib/gcc/x86_64-w64-mingw32/8.1.0\libstdc++.a(string-inst.o)
 .xdata$_ZNSt7__cxx1112basic_stringIcSt11char_traitsIcESaIcEE12_Alloc_hiderC2EPcRKS3_
                0x0000000068f7066c        0x4 C:/mingw64/bin/../lib/gcc/x86_64-w64-mingw32/8.1.0\libstdc++.a(string-inst.o)
 .xdata$_ZNSt7__cxx1112basic_stringIcSt11char_traitsIcESaIcEE12_Alloc_hiderC1EPcRKS3_
                0x0000000068f70670        0x4 C:/mingw64/bin/../lib/gcc/x86_64-w64-mingw32/8.1.0\libstdc++.a(string-inst.o)
 .xdata$_ZNSt7__cxx1112basic_stringIcSt11char_traitsIcESaIcEE12_Alloc_hiderC2EPcOS3_
                0x0000000068f70674        0x4 C:/mingw64/bin/../lib/gcc/x86_64-w64-mingw32/8.1.0\libstdc++.a(string-inst.o)
 .xdata$_ZNSt7__cxx1112basic_stringIcSt11char_traitsIcESaIcEE12_Alloc_hiderC1EPcOS3_
                0x0000000068f70678        0x4 C:/mingw64/bin/../lib/gcc/x86_64-w64-mingw32/8.1.0\libstdc++.a(string-inst.o)
 .xdata$_ZStplIcSt11char_traitsIcESaIcEENSt7__cxx1112basic_stringIT_T0_T1_EEPKS5_RKS8_
                0x0000000068f7067c       0x24 C:/mingw64/bin/../lib/gcc/x86_64-w64-mingw32/8.1.0\libstdc++.a(string-inst.o)
 .xdata$_ZStplIcSt11char_traitsIcESaIcEENSt7__cxx1112basic_stringIT_T0_T1_EES5_RKS8_
                0x0000000068f706a0       0x20 C:/mingw64/bin/../lib/gcc/x86_64-w64-mingw32/8.1.0\libstdc++.a(string-inst.o)
 .xdata$_ZNSt7__cxx1112basic_stringIcSt11char_traitsIcESaIcEE12_M_constructIN9__gnu_cxx17__normal_iteratorIPcS4_EEEEvT_SA_St20forward_iterator_tag
                0x0000000068f706c0        0xc C:/mingw64/bin/../lib/gcc/x86_64-w64-mingw32/8.1.0\libstdc++.a(string-inst.o)
 .xdata$_ZNSt7__cxx1112basic_stringIcSt11char_traitsIcESaIcEEC2IN9__gnu_cxx17__normal_iteratorIPcS4_EEvEET_SA_RKS3_
                0x0000000068f706cc        0x4 C:/mingw64/bin/../lib/gcc/x86_64-w64-mingw32/8.1.0\libstdc++.a(string-inst.o)
 .xdata$_ZNSt7__cxx1112basic_stringIcSt11char_traitsIcESaIcEEC1IN9__gnu_cxx17__normal_iteratorIPcS4_EEvEET_SA_RKS3_
                0x0000000068f706d0        0x4 C:/mingw64/bin/../lib/gcc/x86_64-w64-mingw32/8.1.0\libstdc++.a(string-inst.o)
 .xdata$_ZNSt7__cxx1112basic_stringIcSt11char_traitsIcESaIcEE12_M_constructIN9__gnu_cxx17__normal_iteratorIPKcS4_EEEEvT_SB_St20forward_iterator_tag
                0x0000000068f706d4        0xc C:/mingw64/bin/../lib/gcc/x86_64-w64-mingw32/8.1.0\libstdc++.a(string-inst.o)
 .xdata$_ZNSt7__cxx1112basic_stringIcSt11char_traitsIcESaIcEEC2ERKS4_RKS3_
                0x0000000068f706e0        0x4 C:/mingw64/bin/../lib/gcc/x86_64-w64-mingw32/8.1.0\libstdc++.a(string-inst.o)
 .xdata$_ZNSt7__cxx1112basic_stringIcSt11char_traitsIcESaIcEEC1ERKS4_RKS3_
                0x0000000068f706e4        0x4 C:/mingw64/bin/../lib/gcc/x86_64-w64-mingw32/8.1.0\libstdc++.a(string-inst.o)
 .xdata$_ZNSt7__cxx1112basic_stringIcSt11char_traitsIcESaIcEE12_M_constructIPcEEvT_S7_St20forward_iterator_tag
                0x0000000068f706e8        0xc C:/mingw64/bin/../lib/gcc/x86_64-w64-mingw32/8.1.0\libstdc++.a(string-inst.o)
 .xdata$_ZNSt7__cxx1112basic_stringIcSt11char_traitsIcESaIcEEC2ERKS4_
                0x0000000068f706f4        0x4 C:/mingw64/bin/../lib/gcc/x86_64-w64-mingw32/8.1.0\libstdc++.a(string-inst.o)
 .xdata$_ZNSt7__cxx1112basic_stringIcSt11char_traitsIcESaIcEEC1ERKS4_
                0x0000000068f706f8        0x4 C:/mingw64/bin/../lib/gcc/x86_64-w64-mingw32/8.1.0\libstdc++.a(string-inst.o)
 .xdata$_ZStplIcSt11char_traitsIcESaIcEENSt7__cxx1112basic_stringIT_T0_T1_EERKS8_SA_
                0x0000000068f706fc       0x20 C:/mingw64/bin/../lib/gcc/x86_64-w64-mingw32/8.1.0\libstdc++.a(string-inst.o)
 .xdata$_ZNSt7__cxx1112basic_stringIcSt11char_traitsIcESaIcEEC2IPcvEET_S7_RKS3_
                0x0000000068f7071c        0x4 C:/mingw64/bin/../lib/gcc/x86_64-w64-mingw32/8.1.0\libstdc++.a(string-inst.o)
 .xdata$_ZNSt7__cxx1112basic_stringIcSt11char_traitsIcESaIcEEC1IPcvEET_S7_RKS3_
                0x0000000068f70720        0x4 C:/mingw64/bin/../lib/gcc/x86_64-w64-mingw32/8.1.0\libstdc++.a(string-inst.o)
 .xdata$_ZNSt7__cxx1112basic_stringIcSt11char_traitsIcESaIcEE12_M_constructIPKcEEvT_S8_St20forward_iterator_tag
                0x0000000068f70724        0xc C:/mingw64/bin/../lib/gcc/x86_64-w64-mingw32/8.1.0\libstdc++.a(string-inst.o)
 .xdata$_ZNSt7__cxx1112basic_stringIcSt11char_traitsIcESaIcEEC2ERKS4_yRKS3_
                0x0000000068f70730        0x8 C:/mingw64/bin/../lib/gcc/x86_64-w64-mingw32/8.1.0\libstdc++.a(string-inst.o)
 .xdata$_ZNSt7__cxx1112basic_stringIcSt11char_traitsIcESaIcEEC1ERKS4_yRKS3_
                0x0000000068f70738        0x8 C:/mingw64/bin/../lib/gcc/x86_64-w64-mingw32/8.1.0\libstdc++.a(string-inst.o)
 .xdata$_ZNSt7__cxx1112basic_stringIcSt11char_traitsIcESaIcEEC2ERKS4_yy
                0x0000000068f70740        0x8 C:/mingw64/bin/../lib/gcc/x86_64-w64-mingw32/8.1.0\libstdc++.a(string-inst.o)
 .xdata$_ZNSt7__cxx1112basic_stringIcSt11char_traitsIcESaIcEEC1ERKS4_yy
                0x0000000068f70748        0x8 C:/mingw64/bin/../lib/gcc/x86_64-w64-mingw32/8.1.0\libstdc++.a(string-inst.o)
 .xdata$_ZNSt7__cxx1112basic_stringIcSt11char_traitsIcESaIcEEC2ERKS4_yyRKS3_
                0x0000000068f70750        0x8 C:/mingw64/bin/../lib/gcc/x86_64-w64-mingw32/8.1.0\libstdc++.a(string-inst.o)
 .xdata$_ZNSt7__cxx1112basic_stringIcSt11char_traitsIcESaIcEEC1ERKS4_yyRKS3_
                0x0000000068f70758        0x8 C:/mingw64/bin/../lib/gcc/x86_64-w64-mingw32/8.1.0\libstdc++.a(string-inst.o)
 .xdata$_ZNSt7__cxx1112basic_stringIcSt11char_traitsIcESaIcEEC2EPKcyRKS3_
                0x0000000068f70760        0x4 C:/mingw64/bin/../lib/gcc/x86_64-w64-mingw32/8.1.0\libstdc++.a(string-inst.o)
 .xdata$_ZNSt7__cxx1112basic_stringIcSt11char_traitsIcESaIcEEC1EPKcyRKS3_
                0x0000000068f70764        0x4 C:/mingw64/bin/../lib/gcc/x86_64-w64-mingw32/8.1.0\libstdc++.a(string-inst.o)
 .xdata$_ZNSt7__cxx1112basic_stringIcSt11char_traitsIcESaIcEEC2EPKcRKS3_
                0x0000000068f70768        0xc C:/mingw64/bin/../lib/gcc/x86_64-w64-mingw32/8.1.0\libstdc++.a(string-inst.o)
 .xdata$_ZNSt7__cxx1112basic_stringIcSt11char_traitsIcESaIcEEC1EPKcRKS3_
                0x0000000068f70774        0xc C:/mingw64/bin/../lib/gcc/x86_64-w64-mingw32/8.1.0\libstdc++.a(string-inst.o)
 .xdata$_ZNSt7__cxx1112basic_stringIcSt11char_traitsIcESaIcEEC2ESt16initializer_listIcERKS3_
                0x0000000068f70780        0x4 C:/mingw64/bin/../lib/gcc/x86_64-w64-mingw32/8.1.0\libstdc++.a(string-inst.o)
 .xdata$_ZNSt7__cxx1112basic_stringIcSt11char_traitsIcESaIcEEC1ESt16initializer_listIcERKS3_
                0x0000000068f70784        0x4 C:/mingw64/bin/../lib/gcc/x86_64-w64-mingw32/8.1.0\libstdc++.a(string-inst.o)
 .xdata$_ZNSt7__cxx1112basic_stringIcSt11char_traitsIcESaIcEEC2IPKcvEET_S8_RKS3_
                0x0000000068f70788        0x4 C:/mingw64/bin/../lib/gcc/x86_64-w64-mingw32/8.1.0\libstdc++.a(string-inst.o)
 .xdata$_ZNSt7__cxx1112basic_stringIcSt11char_traitsIcESaIcEEC1IPKcvEET_S8_RKS3_
                0x0000000068f7078c        0x4 C:/mingw64/bin/../lib/gcc/x86_64-w64-mingw32/8.1.0\libstdc++.a(string-inst.o)
 .xdata$_ZNKSt7__cxx1112basic_stringIcSt11char_traitsIcESaIcEE6substrEyy
                0x0000000068f70790        0x8 C:/mingw64/bin/../lib/gcc/x86_64-w64-mingw32/8.1.0\libstdc++.a(string-inst.o)
 .xdata$_ZN9__gnu_cxxeqIPcNSt7__cxx1112basic_stringIcSt11char_traitsIcESaIcEEEEEbRKNS_17__normal_iteratorIT_T0_EESD_
                0x0000000068f70798        0x4 C:/mingw64/bin/../lib/gcc/x86_64-w64-mingw32/8.1.0\libstdc++.a(string-inst.o)
 .xdata$_ZN9__gnu_cxxeqIPKcNSt7__cxx1112basic_stringIcSt11char_traitsIcESaIcEEEEEbRKNS_17__normal_iteratorIT_T0_EESE_
                0x0000000068f7079c        0x4 C:/mingw64/bin/../lib/gcc/x86_64-w64-mingw32/8.1.0\libstdc++.a(string-inst.o)
 .xdata$_ZNKSt9bad_alloc4whatEv
                0x0000000068f707a0        0x4 C:/mingw64/bin/../lib/gcc/x86_64-w64-mingw32/8.1.0\libstdc++.a(bad_alloc.o)
 .xdata$_ZNSt9bad_allocD2Ev
                0x0000000068f707a4        0x4 C:/mingw64/bin/../lib/gcc/x86_64-w64-mingw32/8.1.0\libstdc++.a(bad_alloc.o)
 .xdata$_ZNSt9bad_allocD0Ev
                0x0000000068f707a8        0x8 C:/mingw64/bin/../lib/gcc/x86_64-w64-mingw32/8.1.0\libstdc++.a(bad_alloc.o)
 .xdata$_ZNKSt8bad_cast4whatEv
                0x0000000068f707b0        0x4 C:/mingw64/bin/../lib/gcc/x86_64-w64-mingw32/8.1.0\libstdc++.a(bad_cast.o)
 .xdata$_ZNSt8bad_castD2Ev
                0x0000000068f707b4        0x4 C:/mingw64/bin/../lib/gcc/x86_64-w64-mingw32/8.1.0\libstdc++.a(bad_cast.o)
 .xdata$_ZNSt8bad_castD0Ev
                0x0000000068f707b8        0x8 C:/mingw64/bin/../lib/gcc/x86_64-w64-mingw32/8.1.0\libstdc++.a(bad_cast.o)
 .xdata$_ZNKSt10bad_typeid4whatEv
                0x0000000068f707c0        0x4 C:/mingw64/bin/../lib/gcc/x86_64-w64-mingw32/8.1.0\libstdc++.a(bad_typeid.o)
 .xdata$_ZNSt10bad_typeidD2Ev
                0x0000000068f707c4        0x4 C:/mingw64/bin/../lib/gcc/x86_64-w64-mingw32/8.1.0\libstdc++.a(bad_typeid.o)
 .xdata$_ZNSt10bad_typeidD0Ev
                0x0000000068f707c8        0x8 C:/mingw64/bin/../lib/gcc/x86_64-w64-mingw32/8.1.0\libstdc++.a(bad_typeid.o)
 .xdata         0x0000000068f707d0      0x240 C:/mingw64/bin/../lib/gcc/x86_64-w64-mingw32/8.1.0\libstdc++.a(cp-demangle.o)
 .xdata.unlikely
                0x0000000068f70a10       0x1c C:/mingw64/bin/../lib/gcc/x86_64-w64-mingw32/8.1.0\libstdc++.a(cp-demangle.o)
 .xdata$__cxa_call_terminate
                0x0000000068f70a2c        0x8 C:/mingw64/bin/../lib/gcc/x86_64-w64-mingw32/8.1.0\libstdc++.a(eh_call.o)
 .xdata$__cxa_current_exception_type
                0x0000000068f70a34        0x8 C:/mingw64/bin/../lib/gcc/x86_64-w64-mingw32/8.1.0\libstdc++.a(eh_type.o)
 .xdata$_ZSt15set_new_handlerPFvvE
                0x0000000068f70a3c        0x4 C:/mingw64/bin/../lib/gcc/x86_64-w64-mingw32/8.1.0\libstdc++.a(new_handler.o)
 .xdata$_ZSt15get_new_handlerv
                0x0000000068f70a40        0x4 C:/mingw64/bin/../lib/gcc/x86_64-w64-mingw32/8.1.0\libstdc++.a(new_handler.o)
 .xdata         0x0000000068f70a44       0x18 C:/mingw64/bin/../lib/gcc/x86_64-w64-mingw32/8.1.0/../../../../x86_64-w64-mingw32/lib/../lib/libmingw32.a(lib64_libmingw32_a-gccmain.o)
 .xdata         0x0000000068f70a5c       0x20 C:/mingw64/bin/../lib/gcc/x86_64-w64-mingw32/8.1.0/../../../../x86_64-w64-mingw32/lib/../lib/libmingw32.a(lib64_libmingw32_a-gs_support.o)
 .xdata         0x0000000068f70a7c       0x18 C:/mingw64/bin/../lib/gcc/x86_64-w64-mingw32/8.1.0/../../../../x86_64-w64-mingw32/lib/../lib/libmingw32.a(lib64_libmingw32_a-tlssup.o)
 .xdata         0x0000000068f70a94        0x8 C:/mingw64/bin/../lib/gcc/x86_64-w64-mingw32/8.1.0/../../../../x86_64-w64-mingw32/lib/../lib/libmingw32.a(lib64_libmingw32_a-mingw_helpers.o)
 .xdata.unlikely
                0x0000000068f70a9c        0xc C:/mingw64/bin/../lib/gcc/x86_64-w64-mingw32/8.1.0/../../../../x86_64-w64-mingw32/lib/../lib/libmingw32.a(lib64_libmingw32_a-pseudo-reloc.o)
 .xdata         0x0000000068f70aa8       0x28 C:/mingw64/bin/../lib/gcc/x86_64-w64-mingw32/8.1.0/../../../../x86_64-w64-mingw32/lib/../lib/libmingw32.a(lib64_libmingw32_a-pseudo-reloc.o)
 .xdata         0x0000000068f70ad0       0x20 C:/mingw64/bin/../lib/gcc/x86_64-w64-mingw32/8.1.0/../../../../x86_64-w64-mingw32/lib/../lib/libmingw32.a(lib64_libmingw32_a-crt_handler.o)
 .xdata         0x0000000068f70af0       0x30 C:/mingw64/bin/../lib/gcc/x86_64-w64-mingw32/8.1.0/../../../../x86_64-w64-mingw32/lib/../lib/libmingw32.a(lib64_libmingw32_a-tlsthrd.o)
 .xdata         0x0000000068f70b20       0x48 C:/mingw64/bin/../lib/gcc/x86_64-w64-mingw32/8.1.0/../../../../x86_64-w64-mingw32/lib/../lib/libmingw32.a(lib64_libmingw32_a-pesect.o)
 .xdata         0x0000000068f70b68        0x4 C:/mingw64/bin/../lib/gcc/x86_64-w64-mingw32/8.1.0/../../../../x86_64-w64-mingw32/lib/../lib/libmingw32.a(lib64_libmingw32_a-CRT_fp10.o)
 .xdata         0x0000000068f70b6c       0x80 C:/mingw64/bin/../lib/gcc/x86_64-w64-mingw32/8.1.0/libgcc.a(gthr-win32.o)
 .xdata         0x0000000068f70bec       0x94 C:/mingw64/bin/../lib/gcc/x86_64-w64-mingw32/8.1.0/libgcc_eh.a(unwind-seh.o)
 .xdata         0x0000000068f70c80       0x38 C:/mingw64/bin/../lib/gcc/x86_64-w64-mingw32/8.1.0/libgcc_eh.a(emutls.o)
 .xdata         0x0000000068f70cb8        0x4 C:/mingw64/bin/../lib/gcc/x86_64-w64-mingw32/8.1.0/../../../../x86_64-w64-mingw32/lib/../lib/libmingwex.a(lib64_libmingwex_a-dllentry.o)
 .xdata         0x0000000068f70cbc       0x20 C:/mingw64/bin/../lib/gcc/x86_64-w64-mingw32/8.1.0/../../../../x86_64-w64-mingw32/lib/../lib/libmsvcrt.a(lib64_libmsvcrt_os_a-onexit_table.o)
 .xdata         0x0000000068f70cdc        0x8 C:/mingw64/bin/../lib/gcc/x86_64-w64-mingw32/8.1.0/../../../../x86_64-w64-mingw32/lib/../lib/libmsvcrt.a(lib64_libmsvcrt_os_a-acrt_iob_func.o)
 .xdata         0x0000000068f70ce4       0x14 C:/mingw64/bin/../lib/gcc/x86_64-w64-mingw32/8.1.0/../../../../x86_64-w64-mingw32/lib/../lib/libmsvcrt.a(lib64_libmsvcrt_os_a-vsprintf_s.o)
 .xdata         0x0000000068f70cf8        0x8 C:/mingw64/bin/../lib/gcc/x86_64-w64-mingw32/8.1.0/../../../../x86_64-w64-mingw32/lib/../lib/libmingw32.a(lib64_libmingw32_a-tlsmthread.o)
 .xdata         0x0000000068f70d00        0x4 C:/mingw64/bin/../lib/gcc/x86_64-w64-mingw32/8.1.0/../../../../x86_64-w64-mingw32/lib/../lib/libmingwex.a(lib64_libmingwex_a-vsnprintf.o)
 .xdata.startup
                0x0000000068f70d04        0x4 C:/mingw64/bin/../lib/gcc/x86_64-w64-mingw32/8.1.0/crtend.o

.bss            0x0000000068f71000      0x940
                0x0000000068f71000                __bss_start__ = .
 *(.bss)
 .bss           0x0000000068f71000       0x20 C:/mingw64/bin/../lib/gcc/x86_64-w64-mingw32/8.1.0/../../../../x86_64-w64-mingw32/lib/../lib/dllcrt2.o
 .bss           0x0000000068f71020        0x0 C:/mingw64/bin/../lib/gcc/x86_64-w64-mingw32/8.1.0/crtbegin.o
 .bss           0x0000000068f71020        0x0 Common__CtrlCmdUtil.cpp.obj
 .bss           0x0000000068f71020        0x0 Common__PathUtil.cpp.obj
 .bss           0x0000000068f71020        0x0 Common__PipeServer.cpp.obj
 .bss           0x0000000068f71020        0x0 Common__SendCtrlCmd.cpp.obj
 .bss           0x0000000068f71020        0x0 Common__StringUtil.cpp.obj
 .bss           0x0000000068f71020       0x10 EpgTimerPlugIn.cpp.obj
                0x0000000068f71020                g_pPlugin
                0x0000000068f71028                g_hinstDLL
 .bss           0x0000000068f71030        0x0 stdafx.cpp.obj
 .bss           0x0000000068f71030        0x0 StreamCtrlDlg.cpp.obj
 .bss           0x0000000068f71030        0x0 C:/mingw64/bin/../lib/gcc/x86_64-w64-mingw32/8.1.0/../../../../x86_64-w64-mingw32/lib/../lib/libws2_32.a(dozfs00195.o)
 .bss           0x0000000068f71030        0x0 C:/mingw64/bin/../lib/gcc/x86_64-w64-mingw32/8.1.0/../../../../x86_64-w64-mingw32/lib/../lib/libws2_32.a(dozfs00193.o)
 .bss           0x0000000068f71030        0x0 C:/mingw64/bin/../lib/gcc/x86_64-w64-mingw32/8.1.0/../../../../x86_64-w64-mingw32/lib/../lib/libws2_32.a(dozfs00191.o)
 .bss           0x0000000068f71030        0x0 C:/mingw64/bin/../lib/gcc/x86_64-w64-mingw32/8.1.0/../../../../x86_64-w64-mingw32/lib/../lib/libws2_32.a(dozfs00190.o)
 .bss           0x0000000068f71030        0x0 C:/mingw64/bin/../lib/gcc/x86_64-w64-mingw32/8.1.0/../../../../x86_64-w64-mingw32/lib/../lib/libws2_32.a(dozfs00188.o)
 .bss           0x0000000068f71030        0x0 C:/mingw64/bin/../lib/gcc/x86_64-w64-mingw32/8.1.0/../../../../x86_64-w64-mingw32/lib/../lib/libws2_32.a(dozfs00184.o)
 .bss           0x0000000068f71030        0x0 C:/mingw64/bin/../lib/gcc/x86_64-w64-mingw32/8.1.0/../../../../x86_64-w64-mingw32/lib/../lib/libws2_32.a(dozfs00166.o)
 .bss           0x0000000068f71030        0x0 C:/mingw64/bin/../lib/gcc/x86_64-w64-mingw32/8.1.0/../../../../x86_64-w64-mingw32/lib/../lib/libws2_32.a(dozfs00165.o)
 .bss           0x0000000068f71030        0x0 C:/mingw64/bin/../lib/gcc/x86_64-w64-mingw32/8.1.0/../../../../x86_64-w64-mingw32/lib/../lib/libws2_32.a(dozfs00164.o)
 .bss           0x0000000068f71030        0x0 C:/mingw64/bin/../lib/gcc/x86_64-w64-mingw32/8.1.0/../../../../x86_64-w64-mingw32/lib/../lib/libws2_32.a(dozfs00163.o)
 .bss           0x0000000068f71030        0x0 C:/mingw64/bin/../lib/gcc/x86_64-w64-mingw32/8.1.0/../../../../x86_64-w64-mingw32/lib/../lib/libws2_32.a(dozfs00088.o)
 .bss           0x0000000068f71030        0x0 C:/mingw64/bin/../lib/gcc/x86_64-w64-mingw32/8.1.0/../../../../x86_64-w64-mingw32/lib/../lib/libws2_32.a(dozfs00047.o)
 .bss           0x0000000068f71030        0x0 C:/mingw64/bin/../lib/gcc/x86_64-w64-mingw32/8.1.0/../../../../x86_64-w64-mingw32/lib/../lib/libws2_32.a(dozfs00030.o)
 .bss           0x0000000068f71030        0x0 C:/mingw64/bin/../lib/gcc/x86_64-w64-mingw32/8.1.0/../../../../x86_64-w64-mingw32/lib/../lib/libws2_32.a(dozfh.o)
 .bss           0x0000000068f71030        0x0 C:/mingw64/bin/../lib/gcc/x86_64-w64-mingw32/8.1.0/../../../../x86_64-w64-mingw32/lib/../lib/libws2_32.a(dozft.o)
 .bss           0x0000000068f71030        0x0 C:/mingw64/bin/../lib/gcc/x86_64-w64-mingw32/8.1.0\libstdc++.a(class_type_info.o)
 .bss           0x0000000068f71030        0x0 C:/mingw64/bin/../lib/gcc/x86_64-w64-mingw32/8.1.0\libstdc++.a(del_op.o)
 .bss           0x0000000068f71030        0x0 C:/mingw64/bin/../lib/gcc/x86_64-w64-mingw32/8.1.0\libstdc++.a(del_ops.o)
 .bss           0x0000000068f71030        0x0 C:/mingw64/bin/../lib/gcc/x86_64-w64-mingw32/8.1.0\libstdc++.a(eh_alloc.o)
 .bss           0x0000000068f71030        0x0 C:/mingw64/bin/../lib/gcc/x86_64-w64-mingw32/8.1.0\libstdc++.a(eh_catch.o)
 .bss           0x0000000068f71030        0x0 C:/mingw64/bin/../lib/gcc/x86_64-w64-mingw32/8.1.0\libstdc++.a(eh_exception.o)
 .bss           0x0000000068f71030        0x0 C:/mingw64/bin/../lib/gcc/x86_64-w64-mingw32/8.1.0\libstdc++.a(eh_globals.o)
 .bss           0x0000000068f71030        0x0 C:/mingw64/bin/../lib/gcc/x86_64-w64-mingw32/8.1.0\libstdc++.a(eh_personality.o)
 .bss           0x0000000068f71030        0x0 C:/mingw64/bin/../lib/gcc/x86_64-w64-mingw32/8.1.0\libstdc++.a(eh_terminate.o)
 .bss           0x0000000068f71030        0x0 C:/mingw64/bin/../lib/gcc/x86_64-w64-mingw32/8.1.0\libstdc++.a(eh_term_handler.o)
 .bss           0x0000000068f71030        0x0 C:/mingw64/bin/../lib/gcc/x86_64-w64-mingw32/8.1.0\libstdc++.a(eh_throw.o)
 .bss           0x0000000068f71030        0x0 C:/mingw64/bin/../lib/gcc/x86_64-w64-mingw32/8.1.0\libstdc++.a(eh_unex_handler.o)
 .bss           0x0000000068f71030        0x0 C:/mingw64/bin/../lib/gcc/x86_64-w64-mingw32/8.1.0\libstdc++.a(new_op.o)
 .bss           0x0000000068f71030        0x0 C:/mingw64/bin/../lib/gcc/x86_64-w64-mingw32/8.1.0\libstdc++.a(pure.o)
 .bss           0x0000000068f71030        0x0 C:/mingw64/bin/../lib/gcc/x86_64-w64-mingw32/8.1.0\libstdc++.a(si_class_type_info.o)
 .bss           0x0000000068f71030        0x0 C:/mingw64/bin/../lib/gcc/x86_64-w64-mingw32/8.1.0\libstdc++.a(tinfo.o)
 .bss           0x0000000068f71030        0x0 C:/mingw64/bin/../lib/gcc/x86_64-w64-mingw32/8.1.0\libstdc++.a(vterminate.o)
 .bss           0x0000000068f71030        0x0 C:/mingw64/bin/../lib/gcc/x86_64-w64-mingw32/8.1.0\libstdc++.a(stdexcept.o)
 .bss           0x0000000068f71030        0x0 C:/mingw64/bin/../lib/gcc/x86_64-w64-mingw32/8.1.0\libstdc++.a(cow-stdexcept.o)
 .bss           0x0000000068f71030        0x0 C:/mingw64/bin/../lib/gcc/x86_64-w64-mingw32/8.1.0\libstdc++.a(cow-string-inst.o)
 .bss           0x0000000068f71030        0x0 C:/mingw64/bin/../lib/gcc/x86_64-w64-mingw32/8.1.0\libstdc++.a(functexcept.o)
 .bss           0x0000000068f71030        0x0 C:/mingw64/bin/../lib/gcc/x86_64-w64-mingw32/8.1.0\libstdc++.a(functional.o)
 .bss           0x0000000068f71030        0x0 C:/mingw64/bin/../lib/gcc/x86_64-w64-mingw32/8.1.0\libstdc++.a(snprintf_lite.o)
 .bss           0x0000000068f71030        0x0 C:/mingw64/bin/../lib/gcc/x86_64-w64-mingw32/8.1.0\libstdc++.a(sso_string.o)
 .bss           0x0000000068f71030        0x0 C:/mingw64/bin/../lib/gcc/x86_64-w64-mingw32/8.1.0\libstdc++.a(string-inst.o)
 .bss           0x0000000068f71030        0x0 C:/mingw64/bin/../lib/gcc/x86_64-w64-mingw32/8.1.0\libstdc++.a(bad_alloc.o)
 .bss           0x0000000068f71030        0x0 C:/mingw64/bin/../lib/gcc/x86_64-w64-mingw32/8.1.0\libstdc++.a(bad_cast.o)
 .bss           0x0000000068f71030        0x0 C:/mingw64/bin/../lib/gcc/x86_64-w64-mingw32/8.1.0\libstdc++.a(bad_typeid.o)
 .bss           0x0000000068f71030        0x0 C:/mingw64/bin/../lib/gcc/x86_64-w64-mingw32/8.1.0\libstdc++.a(cp-demangle.o)
 .bss           0x0000000068f71030        0x0 C:/mingw64/bin/../lib/gcc/x86_64-w64-mingw32/8.1.0\libstdc++.a(eh_call.o)
 .bss           0x0000000068f71030        0x0 C:/mingw64/bin/../lib/gcc/x86_64-w64-mingw32/8.1.0\libstdc++.a(eh_type.o)
 .bss           0x0000000068f71030        0x0 C:/mingw64/bin/../lib/gcc/x86_64-w64-mingw32/8.1.0\libstdc++.a(new_handler.o)
 .bss           0x0000000068f71030       0x10 C:/mingw64/bin/../lib/gcc/x86_64-w64-mingw32/8.1.0/../../../../x86_64-w64-mingw32/lib/../lib/libmingw32.a(lib64_libmingw32_a-gccmain.o)
 .bss           0x0000000068f71040        0x0 C:/mingw64/bin/../lib/gcc/x86_64-w64-mingw32/8.1.0/../../../../x86_64-w64-mingw32/lib/../lib/libmingw32.a(lib64_libmingw32_a-natstart.o)
 .bss           0x0000000068f71040      0x580 C:/mingw64/bin/../lib/gcc/x86_64-w64-mingw32/8.1.0/../../../../x86_64-w64-mingw32/lib/../lib/libmingw32.a(lib64_libmingw32_a-gs_support.o)
 .bss           0x0000000068f715c0       0x10 C:/mingw64/bin/../lib/gcc/x86_64-w64-mingw32/8.1.0/../../../../x86_64-w64-mingw32/lib/../lib/libmingw32.a(lib64_libmingw32_a-tlssup.o)
                0x0000000068f715c0                mingw_initltssuo_force
                0x0000000068f715c4                mingw_initltsdyn_force
                0x0000000068f715c8                mingw_initltsdrot_force
                0x0000000068f715cc                _tls_index
 .bss           0x0000000068f715d0        0x0 C:/mingw64/bin/../lib/gcc/x86_64-w64-mingw32/8.1.0/../../../../x86_64-w64-mingw32/lib/../lib/libmingw32.a(lib64_libmingw32_a-cinitexe.o)
 .bss           0x0000000068f715d0       0x10 C:/mingw64/bin/../lib/gcc/x86_64-w64-mingw32/8.1.0/../../../../x86_64-w64-mingw32/lib/../lib/libmingw32.a(lib64_libmingw32_a-mingw_helpers.o)
                0x0000000068f715d0                mingw_app_type
 .bss           0x0000000068f715e0       0x10 C:/mingw64/bin/../lib/gcc/x86_64-w64-mingw32/8.1.0/../../../../x86_64-w64-mingw32/lib/../lib/libmingw32.a(lib64_libmingw32_a-pseudo-reloc.o)
 *fill*         0x0000000068f715f0       0x10 
 .bss           0x0000000068f71600      0x2a0 C:/mingw64/bin/../lib/gcc/x86_64-w64-mingw32/8.1.0/../../../../x86_64-w64-mingw32/lib/../lib/libmingw32.a(lib64_libmingw32_a-crt_handler.o)
                0x0000000068f71600                __mingw_oldexcpt_handler
 .bss           0x0000000068f718a0       0x60 C:/mingw64/bin/../lib/gcc/x86_64-w64-mingw32/8.1.0/../../../../x86_64-w64-mingw32/lib/../lib/libmingw32.a(lib64_libmingw32_a-tlsthrd.o)
 .bss           0x0000000068f71900        0x0 C:/mingw64/bin/../lib/gcc/x86_64-w64-mingw32/8.1.0/../../../../x86_64-w64-mingw32/lib/../lib/libmingw32.a(lib64_libmingw32_a-tlsmcrt.o)
 .bss           0x0000000068f71900       0x10 C:/mingw64/bin/../lib/gcc/x86_64-w64-mingw32/8.1.0/../../../../x86_64-w64-mingw32/lib/../lib/libmingw32.a(lib64_libmingw32_a-pseudo-reloc-list.o)
 .bss           0x0000000068f71910        0x0 C:/mingw64/bin/../lib/gcc/x86_64-w64-mingw32/8.1.0/../../../../x86_64-w64-mingw32/lib/../lib/libmingw32.a(lib64_libmingw32_a-pesect.o)
 .bss           0x0000000068f71910        0x0 C:/mingw64/bin/../lib/gcc/x86_64-w64-mingw32/8.1.0/../../../../x86_64-w64-mingw32/lib/../lib/libmingw32.a(lib64_libmingw32_a-CRT_fp10.o)
 .bss           0x0000000068f71910        0x0 C:/mingw64/bin/../lib/gcc/x86_64-w64-mingw32/8.1.0/libgcc.a(_chkstk_ms.o)
 .bss           0x0000000068f71910        0x0 C:/mingw64/bin/../lib/gcc/x86_64-w64-mingw32/8.1.0/libgcc.a(_ctors.o)
 .bss           0x0000000068f71910        0x0 C:/mingw64/bin/../lib/gcc/x86_64-w64-mingw32/8.1.0/libgcc.a(gthr-win32.o)
 .bss           0x0000000068f71910        0x0 C:/mingw64/bin/../lib/gcc/x86_64-w64-mingw32/8.1.0/libgcc_eh.a(unwind-seh.o)
 .bss           0x0000000068f71910       0x20 C:/mingw64/bin/../lib/gcc/x86_64-w64-mingw32/8.1.0/libgcc_eh.a(emutls.o)
 .bss           0x0000000068f71930        0x0 C:/mingw64/bin/../lib/gcc/x86_64-w64-mingw32/8.1.0/../../../../x86_64-w64-mingw32/lib/../lib/libmingwex.a(lib64_libmingwex_a-dllentry.o)
 .bss           0x0000000068f71930        0x0 C:/mingw64/bin/../lib/gcc/x86_64-w64-mingw32/8.1.0/../../../../x86_64-w64-mingw32/lib/../lib/libmsvcrt.a(duags01264.o)
 .bss           0x0000000068f71930        0x0 C:/mingw64/bin/../lib/gcc/x86_64-w64-mingw32/8.1.0/../../../../x86_64-w64-mingw32/lib/../lib/libmsvcrt.a(duags01257.o)
 .bss           0x0000000068f71930        0x0 C:/mingw64/bin/../lib/gcc/x86_64-w64-mingw32/8.1.0/../../../../x86_64-w64-mingw32/lib/../lib/libmsvcrt.a(duags01251.o)
 .bss           0x0000000068f71930        0x0 C:/mingw64/bin/../lib/gcc/x86_64-w64-mingw32/8.1.0/../../../../x86_64-w64-mingw32/lib/../lib/libmsvcrt.a(duags01243.o)
 .bss           0x0000000068f71930        0x0 C:/mingw64/bin/../lib/gcc/x86_64-w64-mingw32/8.1.0/../../../../x86_64-w64-mingw32/lib/../lib/libmsvcrt.a(duags01223.o)
 .bss           0x0000000068f71930        0x0 C:/mingw64/bin/../lib/gcc/x86_64-w64-mingw32/8.1.0/../../../../x86_64-w64-mingw32/lib/../lib/libmsvcrt.a(duags01211.o)
 .bss           0x0000000068f71930        0x0 C:/mingw64/bin/../lib/gcc/x86_64-w64-mingw32/8.1.0/../../../../x86_64-w64-mingw32/lib/../lib/libmsvcrt.a(duags01208.o)
 .bss           0x0000000068f71930        0x0 C:/mingw64/bin/../lib/gcc/x86_64-w64-mingw32/8.1.0/../../../../x86_64-w64-mingw32/lib/../lib/libmsvcrt.a(duags01201.o)
 .bss           0x0000000068f71930        0x0 C:/mingw64/bin/../lib/gcc/x86_64-w64-mingw32/8.1.0/../../../../x86_64-w64-mingw32/lib/../lib/libmsvcrt.a(duags01192.o)
 .bss           0x0000000068f71930        0x0 C:/mingw64/bin/../lib/gcc/x86_64-w64-mingw32/8.1.0/../../../../x86_64-w64-mingw32/lib/../lib/libmsvcrt.a(duags01187.o)
 .bss           0x0000000068f71930        0x0 C:/mingw64/bin/../lib/gcc/x86_64-w64-mingw32/8.1.0/../../../../x86_64-w64-mingw32/lib/../lib/libmsvcrt.a(duags01186.o)
 .bss           0x0000000068f71930        0x0 C:/mingw64/bin/../lib/gcc/x86_64-w64-mingw32/8.1.0/../../../../x86_64-w64-mingw32/lib/../lib/libmsvcrt.a(duags01177.o)
 .bss           0x0000000068f71930        0x0 C:/mingw64/bin/../lib/gcc/x86_64-w64-mingw32/8.1.0/../../../../x86_64-w64-mingw32/lib/../lib/libmsvcrt.a(duags01159.o)
 .bss           0x0000000068f71930        0x0 C:/mingw64/bin/../lib/gcc/x86_64-w64-mingw32/8.1.0/../../../../x86_64-w64-mingw32/lib/../lib/libmsvcrt.a(duags01158.o)
 .bss           0x0000000068f71930        0x0 C:/mingw64/bin/../lib/gcc/x86_64-w64-mingw32/8.1.0/../../../../x86_64-w64-mingw32/lib/../lib/libmsvcrt.a(duags01157.o)
 .bss           0x0000000068f71930        0x0 C:/mingw64/bin/../lib/gcc/x86_64-w64-mingw32/8.1.0/../../../../x86_64-w64-mingw32/lib/../lib/libmsvcrt.a(duags01156.o)
 .bss           0x0000000068f71930        0x0 C:/mingw64/bin/../lib/gcc/x86_64-w64-mingw32/8.1.0/../../../../x86_64-w64-mingw32/lib/../lib/libmsvcrt.a(duags01155.o)
 .bss           0x0000000068f71930        0x0 C:/mingw64/bin/../lib/gcc/x86_64-w64-mingw32/8.1.0/../../../../x86_64-w64-mingw32/lib/../lib/libmsvcrt.a(duags01149.o)
 .bss           0x0000000068f71930        0x0 C:/mingw64/bin/../lib/gcc/x86_64-w64-mingw32/8.1.0/../../../../x86_64-w64-mingw32/lib/../lib/libmsvcrt.a(duags01101.o)
 .bss           0x0000000068f71930        0x0 C:/mingw64/bin/../lib/gcc/x86_64-w64-mingw32/8.1.0/../../../../x86_64-w64-mingw32/lib/../lib/libmsvcrt.a(duags01089.o)
 .bss           0x0000000068f71930        0x0 C:/mingw64/bin/../lib/gcc/x86_64-w64-mingw32/8.1.0/../../../../x86_64-w64-mingw32/lib/../lib/libmsvcrt.a(duags01086.o)
 .bss           0x0000000068f71930        0x0 C:/mingw64/bin/../lib/gcc/x86_64-w64-mingw32/8.1.0/../../../../x86_64-w64-mingw32/lib/../lib/libmsvcrt.a(duags01085.o)
 .bss           0x0000000068f71930        0x0 C:/mingw64/bin/../lib/gcc/x86_64-w64-mingw32/8.1.0/../../../../x86_64-w64-mingw32/lib/../lib/libmsvcrt.a(duags01084.o)
 .bss           0x0000000068f71930        0x0 C:/mingw64/bin/../lib/gcc/x86_64-w64-mingw32/8.1.0/../../../../x86_64-w64-mingw32/lib/../lib/libmsvcrt.a(duags01080.o)
 .bss           0x0000000068f71930        0x0 C:/mingw64/bin/../lib/gcc/x86_64-w64-mingw32/8.1.0/../../../../x86_64-w64-mingw32/lib/../lib/libmsvcrt.a(duags01067.o)
 .bss           0x0000000068f71930        0x0 C:/mingw64/bin/../lib/gcc/x86_64-w64-mingw32/8.1.0/../../../../x86_64-w64-mingw32/lib/../lib/libmsvcrt.a(duags01050.o)
 .bss           0x0000000068f71930        0x0 C:/mingw64/bin/../lib/gcc/x86_64-w64-mingw32/8.1.0/../../../../x86_64-w64-mingw32/lib/../lib/libmsvcrt.a(duags01032.o)
 .bss           0x0000000068f71930        0x0 C:/mingw64/bin/../lib/gcc/x86_64-w64-mingw32/8.1.0/../../../../x86_64-w64-mingw32/lib/../lib/libmsvcrt.a(duags00986.o)
 .bss           0x0000000068f71930        0x0 C:/mingw64/bin/../lib/gcc/x86_64-w64-mingw32/8.1.0/../../../../x86_64-w64-mingw32/lib/../lib/libmsvcrt.a(duags00945.o)
 .bss           0x0000000068f71930        0x0 C:/mingw64/bin/../lib/gcc/x86_64-w64-mingw32/8.1.0/../../../../x86_64-w64-mingw32/lib/../lib/libmsvcrt.a(duags00861.o)
 .bss           0x0000000068f71930        0x0 C:/mingw64/bin/../lib/gcc/x86_64-w64-mingw32/8.1.0/../../../../x86_64-w64-mingw32/lib/../lib/libmsvcrt.a(duags00617.o)
 .bss           0x0000000068f71930        0x0 C:/mingw64/bin/../lib/gcc/x86_64-w64-mingw32/8.1.0/../../../../x86_64-w64-mingw32/lib/../lib/libmsvcrt.a(duags00332.o)
 .bss           0x0000000068f71930        0x0 C:/mingw64/bin/../lib/gcc/x86_64-w64-mingw32/8.1.0/../../../../x86_64-w64-mingw32/lib/../lib/libmsvcrt.a(duags00155.o)
 .bss           0x0000000068f71930        0x0 C:/mingw64/bin/../lib/gcc/x86_64-w64-mingw32/8.1.0/../../../../x86_64-w64-mingw32/lib/../lib/libmsvcrt.a(duags00137.o)
 .bss           0x0000000068f71930        0x0 C:/mingw64/bin/../lib/gcc/x86_64-w64-mingw32/8.1.0/../../../../x86_64-w64-mingw32/lib/../lib/libmsvcrt.a(duags00122.o)
 .bss           0x0000000068f71930        0x0 C:/mingw64/bin/../lib/gcc/x86_64-w64-mingw32/8.1.0/../../../../x86_64-w64-mingw32/lib/../lib/libmsvcrt.a(lib64_libmsvcrt_os_a-onexit_table.o)
 .bss           0x0000000068f71930        0x0 C:/mingw64/bin/../lib/gcc/x86_64-w64-mingw32/8.1.0/../../../../x86_64-w64-mingw32/lib/../lib/libmsvcrt.a(lib64_libmsvcrt_os_a-acrt_iob_func.o)
 .bss           0x0000000068f71930        0x0 C:/mingw64/bin/../lib/gcc/x86_64-w64-mingw32/8.1.0/../../../../x86_64-w64-mingw32/lib/../lib/libmsvcrt.a(lib64_libmsvcrt_os_a-vsprintf_s.o)
 .bss           0x0000000068f71930        0x0 C:/mingw64/bin/../lib/gcc/x86_64-w64-mingw32/8.1.0/../../../../x86_64-w64-mingw32/lib/../lib/libmsvcrt.a(duagh.o)
 .bss           0x0000000068f71930        0x0 C:/mingw64/bin/../lib/gcc/x86_64-w64-mingw32/8.1.0/../../../../x86_64-w64-mingw32/lib/../lib/libmsvcrt.a(duags00821.o)
 .bss           0x0000000068f71930        0x0 C:/mingw64/bin/../lib/gcc/x86_64-w64-mingw32/8.1.0/../../../../x86_64-w64-mingw32/lib/../lib/libmsvcrt.a(duags00441.o)
 .bss           0x0000000068f71930        0x0 C:/mingw64/bin/../lib/gcc/x86_64-w64-mingw32/8.1.0/../../../../x86_64-w64-mingw32/lib/../lib/libmsvcrt.a(duags00083.o)
 .bss           0x0000000068f71930        0x0 C:/mingw64/bin/../lib/gcc/x86_64-w64-mingw32/8.1.0/../../../../x86_64-w64-mingw32/lib/../lib/libmsvcrt.a(duagt.o)
 .bss           0x0000000068f71930        0x0 C:/mingw64/bin/../lib/gcc/x86_64-w64-mingw32/8.1.0/../../../../x86_64-w64-mingw32/lib/../lib/libadvapi32.a(diufs00741.o)
 .bss           0x0000000068f71930        0x0 C:/mingw64/bin/../lib/gcc/x86_64-w64-mingw32/8.1.0/../../../../x86_64-w64-mingw32/lib/../lib/libadvapi32.a(diufs00720.o)
 .bss           0x0000000068f71930        0x0 C:/mingw64/bin/../lib/gcc/x86_64-w64-mingw32/8.1.0/../../../../x86_64-w64-mingw32/lib/../lib/libadvapi32.a(diufs00354.o)
 .bss           0x0000000068f71930        0x0 C:/mingw64/bin/../lib/gcc/x86_64-w64-mingw32/8.1.0/../../../../x86_64-w64-mingw32/lib/../lib/libadvapi32.a(diufs00146.o)
 .bss           0x0000000068f71930        0x0 C:/mingw64/bin/../lib/gcc/x86_64-w64-mingw32/8.1.0/../../../../x86_64-w64-mingw32/lib/../lib/libadvapi32.a(diufh.o)
 .bss           0x0000000068f71930        0x0 C:/mingw64/bin/../lib/gcc/x86_64-w64-mingw32/8.1.0/../../../../x86_64-w64-mingw32/lib/../lib/libadvapi32.a(diuft.o)
 .bss           0x0000000068f71930        0x0 C:/mingw64/bin/../lib/gcc/x86_64-w64-mingw32/8.1.0/../../../../x86_64-w64-mingw32/lib/../lib/libuser32.a(dyqes00864.o)
 .bss           0x0000000068f71930        0x0 C:/mingw64/bin/../lib/gcc/x86_64-w64-mingw32/8.1.0/../../../../x86_64-w64-mingw32/lib/../lib/libuser32.a(dyqes00852.o)
 .bss           0x0000000068f71930        0x0 C:/mingw64/bin/../lib/gcc/x86_64-w64-mingw32/8.1.0/../../../../x86_64-w64-mingw32/lib/../lib/libuser32.a(dyqes00847.o)
 .bss           0x0000000068f71930        0x0 C:/mingw64/bin/../lib/gcc/x86_64-w64-mingw32/8.1.0/../../../../x86_64-w64-mingw32/lib/../lib/libuser32.a(dyqes00844.o)
 .bss           0x0000000068f71930        0x0 C:/mingw64/bin/../lib/gcc/x86_64-w64-mingw32/8.1.0/../../../../x86_64-w64-mingw32/lib/../lib/libuser32.a(dyqes00831.o)
 .bss           0x0000000068f71930        0x0 C:/mingw64/bin/../lib/gcc/x86_64-w64-mingw32/8.1.0/../../../../x86_64-w64-mingw32/lib/../lib/libuser32.a(dyqes00778.o)
 .bss           0x0000000068f71930        0x0 C:/mingw64/bin/../lib/gcc/x86_64-w64-mingw32/8.1.0/../../../../x86_64-w64-mingw32/lib/../lib/libuser32.a(dyqes00753.o)
 .bss           0x0000000068f71930        0x0 C:/mingw64/bin/../lib/gcc/x86_64-w64-mingw32/8.1.0/../../../../x86_64-w64-mingw32/lib/../lib/libuser32.a(dyqes00752.o)
 .bss           0x0000000068f71930        0x0 C:/mingw64/bin/../lib/gcc/x86_64-w64-mingw32/8.1.0/../../../../x86_64-w64-mingw32/lib/../lib/libuser32.a(dyqes00744.o)
 .bss           0x0000000068f71930        0x0 C:/mingw64/bin/../lib/gcc/x86_64-w64-mingw32/8.1.0/../../../../x86_64-w64-mingw32/lib/../lib/libuser32.a(dyqes00738.o)
 .bss           0x0000000068f71930        0x0 C:/mingw64/bin/../lib/gcc/x86_64-w64-mingw32/8.1.0/../../../../x86_64-w64-mingw32/lib/../lib/libuser32.a(dyqes00654.o)
 .bss           0x0000000068f71930        0x0 C:/mingw64/bin/../lib/gcc/x86_64-w64-mingw32/8.1.0/../../../../x86_64-w64-mingw32/lib/../lib/libuser32.a(dyqes00623.o)
 .bss           0x0000000068f71930        0x0 C:/mingw64/bin/../lib/gcc/x86_64-w64-mingw32/8.1.0/../../../../x86_64-w64-mingw32/lib/../lib/libuser32.a(dyqes00567.o)
 .bss           0x0000000068f71930        0x0 C:/mingw64/bin/../lib/gcc/x86_64-w64-mingw32/8.1.0/../../../../x86_64-w64-mingw32/lib/../lib/libuser32.a(dyqes00477.o)
 .bss           0x0000000068f71930        0x0 C:/mingw64/bin/../lib/gcc/x86_64-w64-mingw32/8.1.0/../../../../x86_64-w64-mingw32/lib/../lib/libuser32.a(dyqes00476.o)
 .bss           0x0000000068f71930        0x0 C:/mingw64/bin/../lib/gcc/x86_64-w64-mingw32/8.1.0/../../../../x86_64-w64-mingw32/lib/../lib/libuser32.a(dyqes00470.o)
 .bss           0x0000000068f71930        0x0 C:/mingw64/bin/../lib/gcc/x86_64-w64-mingw32/8.1.0/../../../../x86_64-w64-mingw32/lib/../lib/libuser32.a(dyqes00385.o)
 .bss           0x0000000068f71930        0x0 C:/mingw64/bin/../lib/gcc/x86_64-w64-mingw32/8.1.0/../../../../x86_64-w64-mingw32/lib/../lib/libuser32.a(dyqes00326.o)
 .bss           0x0000000068f71930        0x0 C:/mingw64/bin/../lib/gcc/x86_64-w64-mingw32/8.1.0/../../../../x86_64-w64-mingw32/lib/../lib/libuser32.a(dyqes00317.o)
 .bss           0x0000000068f71930        0x0 C:/mingw64/bin/../lib/gcc/x86_64-w64-mingw32/8.1.0/../../../../x86_64-w64-mingw32/lib/../lib/libuser32.a(dyqes00303.o)
 .bss           0x0000000068f71930        0x0 C:/mingw64/bin/../lib/gcc/x86_64-w64-mingw32/8.1.0/../../../../x86_64-w64-mingw32/lib/../lib/libuser32.a(dyqes00235.o)
 .bss           0x0000000068f71930        0x0 C:/mingw64/bin/../lib/gcc/x86_64-w64-mingw32/8.1.0/../../../../x86_64-w64-mingw32/lib/../lib/libuser32.a(dyqes00176.o)
 .bss           0x0000000068f71930        0x0 C:/mingw64/bin/../lib/gcc/x86_64-w64-mingw32/8.1.0/../../../../x86_64-w64-mingw32/lib/../lib/libuser32.a(dyqes00104.o)
 .bss           0x0000000068f71930        0x0 C:/mingw64/bin/../lib/gcc/x86_64-w64-mingw32/8.1.0/../../../../x86_64-w64-mingw32/lib/../lib/libuser32.a(dyqeh.o)
 .bss           0x0000000068f71930        0x0 C:/mingw64/bin/../lib/gcc/x86_64-w64-mingw32/8.1.0/../../../../x86_64-w64-mingw32/lib/../lib/libuser32.a(dyqet.o)
 .bss           0x0000000068f71930        0x0 C:/mingw64/bin/../lib/gcc/x86_64-w64-mingw32/8.1.0/../../../../x86_64-w64-mingw32/lib/../lib/libkernel32.a(dqifs01516.o)
 .bss           0x0000000068f71930        0x0 C:/mingw64/bin/../lib/gcc/x86_64-w64-mingw32/8.1.0/../../../../x86_64-w64-mingw32/lib/../lib/libkernel32.a(dqifs01510.o)
 .bss           0x0000000068f71930        0x0 C:/mingw64/bin/../lib/gcc/x86_64-w64-mingw32/8.1.0/../../../../x86_64-w64-mingw32/lib/../lib/libkernel32.a(dqifs01490.o)
 .bss           0x0000000068f71930        0x0 C:/mingw64/bin/../lib/gcc/x86_64-w64-mingw32/8.1.0/../../../../x86_64-w64-mingw32/lib/../lib/libkernel32.a(dqifs01453.o)
 .bss           0x0000000068f71930        0x0 C:/mingw64/bin/../lib/gcc/x86_64-w64-mingw32/8.1.0/../../../../x86_64-w64-mingw32/lib/../lib/libkernel32.a(dqifs01451.o)
 .bss           0x0000000068f71930        0x0 C:/mingw64/bin/../lib/gcc/x86_64-w64-mingw32/8.1.0/../../../../x86_64-w64-mingw32/lib/../lib/libkernel32.a(dqifs01445.o)
 .bss           0x0000000068f71930        0x0 C:/mingw64/bin/../lib/gcc/x86_64-w64-mingw32/8.1.0/../../../../x86_64-w64-mingw32/lib/../lib/libkernel32.a(dqifs01443.o)
 .bss           0x0000000068f71930        0x0 C:/mingw64/bin/../lib/gcc/x86_64-w64-mingw32/8.1.0/../../../../x86_64-w64-mingw32/lib/../lib/libkernel32.a(dqifs01409.o)
 .bss           0x0000000068f71930        0x0 C:/mingw64/bin/../lib/gcc/x86_64-w64-mingw32/8.1.0/../../../../x86_64-w64-mingw32/lib/../lib/libkernel32.a(dqifs01396.o)
 .bss           0x0000000068f71930        0x0 C:/mingw64/bin/../lib/gcc/x86_64-w64-mingw32/8.1.0/../../../../x86_64-w64-mingw32/lib/../lib/libkernel32.a(dqifs01395.o)
 .bss           0x0000000068f71930        0x0 C:/mingw64/bin/../lib/gcc/x86_64-w64-mingw32/8.1.0/../../../../x86_64-w64-mingw32/lib/../lib/libkernel32.a(dqifs01394.o)
 .bss           0x0000000068f71930        0x0 C:/mingw64/bin/../lib/gcc/x86_64-w64-mingw32/8.1.0/../../../../x86_64-w64-mingw32/lib/../lib/libkernel32.a(dqifs01393.o)
 .bss           0x0000000068f71930        0x0 C:/mingw64/bin/../lib/gcc/x86_64-w64-mingw32/8.1.0/../../../../x86_64-w64-mingw32/lib/../lib/libkernel32.a(dqifs01375.o)
 .bss           0x0000000068f71930        0x0 C:/mingw64/bin/../lib/gcc/x86_64-w64-mingw32/8.1.0/../../../../x86_64-w64-mingw32/lib/../lib/libkernel32.a(dqifs01360.o)
 .bss           0x0000000068f71930        0x0 C:/mingw64/bin/../lib/gcc/x86_64-w64-mingw32/8.1.0/../../../../x86_64-w64-mingw32/lib/../lib/libkernel32.a(dqifs01346.o)
 .bss           0x0000000068f71930        0x0 C:/mingw64/bin/../lib/gcc/x86_64-w64-mingw32/8.1.0/../../../../x86_64-w64-mingw32/lib/../lib/libkernel32.a(dqifs01290.o)
 .bss           0x0000000068f71930        0x0 C:/mingw64/bin/../lib/gcc/x86_64-w64-mingw32/8.1.0/../../../../x86_64-w64-mingw32/lib/../lib/libkernel32.a(dqifs01263.o)
 .bss           0x0000000068f71930        0x0 C:/mingw64/bin/../lib/gcc/x86_64-w64-mingw32/8.1.0/../../../../x86_64-w64-mingw32/lib/../lib/libkernel32.a(dqifs01194.o)
 .bss           0x0000000068f71930        0x0 C:/mingw64/bin/../lib/gcc/x86_64-w64-mingw32/8.1.0/../../../../x86_64-w64-mingw32/lib/../lib/libkernel32.a(dqifs01193.o)
 .bss           0x0000000068f71930        0x0 C:/mingw64/bin/../lib/gcc/x86_64-w64-mingw32/8.1.0/../../../../x86_64-w64-mingw32/lib/../lib/libkernel32.a(dqifs01187.o)
 .bss           0x0000000068f71930        0x0 C:/mingw64/bin/../lib/gcc/x86_64-w64-mingw32/8.1.0/../../../../x86_64-w64-mingw32/lib/../lib/libkernel32.a(dqifs01180.o)
 .bss           0x0000000068f71930        0x0 C:/mingw64/bin/../lib/gcc/x86_64-w64-mingw32/8.1.0/../../../../x86_64-w64-mingw32/lib/../lib/libkernel32.a(dqifs01179.o)
 .bss           0x0000000068f71930        0x0 C:/mingw64/bin/../lib/gcc/x86_64-w64-mingw32/8.1.0/../../../../x86_64-w64-mingw32/lib/../lib/libkernel32.a(dqifs01172.o)
 .bss           0x0000000068f71930        0x0 C:/mingw64/bin/../lib/gcc/x86_64-w64-mingw32/8.1.0/../../../../x86_64-w64-mingw32/lib/../lib/libkernel32.a(dqifs01154.o)
 .bss           0x0000000068f71930        0x0 C:/mingw64/bin/../lib/gcc/x86_64-w64-mingw32/8.1.0/../../../../x86_64-w64-mingw32/lib/../lib/libkernel32.a(dqifs01128.o)
 .bss           0x0000000068f71930        0x0 C:/mingw64/bin/../lib/gcc/x86_64-w64-mingw32/8.1.0/../../../../x86_64-w64-mingw32/lib/../lib/libkernel32.a(dqifs01112.o)
 .bss           0x0000000068f71930        0x0 C:/mingw64/bin/../lib/gcc/x86_64-w64-mingw32/8.1.0/../../../../x86_64-w64-mingw32/lib/../lib/libkernel32.a(dqifs01093.o)
 .bss           0x0000000068f71930        0x0 C:/mingw64/bin/../lib/gcc/x86_64-w64-mingw32/8.1.0/../../../../x86_64-w64-mingw32/lib/../lib/libkernel32.a(dqifs01042.o)
 .bss           0x0000000068f71930        0x0 C:/mingw64/bin/../lib/gcc/x86_64-w64-mingw32/8.1.0/../../../../x86_64-w64-mingw32/lib/../lib/libkernel32.a(dqifs01020.o)
 .bss           0x0000000068f71930        0x0 C:/mingw64/bin/../lib/gcc/x86_64-w64-mingw32/8.1.0/../../../../x86_64-w64-mingw32/lib/../lib/libkernel32.a(dqifs00999.o)
 .bss           0x0000000068f71930        0x0 C:/mingw64/bin/../lib/gcc/x86_64-w64-mingw32/8.1.0/../../../../x86_64-w64-mingw32/lib/../lib/libkernel32.a(dqifs00967.o)
 .bss           0x0000000068f71930        0x0 C:/mingw64/bin/../lib/gcc/x86_64-w64-mingw32/8.1.0/../../../../x86_64-w64-mingw32/lib/../lib/libkernel32.a(dqifs00951.o)
 .bss           0x0000000068f71930        0x0 C:/mingw64/bin/../lib/gcc/x86_64-w64-mingw32/8.1.0/../../../../x86_64-w64-mingw32/lib/../lib/libkernel32.a(dqifs00863.o)
 .bss           0x0000000068f71930        0x0 C:/mingw64/bin/../lib/gcc/x86_64-w64-mingw32/8.1.0/../../../../x86_64-w64-mingw32/lib/../lib/libkernel32.a(dqifs00801.o)
 .bss           0x0000000068f71930        0x0 C:/mingw64/bin/../lib/gcc/x86_64-w64-mingw32/8.1.0/../../../../x86_64-w64-mingw32/lib/../lib/libkernel32.a(dqifs00799.o)
 .bss           0x0000000068f71930        0x0 C:/mingw64/bin/../lib/gcc/x86_64-w64-mingw32/8.1.0/../../../../x86_64-w64-mingw32/lib/../lib/libkernel32.a(dqifs00774.o)
 .bss           0x0000000068f71930        0x0 C:/mingw64/bin/../lib/gcc/x86_64-w64-mingw32/8.1.0/../../../../x86_64-w64-mingw32/lib/../lib/libkernel32.a(dqifs00746.o)
 .bss           0x0000000068f71930        0x0 C:/mingw64/bin/../lib/gcc/x86_64-w64-mingw32/8.1.0/../../../../x86_64-w64-mingw32/lib/../lib/libkernel32.a(dqifs00689.o)
 .bss           0x0000000068f71930        0x0 C:/mingw64/bin/../lib/gcc/x86_64-w64-mingw32/8.1.0/../../../../x86_64-w64-mingw32/lib/../lib/libkernel32.a(dqifs00686.o)
 .bss           0x0000000068f71930        0x0 C:/mingw64/bin/../lib/gcc/x86_64-w64-mingw32/8.1.0/../../../../x86_64-w64-mingw32/lib/../lib/libkernel32.a(dqifs00680.o)
 .bss           0x0000000068f71930        0x0 C:/mingw64/bin/../lib/gcc/x86_64-w64-mingw32/8.1.0/../../../../x86_64-w64-mingw32/lib/../lib/libkernel32.a(dqifs00633.o)
 .bss           0x0000000068f71930        0x0 C:/mingw64/bin/../lib/gcc/x86_64-w64-mingw32/8.1.0/../../../../x86_64-w64-mingw32/lib/../lib/libkernel32.a(dqifs00629.o)
 .bss           0x0000000068f71930        0x0 C:/mingw64/bin/../lib/gcc/x86_64-w64-mingw32/8.1.0/../../../../x86_64-w64-mingw32/lib/../lib/libkernel32.a(dqifs00609.o)
 .bss           0x0000000068f71930        0x0 C:/mingw64/bin/../lib/gcc/x86_64-w64-mingw32/8.1.0/../../../../x86_64-w64-mingw32/lib/../lib/libkernel32.a(dqifs00583.o)
 .bss           0x0000000068f71930        0x0 C:/mingw64/bin/../lib/gcc/x86_64-w64-mingw32/8.1.0/../../../../x86_64-w64-mingw32/lib/../lib/libkernel32.a(dqifs00554.o)
 .bss           0x0000000068f71930        0x0 C:/mingw64/bin/../lib/gcc/x86_64-w64-mingw32/8.1.0/../../../../x86_64-w64-mingw32/lib/../lib/libkernel32.a(dqifs00540.o)
 .bss           0x0000000068f71930        0x0 C:/mingw64/bin/../lib/gcc/x86_64-w64-mingw32/8.1.0/../../../../x86_64-w64-mingw32/lib/../lib/libkernel32.a(dqifs00536.o)
 .bss           0x0000000068f71930        0x0 C:/mingw64/bin/../lib/gcc/x86_64-w64-mingw32/8.1.0/../../../../x86_64-w64-mingw32/lib/../lib/libkernel32.a(dqifs00535.o)
 .bss           0x0000000068f71930        0x0 C:/mingw64/bin/../lib/gcc/x86_64-w64-mingw32/8.1.0/../../../../x86_64-w64-mingw32/lib/../lib/libkernel32.a(dqifs00415.o)
 .bss           0x0000000068f71930        0x0 C:/mingw64/bin/../lib/gcc/x86_64-w64-mingw32/8.1.0/../../../../x86_64-w64-mingw32/lib/../lib/libkernel32.a(dqifs00396.o)
 .bss           0x0000000068f71930        0x0 C:/mingw64/bin/../lib/gcc/x86_64-w64-mingw32/8.1.0/../../../../x86_64-w64-mingw32/lib/../lib/libkernel32.a(dqifs00384.o)
 .bss           0x0000000068f71930        0x0 C:/mingw64/bin/../lib/gcc/x86_64-w64-mingw32/8.1.0/../../../../x86_64-w64-mingw32/lib/../lib/libkernel32.a(dqifs00373.o)
 .bss           0x0000000068f71930        0x0 C:/mingw64/bin/../lib/gcc/x86_64-w64-mingw32/8.1.0/../../../../x86_64-w64-mingw32/lib/../lib/libkernel32.a(dqifs00304.o)
 .bss           0x0000000068f71930        0x0 C:/mingw64/bin/../lib/gcc/x86_64-w64-mingw32/8.1.0/../../../../x86_64-w64-mingw32/lib/../lib/libkernel32.a(dqifs00289.o)
 .bss           0x0000000068f71930        0x0 C:/mingw64/bin/../lib/gcc/x86_64-w64-mingw32/8.1.0/../../../../x86_64-w64-mingw32/lib/../lib/libkernel32.a(dqifs00268.o)
 .bss           0x0000000068f71930        0x0 C:/mingw64/bin/../lib/gcc/x86_64-w64-mingw32/8.1.0/../../../../x86_64-w64-mingw32/lib/../lib/libkernel32.a(dqifs00231.o)
 .bss           0x0000000068f71930        0x0 C:/mingw64/bin/../lib/gcc/x86_64-w64-mingw32/8.1.0/../../../../x86_64-w64-mingw32/lib/../lib/libkernel32.a(dqifs00216.o)
 .bss           0x0000000068f71930        0x0 C:/mingw64/bin/../lib/gcc/x86_64-w64-mingw32/8.1.0/../../../../x86_64-w64-mingw32/lib/../lib/libkernel32.a(dqifs00199.o)
 .bss           0x0000000068f71930        0x0 C:/mingw64/bin/../lib/gcc/x86_64-w64-mingw32/8.1.0/../../../../x86_64-w64-mingw32/lib/../lib/libkernel32.a(dqifs00187.o)
 .bss           0x0000000068f71930        0x0 C:/mingw64/bin/../lib/gcc/x86_64-w64-mingw32/8.1.0/../../../../x86_64-w64-mingw32/lib/../lib/libkernel32.a(dqifs00183.o)
 .bss           0x0000000068f71930        0x0 C:/mingw64/bin/../lib/gcc/x86_64-w64-mingw32/8.1.0/../../../../x86_64-w64-mingw32/lib/../lib/libkernel32.a(dqifs00151.o)
 .bss           0x0000000068f71930        0x0 C:/mingw64/bin/../lib/gcc/x86_64-w64-mingw32/8.1.0/../../../../x86_64-w64-mingw32/lib/../lib/libkernel32.a(dqifs00130.o)
 .bss           0x0000000068f71930        0x0 C:/mingw64/bin/../lib/gcc/x86_64-w64-mingw32/8.1.0/../../../../x86_64-w64-mingw32/lib/../lib/libkernel32.a(dqifs00109.o)
 .bss           0x0000000068f71930        0x0 C:/mingw64/bin/../lib/gcc/x86_64-w64-mingw32/8.1.0/../../../../x86_64-w64-mingw32/lib/../lib/libkernel32.a(dqifh.o)
 .bss           0x0000000068f71930        0x0 C:/mingw64/bin/../lib/gcc/x86_64-w64-mingw32/8.1.0/../../../../x86_64-w64-mingw32/lib/../lib/libkernel32.a(dqift.o)
 .bss           0x0000000068f71930        0x0 C:/mingw64/bin/../lib/gcc/x86_64-w64-mingw32/8.1.0/../../../../x86_64-w64-mingw32/lib/../lib/libmingw32.a(lib64_libmingw32_a-tlsmthread.o)
 .bss           0x0000000068f71930        0x0 C:/mingw64/bin/../lib/gcc/x86_64-w64-mingw32/8.1.0/../../../../x86_64-w64-mingw32/lib/../lib/libmingwex.a(lib64_libmingwex_a-vsnprintf.o)
 .bss           0x0000000068f71930        0x0 C:/mingw64/bin/../lib/gcc/x86_64-w64-mingw32/8.1.0/../../../../x86_64-w64-mingw32/lib/../lib/libmsvcrt.a(duags00852.o)
 .bss           0x0000000068f71930        0x0 C:/mingw64/bin/../lib/gcc/x86_64-w64-mingw32/8.1.0/crtend.o
 *(COMMON)
 COMMON         0x0000000068f71930       0x10 C:/mingw64/bin/../lib/gcc/x86_64-w64-mingw32/8.1.0/../../../../x86_64-w64-mingw32/lib/../lib/libmingw32.a(lib64_libmingw32_a-natstart.o)
                0x0000000068f71930                __native_startup_state
                0x0000000068f71938                __native_startup_lock
 COMMON         0x0000000068f71940        0x0 C:/mingw64/bin/../lib/gcc/x86_64-w64-mingw32/8.1.0/libgcc.a(_ctors.o)
                0x0000000068f71940                __bss_end__ = .

.edata          0x0000000068f72000      0x200
 *(.edata)
 .edata         0x0000000068f72000       0x9d dll stuff

/DISCARD/
 *(.debug$S)
 *(.debug$T)
 *(.debug$F)
 *(.drectve)
 *(.note.GNU-stack)
 *(.gnu.lto_*)

.idata          0x0000000068f73000     0x1600
 SORT_BY_NAME(*)(.idata$2)
 .idata$2       0x0000000068f73000       0x14 C:/mingw64/bin/../lib/gcc/x86_64-w64-mingw32/8.1.0/../../../../x86_64-w64-mingw32/lib/../lib/libadvapi32.a(diufh.o)
                0x0000000068f73000                _head_lib64_libadvapi32_a
 .idata$2       0x0000000068f73014       0x14 C:/mingw64/bin/../lib/gcc/x86_64-w64-mingw32/8.1.0/../../../../x86_64-w64-mingw32/lib/../lib/libkernel32.a(dqifh.o)
                0x0000000068f73014                _head_lib64_libkernel32_a
 .idata$2       0x0000000068f73028       0x14 C:/mingw64/bin/../lib/gcc/x86_64-w64-mingw32/8.1.0/../../../../x86_64-w64-mingw32/lib/../lib/libmsvcrt.a(duagh.o)
                0x0000000068f73028                _head_lib64_libmsvcrt_os_a
 .idata$2       0x0000000068f7303c       0x14 C:/mingw64/bin/../lib/gcc/x86_64-w64-mingw32/8.1.0/../../../../x86_64-w64-mingw32/lib/../lib/libuser32.a(dyqeh.o)
                0x0000000068f7303c                _head_lib64_libuser32_a
 .idata$2       0x0000000068f73050       0x14 C:/mingw64/bin/../lib/gcc/x86_64-w64-mingw32/8.1.0/../../../../x86_64-w64-mingw32/lib/../lib/libws2_32.a(dozfh.o)
                0x0000000068f73050                _head_lib64_libws2_32_a
 SORT_BY_NAME(*)(.idata$3)
                0x0000000068f73064        0x4 LONG 0x0
                0x0000000068f73068        0x4 LONG 0x0
                0x0000000068f7306c        0x4 LONG 0x0
                0x0000000068f73070        0x4 LONG 0x0
                0x0000000068f73074        0x4 LONG 0x0
 SORT_BY_NAME(*)(.idata$4)
 .idata$4       0x0000000068f73078        0x0 C:/mingw64/bin/../lib/gcc/x86_64-w64-mingw32/8.1.0/../../../../x86_64-w64-mingw32/lib/../lib/libadvapi32.a(diufh.o)
 .idata$4       0x0000000068f73078        0x8 C:/mingw64/bin/../lib/gcc/x86_64-w64-mingw32/8.1.0/../../../../x86_64-w64-mingw32/lib/../lib/libadvapi32.a(diufs00146.o)
 .idata$4       0x0000000068f73080        0x8 C:/mingw64/bin/../lib/gcc/x86_64-w64-mingw32/8.1.0/../../../../x86_64-w64-mingw32/lib/../lib/libadvapi32.a(diufs00354.o)
 .idata$4       0x0000000068f73088        0x8 C:/mingw64/bin/../lib/gcc/x86_64-w64-mingw32/8.1.0/../../../../x86_64-w64-mingw32/lib/../lib/libadvapi32.a(diufs00720.o)
 .idata$4       0x0000000068f73090        0x8 C:/mingw64/bin/../lib/gcc/x86_64-w64-mingw32/8.1.0/../../../../x86_64-w64-mingw32/lib/../lib/libadvapi32.a(diufs00741.o)
 .idata$4       0x0000000068f73098        0x8 C:/mingw64/bin/../lib/gcc/x86_64-w64-mingw32/8.1.0/../../../../x86_64-w64-mingw32/lib/../lib/libadvapi32.a(diuft.o)
 .idata$4       0x0000000068f730a0        0x0 C:/mingw64/bin/../lib/gcc/x86_64-w64-mingw32/8.1.0/../../../../x86_64-w64-mingw32/lib/../lib/libkernel32.a(dqifh.o)
 .idata$4       0x0000000068f730a0        0x8 C:/mingw64/bin/../lib/gcc/x86_64-w64-mingw32/8.1.0/../../../../x86_64-w64-mingw32/lib/../lib/libkernel32.a(dqifs00109.o)
 .idata$4       0x0000000068f730a8        0x8 C:/mingw64/bin/../lib/gcc/x86_64-w64-mingw32/8.1.0/../../../../x86_64-w64-mingw32/lib/../lib/libkernel32.a(dqifs00130.o)
 .idata$4       0x0000000068f730b0        0x8 C:/mingw64/bin/../lib/gcc/x86_64-w64-mingw32/8.1.0/../../../../x86_64-w64-mingw32/lib/../lib/libkernel32.a(dqifs00151.o)
 .idata$4       0x0000000068f730b8        0x8 C:/mingw64/bin/../lib/gcc/x86_64-w64-mingw32/8.1.0/../../../../x86_64-w64-mingw32/lib/../lib/libkernel32.a(dqifs00183.o)
 .idata$4       0x0000000068f730c0        0x8 C:/mingw64/bin/../lib/gcc/x86_64-w64-mingw32/8.1.0/../../../../x86_64-w64-mingw32/lib/../lib/libkernel32.a(dqifs00187.o)
 .idata$4       0x0000000068f730c8        0x8 C:/mingw64/bin/../lib/gcc/x86_64-w64-mingw32/8.1.0/../../../../x86_64-w64-mingw32/lib/../lib/libkernel32.a(dqifs00199.o)
 .idata$4       0x0000000068f730d0        0x8 C:/mingw64/bin/../lib/gcc/x86_64-w64-mingw32/8.1.0/../../../../x86_64-w64-mingw32/lib/../lib/libkernel32.a(dqifs00216.o)
 .idata$4       0x0000000068f730d8        0x8 C:/mingw64/bin/../lib/gcc/x86_64-w64-mingw32/8.1.0/../../../../x86_64-w64-mingw32/lib/../lib/libkernel32.a(dqifs00231.o)
 .idata$4       0x0000000068f730e0        0x8 C:/mingw64/bin/../lib/gcc/x86_64-w64-mingw32/8.1.0/../../../../x86_64-w64-mingw32/lib/../lib/libkernel32.a(dqifs00268.o)
 .idata$4       0x0000000068f730e8        0x8 C:/mingw64/bin/../lib/gcc/x86_64-w64-mingw32/8.1.0/../../../../x86_64-w64-mingw32/lib/../lib/libkernel32.a(dqifs00289.o)
 .idata$4       0x0000000068f730f0        0x8 C:/mingw64/bin/../lib/gcc/x86_64-w64-mingw32/8.1.0/../../../../x86_64-w64-mingw32/lib/../lib/libkernel32.a(dqifs00304.o)
 .idata$4       0x0000000068f730f8        0x8 C:/mingw64/bin/../lib/gcc/x86_64-w64-mingw32/8.1.0/../../../../x86_64-w64-mingw32/lib/../lib/libkernel32.a(dqifs00373.o)
 .idata$4       0x0000000068f73100        0x8 C:/mingw64/bin/../lib/gcc/x86_64-w64-mingw32/8.1.0/../../../../x86_64-w64-mingw32/lib/../lib/libkernel32.a(dqifs00384.o)
 .idata$4       0x0000000068f73108        0x8 C:/mingw64/bin/../lib/gcc/x86_64-w64-mingw32/8.1.0/../../../../x86_64-w64-mingw32/lib/../lib/libkernel32.a(dqifs00396.o)
 .idata$4       0x0000000068f73110        0x8 C:/mingw64/bin/../lib/gcc/x86_64-w64-mingw32/8.1.0/../../../../x86_64-w64-mingw32/lib/../lib/libkernel32.a(dqifs00415.o)
 .idata$4       0x0000000068f73118        0x8 C:/mingw64/bin/../lib/gcc/x86_64-w64-mingw32/8.1.0/../../../../x86_64-w64-mingw32/lib/../lib/libkernel32.a(dqifs00535.o)
 .idata$4       0x0000000068f73120        0x8 C:/mingw64/bin/../lib/gcc/x86_64-w64-mingw32/8.1.0/../../../../x86_64-w64-mingw32/lib/../lib/libkernel32.a(dqifs00536.o)
 .idata$4       0x0000000068f73128        0x8 C:/mingw64/bin/../lib/gcc/x86_64-w64-mingw32/8.1.0/../../../../x86_64-w64-mingw32/lib/../lib/libkernel32.a(dqifs00540.o)
 .idata$4       0x0000000068f73130        0x8 C:/mingw64/bin/../lib/gcc/x86_64-w64-mingw32/8.1.0/../../../../x86_64-w64-mingw32/lib/../lib/libkernel32.a(dqifs00554.o)
 .idata$4       0x0000000068f73138        0x8 C:/mingw64/bin/../lib/gcc/x86_64-w64-mingw32/8.1.0/../../../../x86_64-w64-mingw32/lib/../lib/libkernel32.a(dqifs00583.o)
 .idata$4       0x0000000068f73140        0x8 C:/mingw64/bin/../lib/gcc/x86_64-w64-mingw32/8.1.0/../../../../x86_64-w64-mingw32/lib/../lib/libkernel32.a(dqifs00609.o)
 .idata$4       0x0000000068f73148        0x8 C:/mingw64/bin/../lib/gcc/x86_64-w64-mingw32/8.1.0/../../../../x86_64-w64-mingw32/lib/../lib/libkernel32.a(dqifs00629.o)
 .idata$4       0x0000000068f73150        0x8 C:/mingw64/bin/../lib/gcc/x86_64-w64-mingw32/8.1.0/../../../../x86_64-w64-mingw32/lib/../lib/libkernel32.a(dqifs00633.o)
 .idata$4       0x0000000068f73158        0x8 C:/mingw64/bin/../lib/gcc/x86_64-w64-mingw32/8.1.0/../../../../x86_64-w64-mingw32/lib/../lib/libkernel32.a(dqifs00680.o)
 .idata$4       0x0000000068f73160        0x8 C:/mingw64/bin/../lib/gcc/x86_64-w64-mingw32/8.1.0/../../../../x86_64-w64-mingw32/lib/../lib/libkernel32.a(dqifs00686.o)
 .idata$4       0x0000000068f73168        0x8 C:/mingw64/bin/../lib/gcc/x86_64-w64-mingw32/8.1.0/../../../../x86_64-w64-mingw32/lib/../lib/libkernel32.a(dqifs00689.o)
 .idata$4       0x0000000068f73170        0x8 C:/mingw64/bin/../lib/gcc/x86_64-w64-mingw32/8.1.0/../../../../x86_64-w64-mingw32/lib/../lib/libkernel32.a(dqifs00746.o)
 .idata$4       0x0000000068f73178        0x8 C:/mingw64/bin/../lib/gcc/x86_64-w64-mingw32/8.1.0/../../../../x86_64-w64-mingw32/lib/../lib/libkernel32.a(dqifs00774.o)
 .idata$4       0x0000000068f73180        0x8 C:/mingw64/bin/../lib/gcc/x86_64-w64-mingw32/8.1.0/../../../../x86_64-w64-mingw32/lib/../lib/libkernel32.a(dqifs00799.o)
 .idata$4       0x0000000068f73188        0x8 C:/mingw64/bin/../lib/gcc/x86_64-w64-mingw32/8.1.0/../../../../x86_64-w64-mingw32/lib/../lib/libkernel32.a(dqifs00801.o)
 .idata$4       0x0000000068f73190        0x8 C:/mingw64/bin/../lib/gcc/x86_64-w64-mingw32/8.1.0/../../../../x86_64-w64-mingw32/lib/../lib/libkernel32.a(dqifs00863.o)
 .idata$4       0x0000000068f73198        0x8 C:/mingw64/bin/../lib/gcc/x86_64-w64-mingw32/8.1.0/../../../../x86_64-w64-mingw32/lib/../lib/libkernel32.a(dqifs00951.o)
 .idata$4       0x0000000068f731a0        0x8 C:/mingw64/bin/../lib/gcc/x86_64-w64-mingw32/8.1.0/../../../../x86_64-w64-mingw32/lib/../lib/libkernel32.a(dqifs00967.o)
 .idata$4       0x0000000068f731a8        0x8 C:/mingw64/bin/../lib/gcc/x86_64-w64-mingw32/8.1.0/../../../../x86_64-w64-mingw32/lib/../lib/libkernel32.a(dqifs00999.o)
 .idata$4       0x0000000068f731b0        0x8 C:/mingw64/bin/../lib/gcc/x86_64-w64-mingw32/8.1.0/../../../../x86_64-w64-mingw32/lib/../lib/libkernel32.a(dqifs01020.o)
 .idata$4       0x0000000068f731b8        0x8 C:/mingw64/bin/../lib/gcc/x86_64-w64-mingw32/8.1.0/../../../../x86_64-w64-mingw32/lib/../lib/libkernel32.a(dqifs01042.o)
 .idata$4       0x0000000068f731c0        0x8 C:/mingw64/bin/../lib/gcc/x86_64-w64-mingw32/8.1.0/../../../../x86_64-w64-mingw32/lib/../lib/libkernel32.a(dqifs01093.o)
 .idata$4       0x0000000068f731c8        0x8 C:/mingw64/bin/../lib/gcc/x86_64-w64-mingw32/8.1.0/../../../../x86_64-w64-mingw32/lib/../lib/libkernel32.a(dqifs01112.o)
 .idata$4       0x0000000068f731d0        0x8 C:/mingw64/bin/../lib/gcc/x86_64-w64-mingw32/8.1.0/../../../../x86_64-w64-mingw32/lib/../lib/libkernel32.a(dqifs01128.o)
 .idata$4       0x0000000068f731d8        0x8 C:/mingw64/bin/../lib/gcc/x86_64-w64-mingw32/8.1.0/../../../../x86_64-w64-mingw32/lib/../lib/libkernel32.a(dqifs01154.o)
 .idata$4       0x0000000068f731e0        0x8 C:/mingw64/bin/../lib/gcc/x86_64-w64-mingw32/8.1.0/../../../../x86_64-w64-mingw32/lib/../lib/libkernel32.a(dqifs01172.o)
 .idata$4       0x0000000068f731e8        0x8 C:/mingw64/bin/../lib/gcc/x86_64-w64-mingw32/8.1.0/../../../../x86_64-w64-mingw32/lib/../lib/libkernel32.a(dqifs01179.o)
 .idata$4       0x0000000068f731f0        0x8 C:/mingw64/bin/../lib/gcc/x86_64-w64-mingw32/8.1.0/../../../../x86_64-w64-mingw32/lib/../lib/libkernel32.a(dqifs01180.o)
 .idata$4       0x0000000068f731f8        0x8 C:/mingw64/bin/../lib/gcc/x86_64-w64-mingw32/8.1.0/../../../../x86_64-w64-mingw32/lib/../lib/libkernel32.a(dqifs01187.o)
 .idata$4       0x0000000068f73200        0x8 C:/mingw64/bin/../lib/gcc/x86_64-w64-mingw32/8.1.0/../../../../x86_64-w64-mingw32/lib/../lib/libkernel32.a(dqifs01193.o)
 .idata$4       0x0000000068f73208        0x8 C:/mingw64/bin/../lib/gcc/x86_64-w64-mingw32/8.1.0/../../../../x86_64-w64-mingw32/lib/../lib/libkernel32.a(dqifs01194.o)
 .idata$4       0x0000000068f73210        0x8 C:/mingw64/bin/../lib/gcc/x86_64-w64-mingw32/8.1.0/../../../../x86_64-w64-mingw32/lib/../lib/libkernel32.a(dqifs01263.o)
 .idata$4       0x0000000068f73218        0x8 C:/mingw64/bin/../lib/gcc/x86_64-w64-mingw32/8.1.0/../../../../x86_64-w64-mingw32/lib/../lib/libkernel32.a(dqifs01290.o)
 .idata$4       0x0000000068f73220        0x8 C:/mingw64/bin/../lib/gcc/x86_64-w64-mingw32/8.1.0/../../../../x86_64-w64-mingw32/lib/../lib/libkernel32.a(dqifs01346.o)
 .idata$4       0x0000000068f73228        0x8 C:/mingw64/bin/../lib/gcc/x86_64-w64-mingw32/8.1.0/../../../../x86_64-w64-mingw32/lib/../lib/libkernel32.a(dqifs01360.o)
 .idata$4       0x0000000068f73230        0x8 C:/mingw64/bin/../lib/gcc/x86_64-w64-mingw32/8.1.0/../../../../x86_64-w64-mingw32/lib/../lib/libkernel32.a(dqifs01375.o)
 .idata$4       0x0000000068f73238        0x8 C:/mingw64/bin/../lib/gcc/x86_64-w64-mingw32/8.1.0/../../../../x86_64-w64-mingw32/lib/../lib/libkernel32.a(dqifs01393.o)
 .idata$4       0x0000000068f73240        0x8 C:/mingw64/bin/../lib/gcc/x86_64-w64-mingw32/8.1.0/../../../../x86_64-w64-mingw32/lib/../lib/libkernel32.a(dqifs01394.o)
 .idata$4       0x0000000068f73248        0x8 C:/mingw64/bin/../lib/gcc/x86_64-w64-mingw32/8.1.0/../../../../x86_64-w64-mingw32/lib/../lib/libkernel32.a(dqifs01395.o)
 .idata$4       0x0000000068f73250        0x8 C:/mingw64/bin/../lib/gcc/x86_64-w64-mingw32/8.1.0/../../../../x86_64-w64-mingw32/lib/../lib/libkernel32.a(dqifs01396.o)
 .idata$4       0x0000000068f73258        0x8 C:/mingw64/bin/../lib/gcc/x86_64-w64-mingw32/8.1.0/../../../../x86_64-w64-mingw32/lib/../lib/libkernel32.a(dqifs01409.o)
 .idata$4       0x0000000068f73260        0x8 C:/mingw64/bin/../lib/gcc/x86_64-w64-mingw32/8.1.0/../../../../x86_64-w64-mingw32/lib/../lib/libkernel32.a(dqifs01443.o)
 .idata$4       0x0000000068f73268        0x8 C:/mingw64/bin/../lib/gcc/x86_64-w64-mingw32/8.1.0/../../../../x86_64-w64-mingw32/lib/../lib/libkernel32.a(dqifs01445.o)
 .idata$4       0x0000000068f73270        0x8 C:/mingw64/bin/../lib/gcc/x86_64-w64-mingw32/8.1.0/../../../../x86_64-w64-mingw32/lib/../lib/libkernel32.a(dqifs01451.o)
 .idata$4       0x0000000068f73278        0x8 C:/mingw64/bin/../lib/gcc/x86_64-w64-mingw32/8.1.0/../../../../x86_64-w64-mingw32/lib/../lib/libkernel32.a(dqifs01453.o)
 .idata$4       0x0000000068f73280        0x8 C:/mingw64/bin/../lib/gcc/x86_64-w64-mingw32/8.1.0/../../../../x86_64-w64-mingw32/lib/../lib/libkernel32.a(dqifs01490.o)
 .idata$4       0x0000000068f73288        0x8 C:/mingw64/bin/../lib/gcc/x86_64-w64-mingw32/8.1.0/../../../../x86_64-w64-mingw32/lib/../lib/libkernel32.a(dqifs01510.o)
 .idata$4       0x0000000068f73290        0x8 C:/mingw64/bin/../lib/gcc/x86_64-w64-mingw32/8.1.0/../../../../x86_64-w64-mingw32/lib/../lib/libkernel32.a(dqifs01516.o)
 .idata$4       0x0000000068f73298        0x8 C:/mingw64/bin/../lib/gcc/x86_64-w64-mingw32/8.1.0/../../../../x86_64-w64-mingw32/lib/../lib/libkernel32.a(dqift.o)
 .idata$4       0x0000000068f732a0        0x0 C:/mingw64/bin/../lib/gcc/x86_64-w64-mingw32/8.1.0/../../../../x86_64-w64-mingw32/lib/../lib/libmsvcrt.a(duagh.o)
 .idata$4       0x0000000068f732a0        0x8 C:/mingw64/bin/../lib/gcc/x86_64-w64-mingw32/8.1.0/../../../../x86_64-w64-mingw32/lib/../lib/libmsvcrt.a(duags00083.o)
 .idata$4       0x0000000068f732a8        0x8 C:/mingw64/bin/../lib/gcc/x86_64-w64-mingw32/8.1.0/../../../../x86_64-w64-mingw32/lib/../lib/libmsvcrt.a(duags00122.o)
 .idata$4       0x0000000068f732b0        0x8 C:/mingw64/bin/../lib/gcc/x86_64-w64-mingw32/8.1.0/../../../../x86_64-w64-mingw32/lib/../lib/libmsvcrt.a(duags00137.o)
 .idata$4       0x0000000068f732b8        0x8 C:/mingw64/bin/../lib/gcc/x86_64-w64-mingw32/8.1.0/../../../../x86_64-w64-mingw32/lib/../lib/libmsvcrt.a(duags00155.o)
 .idata$4       0x0000000068f732c0        0x8 C:/mingw64/bin/../lib/gcc/x86_64-w64-mingw32/8.1.0/../../../../x86_64-w64-mingw32/lib/../lib/libmsvcrt.a(duags00332.o)
 .idata$4       0x0000000068f732c8        0x8 C:/mingw64/bin/../lib/gcc/x86_64-w64-mingw32/8.1.0/../../../../x86_64-w64-mingw32/lib/../lib/libmsvcrt.a(duags00441.o)
 .idata$4       0x0000000068f732d0        0x8 C:/mingw64/bin/../lib/gcc/x86_64-w64-mingw32/8.1.0/../../../../x86_64-w64-mingw32/lib/../lib/libmsvcrt.a(duags00617.o)
 .idata$4       0x0000000068f732d8        0x8 C:/mingw64/bin/../lib/gcc/x86_64-w64-mingw32/8.1.0/../../../../x86_64-w64-mingw32/lib/../lib/libmsvcrt.a(duags00821.o)
 .idata$4       0x0000000068f732e0        0x8 C:/mingw64/bin/../lib/gcc/x86_64-w64-mingw32/8.1.0/../../../../x86_64-w64-mingw32/lib/../lib/libmsvcrt.a(duags00852.o)
 .idata$4       0x0000000068f732e8        0x8 C:/mingw64/bin/../lib/gcc/x86_64-w64-mingw32/8.1.0/../../../../x86_64-w64-mingw32/lib/../lib/libmsvcrt.a(duags00861.o)
 .idata$4       0x0000000068f732f0        0x8 C:/mingw64/bin/../lib/gcc/x86_64-w64-mingw32/8.1.0/../../../../x86_64-w64-mingw32/lib/../lib/libmsvcrt.a(duags00945.o)
 .idata$4       0x0000000068f732f8        0x8 C:/mingw64/bin/../lib/gcc/x86_64-w64-mingw32/8.1.0/../../../../x86_64-w64-mingw32/lib/../lib/libmsvcrt.a(duags00986.o)
 .idata$4       0x0000000068f73300        0x8 C:/mingw64/bin/../lib/gcc/x86_64-w64-mingw32/8.1.0/../../../../x86_64-w64-mingw32/lib/../lib/libmsvcrt.a(duags01032.o)
 .idata$4       0x0000000068f73308        0x8 C:/mingw64/bin/../lib/gcc/x86_64-w64-mingw32/8.1.0/../../../../x86_64-w64-mingw32/lib/../lib/libmsvcrt.a(duags01050.o)
 .idata$4       0x0000000068f73310        0x8 C:/mingw64/bin/../lib/gcc/x86_64-w64-mingw32/8.1.0/../../../../x86_64-w64-mingw32/lib/../lib/libmsvcrt.a(duags01067.o)
 .idata$4       0x0000000068f73318        0x8 C:/mingw64/bin/../lib/gcc/x86_64-w64-mingw32/8.1.0/../../../../x86_64-w64-mingw32/lib/../lib/libmsvcrt.a(duags01080.o)
 .idata$4       0x0000000068f73320        0x8 C:/mingw64/bin/../lib/gcc/x86_64-w64-mingw32/8.1.0/../../../../x86_64-w64-mingw32/lib/../lib/libmsvcrt.a(duags01084.o)
 .idata$4       0x0000000068f73328        0x8 C:/mingw64/bin/../lib/gcc/x86_64-w64-mingw32/8.1.0/../../../../x86_64-w64-mingw32/lib/../lib/libmsvcrt.a(duags01085.o)
 .idata$4       0x0000000068f73330        0x8 C:/mingw64/bin/../lib/gcc/x86_64-w64-mingw32/8.1.0/../../../../x86_64-w64-mingw32/lib/../lib/libmsvcrt.a(duags01086.o)
 .idata$4       0x0000000068f73338        0x8 C:/mingw64/bin/../lib/gcc/x86_64-w64-mingw32/8.1.0/../../../../x86_64-w64-mingw32/lib/../lib/libmsvcrt.a(duags01089.o)
 .idata$4       0x0000000068f73340        0x8 C:/mingw64/bin/../lib/gcc/x86_64-w64-mingw32/8.1.0/../../../../x86_64-w64-mingw32/lib/../lib/libmsvcrt.a(duags01101.o)
 .idata$4       0x0000000068f73348        0x8 C:/mingw64/bin/../lib/gcc/x86_64-w64-mingw32/8.1.0/../../../../x86_64-w64-mingw32/lib/../lib/libmsvcrt.a(duags01149.o)
 .idata$4       0x0000000068f73350        0x8 C:/mingw64/bin/../lib/gcc/x86_64-w64-mingw32/8.1.0/../../../../x86_64-w64-mingw32/lib/../lib/libmsvcrt.a(duags01155.o)
 .idata$4       0x0000000068f73358        0x8 C:/mingw64/bin/../lib/gcc/x86_64-w64-mingw32/8.1.0/../../../../x86_64-w64-mingw32/lib/../lib/libmsvcrt.a(duags01156.o)
 .idata$4       0x0000000068f73360        0x8 C:/mingw64/bin/../lib/gcc/x86_64-w64-mingw32/8.1.0/../../../../x86_64-w64-mingw32/lib/../lib/libmsvcrt.a(duags01157.o)
 .idata$4       0x0000000068f73368        0x8 C:/mingw64/bin/../lib/gcc/x86_64-w64-mingw32/8.1.0/../../../../x86_64-w64-mingw32/lib/../lib/libmsvcrt.a(duags01158.o)
 .idata$4       0x0000000068f73370        0x8 C:/mingw64/bin/../lib/gcc/x86_64-w64-mingw32/8.1.0/../../../../x86_64-w64-mingw32/lib/../lib/libmsvcrt.a(duags01159.o)
 .idata$4       0x0000000068f73378        0x8 C:/mingw64/bin/../lib/gcc/x86_64-w64-mingw32/8.1.0/../../../../x86_64-w64-mingw32/lib/../lib/libmsvcrt.a(duags01177.o)
 .idata$4       0x0000000068f73380        0x8 C:/mingw64/bin/../lib/gcc/x86_64-w64-mingw32/8.1.0/../../../../x86_64-w64-mingw32/lib/../lib/libmsvcrt.a(duags01186.o)
 .idata$4       0x0000000068f73388        0x8 C:/mingw64/bin/../lib/gcc/x86_64-w64-mingw32/8.1.0/../../../../x86_64-w64-mingw32/lib/../lib/libmsvcrt.a(duags01187.o)
 .idata$4       0x0000000068f73390        0x8 C:/mingw64/bin/../lib/gcc/x86_64-w64-mingw32/8.1.0/../../../../x86_64-w64-mingw32/lib/../lib/libmsvcrt.a(duags01192.o)
 .idata$4       0x0000000068f73398        0x8 C:/mingw64/bin/../lib/gcc/x86_64-w64-mingw32/8.1.0/../../../../x86_64-w64-mingw32/lib/../lib/libmsvcrt.a(duags01201.o)
 .idata$4       0x0000000068f733a0        0x8 C:/mingw64/bin/../lib/gcc/x86_64-w64-mingw32/8.1.0/../../../../x86_64-w64-mingw32/lib/../lib/libmsvcrt.a(duags01208.o)
 .idata$4       0x0000000068f733a8        0x8 C:/mingw64/bin/../lib/gcc/x86_64-w64-mingw32/8.1.0/../../../../x86_64-w64-mingw32/lib/../lib/libmsvcrt.a(duags01211.o)
 .idata$4       0x0000000068f733b0        0x8 C:/mingw64/bin/../lib/gcc/x86_64-w64-mingw32/8.1.0/../../../../x86_64-w64-mingw32/lib/../lib/libmsvcrt.a(duags01223.o)
 .idata$4       0x0000000068f733b8        0x8 C:/mingw64/bin/../lib/gcc/x86_64-w64-mingw32/8.1.0/../../../../x86_64-w64-mingw32/lib/../lib/libmsvcrt.a(duags01243.o)
 .idata$4       0x0000000068f733c0        0x8 C:/mingw64/bin/../lib/gcc/x86_64-w64-mingw32/8.1.0/../../../../x86_64-w64-mingw32/lib/../lib/libmsvcrt.a(duags01251.o)
 .idata$4       0x0000000068f733c8        0x8 C:/mingw64/bin/../lib/gcc/x86_64-w64-mingw32/8.1.0/../../../../x86_64-w64-mingw32/lib/../lib/libmsvcrt.a(duags01257.o)
 .idata$4       0x0000000068f733d0        0x8 C:/mingw64/bin/../lib/gcc/x86_64-w64-mingw32/8.1.0/../../../../x86_64-w64-mingw32/lib/../lib/libmsvcrt.a(duags01264.o)
 .idata$4       0x0000000068f733d8        0x8 C:/mingw64/bin/../lib/gcc/x86_64-w64-mingw32/8.1.0/../../../../x86_64-w64-mingw32/lib/../lib/libmsvcrt.a(duagt.o)
 .idata$4       0x0000000068f733e0        0x0 C:/mingw64/bin/../lib/gcc/x86_64-w64-mingw32/8.1.0/../../../../x86_64-w64-mingw32/lib/../lib/libuser32.a(dyqeh.o)
 .idata$4       0x0000000068f733e0        0x8 C:/mingw64/bin/../lib/gcc/x86_64-w64-mingw32/8.1.0/../../../../x86_64-w64-mingw32/lib/../lib/libuser32.a(dyqes00104.o)
 .idata$4       0x0000000068f733e8        0x8 C:/mingw64/bin/../lib/gcc/x86_64-w64-mingw32/8.1.0/../../../../x86_64-w64-mingw32/lib/../lib/libuser32.a(dyqes00176.o)
 .idata$4       0x0000000068f733f0        0x8 C:/mingw64/bin/../lib/gcc/x86_64-w64-mingw32/8.1.0/../../../../x86_64-w64-mingw32/lib/../lib/libuser32.a(dyqes00235.o)
 .idata$4       0x0000000068f733f8        0x8 C:/mingw64/bin/../lib/gcc/x86_64-w64-mingw32/8.1.0/../../../../x86_64-w64-mingw32/lib/../lib/libuser32.a(dyqes00303.o)
 .idata$4       0x0000000068f73400        0x8 C:/mingw64/bin/../lib/gcc/x86_64-w64-mingw32/8.1.0/../../../../x86_64-w64-mingw32/lib/../lib/libuser32.a(dyqes00317.o)
 .idata$4       0x0000000068f73408        0x8 C:/mingw64/bin/../lib/gcc/x86_64-w64-mingw32/8.1.0/../../../../x86_64-w64-mingw32/lib/../lib/libuser32.a(dyqes00326.o)
 .idata$4       0x0000000068f73410        0x8 C:/mingw64/bin/../lib/gcc/x86_64-w64-mingw32/8.1.0/../../../../x86_64-w64-mingw32/lib/../lib/libuser32.a(dyqes00385.o)
 .idata$4       0x0000000068f73418        0x8 C:/mingw64/bin/../lib/gcc/x86_64-w64-mingw32/8.1.0/../../../../x86_64-w64-mingw32/lib/../lib/libuser32.a(dyqes00470.o)
 .idata$4       0x0000000068f73420        0x8 C:/mingw64/bin/../lib/gcc/x86_64-w64-mingw32/8.1.0/../../../../x86_64-w64-mingw32/lib/../lib/libuser32.a(dyqes00476.o)
 .idata$4       0x0000000068f73428        0x8 C:/mingw64/bin/../lib/gcc/x86_64-w64-mingw32/8.1.0/../../../../x86_64-w64-mingw32/lib/../lib/libuser32.a(dyqes00477.o)
 .idata$4       0x0000000068f73430        0x8 C:/mingw64/bin/../lib/gcc/x86_64-w64-mingw32/8.1.0/../../../../x86_64-w64-mingw32/lib/../lib/libuser32.a(dyqes00567.o)
 .idata$4       0x0000000068f73438        0x8 C:/mingw64/bin/../lib/gcc/x86_64-w64-mingw32/8.1.0/../../../../x86_64-w64-mingw32/lib/../lib/libuser32.a(dyqes00623.o)
 .idata$4       0x0000000068f73440        0x8 C:/mingw64/bin/../lib/gcc/x86_64-w64-mingw32/8.1.0/../../../../x86_64-w64-mingw32/lib/../lib/libuser32.a(dyqes00654.o)
 .idata$4       0x0000000068f73448        0x8 C:/mingw64/bin/../lib/gcc/x86_64-w64-mingw32/8.1.0/../../../../x86_64-w64-mingw32/lib/../lib/libuser32.a(dyqes00738.o)
 .idata$4       0x0000000068f73450        0x8 C:/mingw64/bin/../lib/gcc/x86_64-w64-mingw32/8.1.0/../../../../x86_64-w64-mingw32/lib/../lib/libuser32.a(dyqes00744.o)
 .idata$4       0x0000000068f73458        0x8 C:/mingw64/bin/../lib/gcc/x86_64-w64-mingw32/8.1.0/../../../../x86_64-w64-mingw32/lib/../lib/libuser32.a(dyqes00752.o)
 .idata$4       0x0000000068f73460        0x8 C:/mingw64/bin/../lib/gcc/x86_64-w64-mingw32/8.1.0/../../../../x86_64-w64-mingw32/lib/../lib/libuser32.a(dyqes00753.o)
 .idata$4       0x0000000068f73468        0x8 C:/mingw64/bin/../lib/gcc/x86_64-w64-mingw32/8.1.0/../../../../x86_64-w64-mingw32/lib/../lib/libuser32.a(dyqes00778.o)
 .idata$4       0x0000000068f73470        0x8 C:/mingw64/bin/../lib/gcc/x86_64-w64-mingw32/8.1.0/../../../../x86_64-w64-mingw32/lib/../lib/libuser32.a(dyqes00831.o)
 .idata$4       0x0000000068f73478        0x8 C:/mingw64/bin/../lib/gcc/x86_64-w64-mingw32/8.1.0/../../../../x86_64-w64-mingw32/lib/../lib/libuser32.a(dyqes00844.o)
 .idata$4       0x0000000068f73480        0x8 C:/mingw64/bin/../lib/gcc/x86_64-w64-mingw32/8.1.0/../../../../x86_64-w64-mingw32/lib/../lib/libuser32.a(dyqes00847.o)
 .idata$4       0x0000000068f73488        0x8 C:/mingw64/bin/../lib/gcc/x86_64-w64-mingw32/8.1.0/../../../../x86_64-w64-mingw32/lib/../lib/libuser32.a(dyqes00852.o)
 .idata$4       0x0000000068f73490        0x8 C:/mingw64/bin/../lib/gcc/x86_64-w64-mingw32/8.1.0/../../../../x86_64-w64-mingw32/lib/../lib/libuser32.a(dyqes00864.o)
 .idata$4       0x0000000068f73498        0x8 C:/mingw64/bin/../lib/gcc/x86_64-w64-mingw32/8.1.0/../../../../x86_64-w64-mingw32/lib/../lib/libuser32.a(dyqet.o)
 .idata$4       0x0000000068f734a0        0x0 C:/mingw64/bin/../lib/gcc/x86_64-w64-mingw32/8.1.0/../../../../x86_64-w64-mingw32/lib/../lib/libws2_32.a(dozfh.o)
 .idata$4       0x0000000068f734a0        0x8 C:/mingw64/bin/../lib/gcc/x86_64-w64-mingw32/8.1.0/../../../../x86_64-w64-mingw32/lib/../lib/libws2_32.a(dozfs00030.o)
 .idata$4       0x0000000068f734a8        0x8 C:/mingw64/bin/../lib/gcc/x86_64-w64-mingw32/8.1.0/../../../../x86_64-w64-mingw32/lib/../lib/libws2_32.a(dozfs00047.o)
 .idata$4       0x0000000068f734b0        0x8 C:/mingw64/bin/../lib/gcc/x86_64-w64-mingw32/8.1.0/../../../../x86_64-w64-mingw32/lib/../lib/libws2_32.a(dozfs00088.o)
 .idata$4       0x0000000068f734b8        0x8 C:/mingw64/bin/../lib/gcc/x86_64-w64-mingw32/8.1.0/../../../../x86_64-w64-mingw32/lib/../lib/libws2_32.a(dozfs00163.o)
 .idata$4       0x0000000068f734c0        0x8 C:/mingw64/bin/../lib/gcc/x86_64-w64-mingw32/8.1.0/../../../../x86_64-w64-mingw32/lib/../lib/libws2_32.a(dozfs00164.o)
 .idata$4       0x0000000068f734c8        0x8 C:/mingw64/bin/../lib/gcc/x86_64-w64-mingw32/8.1.0/../../../../x86_64-w64-mingw32/lib/../lib/libws2_32.a(dozfs00165.o)
 .idata$4       0x0000000068f734d0        0x8 C:/mingw64/bin/../lib/gcc/x86_64-w64-mingw32/8.1.0/../../../../x86_64-w64-mingw32/lib/../lib/libws2_32.a(dozfs00166.o)
 .idata$4       0x0000000068f734d8        0x8 C:/mingw64/bin/../lib/gcc/x86_64-w64-mingw32/8.1.0/../../../../x86_64-w64-mingw32/lib/../lib/libws2_32.a(dozfs00184.o)
 .idata$4       0x0000000068f734e0        0x8 C:/mingw64/bin/../lib/gcc/x86_64-w64-mingw32/8.1.0/../../../../x86_64-w64-mingw32/lib/../lib/libws2_32.a(dozfs00188.o)
 .idata$4       0x0000000068f734e8        0x8 C:/mingw64/bin/../lib/gcc/x86_64-w64-mingw32/8.1.0/../../../../x86_64-w64-mingw32/lib/../lib/libws2_32.a(dozfs00190.o)
 .idata$4       0x0000000068f734f0        0x8 C:/mingw64/bin/../lib/gcc/x86_64-w64-mingw32/8.1.0/../../../../x86_64-w64-mingw32/lib/../lib/libws2_32.a(dozfs00191.o)
 .idata$4       0x0000000068f734f8        0x8 C:/mingw64/bin/../lib/gcc/x86_64-w64-mingw32/8.1.0/../../../../x86_64-w64-mingw32/lib/../lib/libws2_32.a(dozfs00193.o)
 .idata$4       0x0000000068f73500        0x8 C:/mingw64/bin/../lib/gcc/x86_64-w64-mingw32/8.1.0/../../../../x86_64-w64-mingw32/lib/../lib/libws2_32.a(dozfs00195.o)
 .idata$4       0x0000000068f73508        0x8 C:/mingw64/bin/../lib/gcc/x86_64-w64-mingw32/8.1.0/../../../../x86_64-w64-mingw32/lib/../lib/libws2_32.a(dozft.o)
                0x0000000068f73510                __IAT_start__ = .
 SORT_BY_NAME(*)(.idata$5)
 .idata$5       0x0000000068f73510        0x0 C:/mingw64/bin/../lib/gcc/x86_64-w64-mingw32/8.1.0/../../../../x86_64-w64-mingw32/lib/../lib/libadvapi32.a(diufh.o)
 .idata$5       0x0000000068f73510        0x8 C:/mingw64/bin/../lib/gcc/x86_64-w64-mingw32/8.1.0/../../../../x86_64-w64-mingw32/lib/../lib/libadvapi32.a(diufs00146.o)
                0x0000000068f73510                __imp_CreateWellKnownSid
 .idata$5       0x0000000068f73518        0x8 C:/mingw64/bin/../lib/gcc/x86_64-w64-mingw32/8.1.0/../../../../x86_64-w64-mingw32/lib/../lib/libadvapi32.a(diufs00354.o)
                0x0000000068f73518                __imp_GetSecurityInfo
 .idata$5       0x0000000068f73520        0x8 C:/mingw64/bin/../lib/gcc/x86_64-w64-mingw32/8.1.0/../../../../x86_64-w64-mingw32/lib/../lib/libadvapi32.a(diufs00720.o)
                0x0000000068f73520                __imp_SetEntriesInAclW
 .idata$5       0x0000000068f73528        0x8 C:/mingw64/bin/../lib/gcc/x86_64-w64-mingw32/8.1.0/../../../../x86_64-w64-mingw32/lib/../lib/libadvapi32.a(diufs00741.o)
                0x0000000068f73528                __imp_SetSecurityInfo
 .idata$5       0x0000000068f73530        0x8 C:/mingw64/bin/../lib/gcc/x86_64-w64-mingw32/8.1.0/../../../../x86_64-w64-mingw32/lib/../lib/libadvapi32.a(diuft.o)
 .idata$5       0x0000000068f73538        0x0 C:/mingw64/bin/../lib/gcc/x86_64-w64-mingw32/8.1.0/../../../../x86_64-w64-mingw32/lib/../lib/libkernel32.a(dqifh.o)
 .idata$5       0x0000000068f73538        0x8 C:/mingw64/bin/../lib/gcc/x86_64-w64-mingw32/8.1.0/../../../../x86_64-w64-mingw32/lib/../lib/libkernel32.a(dqifs00109.o)
                0x0000000068f73538                __imp_CancelIo
 .idata$5       0x0000000068f73540        0x8 C:/mingw64/bin/../lib/gcc/x86_64-w64-mingw32/8.1.0/../../../../x86_64-w64-mingw32/lib/../lib/libkernel32.a(dqifs00130.o)
                0x0000000068f73540                __imp_CloseHandle
 .idata$5       0x0000000068f73548        0x8 C:/mingw64/bin/../lib/gcc/x86_64-w64-mingw32/8.1.0/../../../../x86_64-w64-mingw32/lib/../lib/libkernel32.a(dqifs00151.o)
                0x0000000068f73548                __imp_ConnectNamedPipe
 .idata$5       0x0000000068f73550        0x8 C:/mingw64/bin/../lib/gcc/x86_64-w64-mingw32/8.1.0/../../../../x86_64-w64-mingw32/lib/../lib/libkernel32.a(dqifs00183.o)
                0x0000000068f73550                __imp_CreateDirectoryW
 .idata$5       0x0000000068f73558        0x8 C:/mingw64/bin/../lib/gcc/x86_64-w64-mingw32/8.1.0/../../../../x86_64-w64-mingw32/lib/../lib/libkernel32.a(dqifs00187.o)
                0x0000000068f73558                __imp_CreateEventW
 .idata$5       0x0000000068f73560        0x8 C:/mingw64/bin/../lib/gcc/x86_64-w64-mingw32/8.1.0/../../../../x86_64-w64-mingw32/lib/../lib/libkernel32.a(dqifs00199.o)
                0x0000000068f73560                __imp_CreateFileW
 .idata$5       0x0000000068f73568        0x8 C:/mingw64/bin/../lib/gcc/x86_64-w64-mingw32/8.1.0/../../../../x86_64-w64-mingw32/lib/../lib/libkernel32.a(dqifs00216.o)
                0x0000000068f73568                __imp_CreateNamedPipeW
 .idata$5       0x0000000068f73570        0x8 C:/mingw64/bin/../lib/gcc/x86_64-w64-mingw32/8.1.0/../../../../x86_64-w64-mingw32/lib/../lib/libkernel32.a(dqifs00231.o)
                0x0000000068f73570                __imp_CreateSemaphoreW
 .idata$5       0x0000000068f73578        0x8 C:/mingw64/bin/../lib/gcc/x86_64-w64-mingw32/8.1.0/../../../../x86_64-w64-mingw32/lib/../lib/libkernel32.a(dqifs00268.o)
                0x0000000068f73578                __imp_DeleteCriticalSection
 .idata$5       0x0000000068f73580        0x8 C:/mingw64/bin/../lib/gcc/x86_64-w64-mingw32/8.1.0/../../../../x86_64-w64-mingw32/lib/../lib/libkernel32.a(dqifs00289.o)
                0x0000000068f73580                __imp_DisconnectNamedPipe
 .idata$5       0x0000000068f73588        0x8 C:/mingw64/bin/../lib/gcc/x86_64-w64-mingw32/8.1.0/../../../../x86_64-w64-mingw32/lib/../lib/libkernel32.a(dqifs00304.o)
                0x0000000068f73588                __imp_EnterCriticalSection
 .idata$5       0x0000000068f73590        0x8 C:/mingw64/bin/../lib/gcc/x86_64-w64-mingw32/8.1.0/../../../../x86_64-w64-mingw32/lib/../lib/libkernel32.a(dqifs00373.o)
                0x0000000068f73590                __imp_FindClose
 .idata$5       0x0000000068f73598        0x8 C:/mingw64/bin/../lib/gcc/x86_64-w64-mingw32/8.1.0/../../../../x86_64-w64-mingw32/lib/../lib/libkernel32.a(dqifs00384.o)
                0x0000000068f73598                __imp_FindFirstFileW
 .idata$5       0x0000000068f735a0        0x8 C:/mingw64/bin/../lib/gcc/x86_64-w64-mingw32/8.1.0/../../../../x86_64-w64-mingw32/lib/../lib/libkernel32.a(dqifs00396.o)
                0x0000000068f735a0                __imp_FindNextFileW
 .idata$5       0x0000000068f735a8        0x8 C:/mingw64/bin/../lib/gcc/x86_64-w64-mingw32/8.1.0/../../../../x86_64-w64-mingw32/lib/../lib/libkernel32.a(dqifs00415.o)
                0x0000000068f735a8                __imp_FlushFileBuffers
 .idata$5       0x0000000068f735b0        0x8 C:/mingw64/bin/../lib/gcc/x86_64-w64-mingw32/8.1.0/../../../../x86_64-w64-mingw32/lib/../lib/libkernel32.a(dqifs00535.o)
                0x0000000068f735b0                __imp_GetCurrentProcess
 .idata$5       0x0000000068f735b8        0x8 C:/mingw64/bin/../lib/gcc/x86_64-w64-mingw32/8.1.0/../../../../x86_64-w64-mingw32/lib/../lib/libkernel32.a(dqifs00536.o)
                0x0000000068f735b8                __imp_GetCurrentProcessId
 .idata$5       0x0000000068f735c0        0x8 C:/mingw64/bin/../lib/gcc/x86_64-w64-mingw32/8.1.0/../../../../x86_64-w64-mingw32/lib/../lib/libkernel32.a(dqifs00540.o)
                0x0000000068f735c0                __imp_GetCurrentThreadId
 .idata$5       0x0000000068f735c8        0x8 C:/mingw64/bin/../lib/gcc/x86_64-w64-mingw32/8.1.0/../../../../x86_64-w64-mingw32/lib/../lib/libkernel32.a(dqifs00554.o)
                0x0000000068f735c8                __imp_GetDiskFreeSpaceExW
 .idata$5       0x0000000068f735d0        0x8 C:/mingw64/bin/../lib/gcc/x86_64-w64-mingw32/8.1.0/../../../../x86_64-w64-mingw32/lib/../lib/libkernel32.a(dqifs00583.o)
                0x0000000068f735d0                __imp_GetFileAttributesW
 .idata$5       0x0000000068f735d8        0x8 C:/mingw64/bin/../lib/gcc/x86_64-w64-mingw32/8.1.0/../../../../x86_64-w64-mingw32/lib/../lib/libkernel32.a(dqifs00609.o)
                0x0000000068f735d8                __imp_GetLastError
 .idata$5       0x0000000068f735e0        0x8 C:/mingw64/bin/../lib/gcc/x86_64-w64-mingw32/8.1.0/../../../../x86_64-w64-mingw32/lib/../lib/libkernel32.a(dqifs00629.o)
                0x0000000068f735e0                __imp_GetModuleFileNameW
 .idata$5       0x0000000068f735e8        0x8 C:/mingw64/bin/../lib/gcc/x86_64-w64-mingw32/8.1.0/../../../../x86_64-w64-mingw32/lib/../lib/libkernel32.a(dqifs00633.o)
                0x0000000068f735e8                __imp_GetModuleHandleW
 .idata$5       0x0000000068f735f0        0x8 C:/mingw64/bin/../lib/gcc/x86_64-w64-mingw32/8.1.0/../../../../x86_64-w64-mingw32/lib/../lib/libkernel32.a(dqifs00680.o)
                0x0000000068f735f0                __imp_GetPrivateProfileIntW
 .idata$5       0x0000000068f735f8        0x8 C:/mingw64/bin/../lib/gcc/x86_64-w64-mingw32/8.1.0/../../../../x86_64-w64-mingw32/lib/../lib/libkernel32.a(dqifs00686.o)
                0x0000000068f735f8                __imp_GetPrivateProfileStringW
 .idata$5       0x0000000068f73600        0x8 C:/mingw64/bin/../lib/gcc/x86_64-w64-mingw32/8.1.0/../../../../x86_64-w64-mingw32/lib/../lib/libkernel32.a(dqifs00689.o)
                0x0000000068f73600                __imp_GetProcAddress
 .idata$5       0x0000000068f73608        0x8 C:/mingw64/bin/../lib/gcc/x86_64-w64-mingw32/8.1.0/../../../../x86_64-w64-mingw32/lib/../lib/libkernel32.a(dqifs00746.o)
                0x0000000068f73608                __imp_GetSystemTimeAsFileTime
 .idata$5       0x0000000068f73610        0x8 C:/mingw64/bin/../lib/gcc/x86_64-w64-mingw32/8.1.0/../../../../x86_64-w64-mingw32/lib/../lib/libkernel32.a(dqifs00774.o)
                0x0000000068f73610                __imp_GetTickCount
 .idata$5       0x0000000068f73618        0x8 C:/mingw64/bin/../lib/gcc/x86_64-w64-mingw32/8.1.0/../../../../x86_64-w64-mingw32/lib/../lib/libkernel32.a(dqifs00799.o)
                0x0000000068f73618                __imp_GetVolumeNameForVolumeMountPointW
 .idata$5       0x0000000068f73620        0x8 C:/mingw64/bin/../lib/gcc/x86_64-w64-mingw32/8.1.0/../../../../x86_64-w64-mingw32/lib/../lib/libkernel32.a(dqifs00801.o)
                0x0000000068f73620                __imp_GetVolumePathNameW
 .idata$5       0x0000000068f73628        0x8 C:/mingw64/bin/../lib/gcc/x86_64-w64-mingw32/8.1.0/../../../../x86_64-w64-mingw32/lib/../lib/libkernel32.a(dqifs00863.o)
                0x0000000068f73628                __imp_InitializeCriticalSection
 .idata$5       0x0000000068f73630        0x8 C:/mingw64/bin/../lib/gcc/x86_64-w64-mingw32/8.1.0/../../../../x86_64-w64-mingw32/lib/../lib/libkernel32.a(dqifs00951.o)
                0x0000000068f73630                __imp_LeaveCriticalSection
 .idata$5       0x0000000068f73638        0x8 C:/mingw64/bin/../lib/gcc/x86_64-w64-mingw32/8.1.0/../../../../x86_64-w64-mingw32/lib/../lib/libkernel32.a(dqifs00967.o)
                0x0000000068f73638                __imp_LocalFree
 .idata$5       0x0000000068f73640        0x8 C:/mingw64/bin/../lib/gcc/x86_64-w64-mingw32/8.1.0/../../../../x86_64-w64-mingw32/lib/../lib/libkernel32.a(dqifs00999.o)
                0x0000000068f73640                __imp_MultiByteToWideChar
 .idata$5       0x0000000068f73648        0x8 C:/mingw64/bin/../lib/gcc/x86_64-w64-mingw32/8.1.0/../../../../x86_64-w64-mingw32/lib/../lib/libkernel32.a(dqifs01020.o)
                0x0000000068f73648                __imp_OpenEventW
 .idata$5       0x0000000068f73650        0x8 C:/mingw64/bin/../lib/gcc/x86_64-w64-mingw32/8.1.0/../../../../x86_64-w64-mingw32/lib/../lib/libkernel32.a(dqifs01042.o)
                0x0000000068f73650                __imp_OutputDebugStringW
 .idata$5       0x0000000068f73658        0x8 C:/mingw64/bin/../lib/gcc/x86_64-w64-mingw32/8.1.0/../../../../x86_64-w64-mingw32/lib/../lib/libkernel32.a(dqifs01093.o)
                0x0000000068f73658                __imp_QueryPerformanceCounter
 .idata$5       0x0000000068f73660        0x8 C:/mingw64/bin/../lib/gcc/x86_64-w64-mingw32/8.1.0/../../../../x86_64-w64-mingw32/lib/../lib/libkernel32.a(dqifs01112.o)
                0x0000000068f73660                __imp_RaiseException
 .idata$5       0x0000000068f73668        0x8 C:/mingw64/bin/../lib/gcc/x86_64-w64-mingw32/8.1.0/../../../../x86_64-w64-mingw32/lib/../lib/libkernel32.a(dqifs01128.o)
                0x0000000068f73668                __imp_ReadFile
 .idata$5       0x0000000068f73670        0x8 C:/mingw64/bin/../lib/gcc/x86_64-w64-mingw32/8.1.0/../../../../x86_64-w64-mingw32/lib/../lib/libkernel32.a(dqifs01154.o)
                0x0000000068f73670                __imp_ReleaseSemaphore
 .idata$5       0x0000000068f73678        0x8 C:/mingw64/bin/../lib/gcc/x86_64-w64-mingw32/8.1.0/../../../../x86_64-w64-mingw32/lib/../lib/libkernel32.a(dqifs01172.o)
                0x0000000068f73678                __imp_ResetEvent
 .idata$5       0x0000000068f73680        0x8 C:/mingw64/bin/../lib/gcc/x86_64-w64-mingw32/8.1.0/../../../../x86_64-w64-mingw32/lib/../lib/libkernel32.a(dqifs01179.o)
                0x0000000068f73680                __imp_RtlAddFunctionTable
 .idata$5       0x0000000068f73688        0x8 C:/mingw64/bin/../lib/gcc/x86_64-w64-mingw32/8.1.0/../../../../x86_64-w64-mingw32/lib/../lib/libkernel32.a(dqifs01180.o)
                0x0000000068f73688                __imp_RtlCaptureContext
 .idata$5       0x0000000068f73690        0x8 C:/mingw64/bin/../lib/gcc/x86_64-w64-mingw32/8.1.0/../../../../x86_64-w64-mingw32/lib/../lib/libkernel32.a(dqifs01187.o)
                0x0000000068f73690                __imp_RtlLookupFunctionEntry
 .idata$5       0x0000000068f73698        0x8 C:/mingw64/bin/../lib/gcc/x86_64-w64-mingw32/8.1.0/../../../../x86_64-w64-mingw32/lib/../lib/libkernel32.a(dqifs01193.o)
                0x0000000068f73698                __imp_RtlUnwindEx
 .idata$5       0x0000000068f736a0        0x8 C:/mingw64/bin/../lib/gcc/x86_64-w64-mingw32/8.1.0/../../../../x86_64-w64-mingw32/lib/../lib/libkernel32.a(dqifs01194.o)
                0x0000000068f736a0                __imp_RtlVirtualUnwind
 .idata$5       0x0000000068f736a8        0x8 C:/mingw64/bin/../lib/gcc/x86_64-w64-mingw32/8.1.0/../../../../x86_64-w64-mingw32/lib/../lib/libkernel32.a(dqifs01263.o)
                0x0000000068f736a8                __imp_SetEvent
 .idata$5       0x0000000068f736b0        0x8 C:/mingw64/bin/../lib/gcc/x86_64-w64-mingw32/8.1.0/../../../../x86_64-w64-mingw32/lib/../lib/libkernel32.a(dqifs01290.o)
                0x0000000068f736b0                __imp_SetLastError
 .idata$5       0x0000000068f736b8        0x8 C:/mingw64/bin/../lib/gcc/x86_64-w64-mingw32/8.1.0/../../../../x86_64-w64-mingw32/lib/../lib/libkernel32.a(dqifs01346.o)
                0x0000000068f736b8                __imp_SetUnhandledExceptionFilter
 .idata$5       0x0000000068f736c0        0x8 C:/mingw64/bin/../lib/gcc/x86_64-w64-mingw32/8.1.0/../../../../x86_64-w64-mingw32/lib/../lib/libkernel32.a(dqifs01360.o)
                0x0000000068f736c0                __imp_Sleep
 .idata$5       0x0000000068f736c8        0x8 C:/mingw64/bin/../lib/gcc/x86_64-w64-mingw32/8.1.0/../../../../x86_64-w64-mingw32/lib/../lib/libkernel32.a(dqifs01375.o)
                0x0000000068f736c8                __imp_TerminateProcess
 .idata$5       0x0000000068f736d0        0x8 C:/mingw64/bin/../lib/gcc/x86_64-w64-mingw32/8.1.0/../../../../x86_64-w64-mingw32/lib/../lib/libkernel32.a(dqifs01393.o)
                0x0000000068f736d0                __imp_TlsAlloc
 .idata$5       0x0000000068f736d8        0x8 C:/mingw64/bin/../lib/gcc/x86_64-w64-mingw32/8.1.0/../../../../x86_64-w64-mingw32/lib/../lib/libkernel32.a(dqifs01394.o)
                0x0000000068f736d8                __imp_TlsFree
 .idata$5       0x0000000068f736e0        0x8 C:/mingw64/bin/../lib/gcc/x86_64-w64-mingw32/8.1.0/../../../../x86_64-w64-mingw32/lib/../lib/libkernel32.a(dqifs01395.o)
                0x0000000068f736e0                __imp_TlsGetValue
 .idata$5       0x0000000068f736e8        0x8 C:/mingw64/bin/../lib/gcc/x86_64-w64-mingw32/8.1.0/../../../../x86_64-w64-mingw32/lib/../lib/libkernel32.a(dqifs01396.o)
                0x0000000068f736e8                __imp_TlsSetValue
 .idata$5       0x0000000068f736f0        0x8 C:/mingw64/bin/../lib/gcc/x86_64-w64-mingw32/8.1.0/../../../../x86_64-w64-mingw32/lib/../lib/libkernel32.a(dqifs01409.o)
                0x0000000068f736f0                __imp_UnhandledExceptionFilter
 .idata$5       0x0000000068f736f8        0x8 C:/mingw64/bin/../lib/gcc/x86_64-w64-mingw32/8.1.0/../../../../x86_64-w64-mingw32/lib/../lib/libkernel32.a(dqifs01443.o)
                0x0000000068f736f8                __imp_VirtualProtect
 .idata$5       0x0000000068f73700        0x8 C:/mingw64/bin/../lib/gcc/x86_64-w64-mingw32/8.1.0/../../../../x86_64-w64-mingw32/lib/../lib/libkernel32.a(dqifs01445.o)
                0x0000000068f73700                __imp_VirtualQuery
 .idata$5       0x0000000068f73708        0x8 C:/mingw64/bin/../lib/gcc/x86_64-w64-mingw32/8.1.0/../../../../x86_64-w64-mingw32/lib/../lib/libkernel32.a(dqifs01451.o)
                0x0000000068f73708                __imp_WaitForMultipleObjects
 .idata$5       0x0000000068f73710        0x8 C:/mingw64/bin/../lib/gcc/x86_64-w64-mingw32/8.1.0/../../../../x86_64-w64-mingw32/lib/../lib/libkernel32.a(dqifs01453.o)
                0x0000000068f73710                __imp_WaitForSingleObject
 .idata$5       0x0000000068f73718        0x8 C:/mingw64/bin/../lib/gcc/x86_64-w64-mingw32/8.1.0/../../../../x86_64-w64-mingw32/lib/../lib/libkernel32.a(dqifs01490.o)
                0x0000000068f73718                __imp_WideCharToMultiByte
 .idata$5       0x0000000068f73720        0x8 C:/mingw64/bin/../lib/gcc/x86_64-w64-mingw32/8.1.0/../../../../x86_64-w64-mingw32/lib/../lib/libkernel32.a(dqifs01510.o)
                0x0000000068f73720                __imp_WriteFile
 .idata$5       0x0000000068f73728        0x8 C:/mingw64/bin/../lib/gcc/x86_64-w64-mingw32/8.1.0/../../../../x86_64-w64-mingw32/lib/../lib/libkernel32.a(dqifs01516.o)
                0x0000000068f73728                __imp_WritePrivateProfileStringW
 .idata$5       0x0000000068f73730        0x8 C:/mingw64/bin/../lib/gcc/x86_64-w64-mingw32/8.1.0/../../../../x86_64-w64-mingw32/lib/../lib/libkernel32.a(dqift.o)
 .idata$5       0x0000000068f73738        0x0 C:/mingw64/bin/../lib/gcc/x86_64-w64-mingw32/8.1.0/../../../../x86_64-w64-mingw32/lib/../lib/libmsvcrt.a(duagh.o)
 .idata$5       0x0000000068f73738        0x8 C:/mingw64/bin/../lib/gcc/x86_64-w64-mingw32/8.1.0/../../../../x86_64-w64-mingw32/lib/../lib/libmsvcrt.a(duags00083.o)
                0x0000000068f73738                __imp___iob_func
 .idata$5       0x0000000068f73740        0x8 C:/mingw64/bin/../lib/gcc/x86_64-w64-mingw32/8.1.0/../../../../x86_64-w64-mingw32/lib/../lib/libmsvcrt.a(duags00122.o)
                0x0000000068f73740                __imp__amsg_exit
 .idata$5       0x0000000068f73748        0x8 C:/mingw64/bin/../lib/gcc/x86_64-w64-mingw32/8.1.0/../../../../x86_64-w64-mingw32/lib/../lib/libmsvcrt.a(duags00137.o)
                0x0000000068f73748                __imp__beginthreadex
 .idata$5       0x0000000068f73750        0x8 C:/mingw64/bin/../lib/gcc/x86_64-w64-mingw32/8.1.0/../../../../x86_64-w64-mingw32/lib/../lib/libmsvcrt.a(duags00155.o)
                0x0000000068f73750                __imp__close
 .idata$5       0x0000000068f73758        0x8 C:/mingw64/bin/../lib/gcc/x86_64-w64-mingw32/8.1.0/../../../../x86_64-w64-mingw32/lib/../lib/libmsvcrt.a(duags00332.o)
                0x0000000068f73758                __imp__initterm
 .idata$5       0x0000000068f73760        0x8 C:/mingw64/bin/../lib/gcc/x86_64-w64-mingw32/8.1.0/../../../../x86_64-w64-mingw32/lib/../lib/libmsvcrt.a(duags00441.o)
                0x0000000068f73760                __imp__lock
 .idata$5       0x0000000068f73768        0x8 C:/mingw64/bin/../lib/gcc/x86_64-w64-mingw32/8.1.0/../../../../x86_64-w64-mingw32/lib/../lib/libmsvcrt.a(duags00617.o)
                0x0000000068f73768                __imp__open_osfhandle
 .idata$5       0x0000000068f73770        0x8 C:/mingw64/bin/../lib/gcc/x86_64-w64-mingw32/8.1.0/../../../../x86_64-w64-mingw32/lib/../lib/libmsvcrt.a(duags00821.o)
                0x0000000068f73770                __imp__unlock
 .idata$5       0x0000000068f73778        0x8 C:/mingw64/bin/../lib/gcc/x86_64-w64-mingw32/8.1.0/../../../../x86_64-w64-mingw32/lib/../lib/libmsvcrt.a(duags00852.o)
                0x0000000068f73778                __imp__vsnprintf
 .idata$5       0x0000000068f73780        0x8 C:/mingw64/bin/../lib/gcc/x86_64-w64-mingw32/8.1.0/../../../../x86_64-w64-mingw32/lib/../lib/libmsvcrt.a(duags00861.o)
                0x0000000068f73780                __imp__vsnwprintf_s
 .idata$5       0x0000000068f73788        0x8 C:/mingw64/bin/../lib/gcc/x86_64-w64-mingw32/8.1.0/../../../../x86_64-w64-mingw32/lib/../lib/libmsvcrt.a(duags00945.o)
                0x0000000068f73788                __imp__wfdopen
 .idata$5       0x0000000068f73790        0x8 C:/mingw64/bin/../lib/gcc/x86_64-w64-mingw32/8.1.0/../../../../x86_64-w64-mingw32/lib/../lib/libmsvcrt.a(duags00986.o)
                0x0000000068f73790                __imp_write
 .idata$5       0x0000000068f73798        0x8 C:/mingw64/bin/../lib/gcc/x86_64-w64-mingw32/8.1.0/../../../../x86_64-w64-mingw32/lib/../lib/libmsvcrt.a(duags01032.o)
                0x0000000068f73798                __imp_abort
 .idata$5       0x0000000068f737a0        0x8 C:/mingw64/bin/../lib/gcc/x86_64-w64-mingw32/8.1.0/../../../../x86_64-w64-mingw32/lib/../lib/libmsvcrt.a(duags01050.o)
                0x0000000068f737a0                __imp_calloc
 .idata$5       0x0000000068f737a8        0x8 C:/mingw64/bin/../lib/gcc/x86_64-w64-mingw32/8.1.0/../../../../x86_64-w64-mingw32/lib/../lib/libmsvcrt.a(duags01067.o)
                0x0000000068f737a8                __imp_fclose
 .idata$5       0x0000000068f737b0        0x8 C:/mingw64/bin/../lib/gcc/x86_64-w64-mingw32/8.1.0/../../../../x86_64-w64-mingw32/lib/../lib/libmsvcrt.a(duags01080.o)
                0x0000000068f737b0                __imp_fopen
 .idata$5       0x0000000068f737b8        0x8 C:/mingw64/bin/../lib/gcc/x86_64-w64-mingw32/8.1.0/../../../../x86_64-w64-mingw32/lib/../lib/libmsvcrt.a(duags01084.o)
                0x0000000068f737b8                __imp_fputc
 .idata$5       0x0000000068f737c0        0x8 C:/mingw64/bin/../lib/gcc/x86_64-w64-mingw32/8.1.0/../../../../x86_64-w64-mingw32/lib/../lib/libmsvcrt.a(duags01085.o)
                0x0000000068f737c0                __imp_fputs
 .idata$5       0x0000000068f737c8        0x8 C:/mingw64/bin/../lib/gcc/x86_64-w64-mingw32/8.1.0/../../../../x86_64-w64-mingw32/lib/../lib/libmsvcrt.a(duags01086.o)
                0x0000000068f737c8                __imp_fputwc
 .idata$5       0x0000000068f737d0        0x8 C:/mingw64/bin/../lib/gcc/x86_64-w64-mingw32/8.1.0/../../../../x86_64-w64-mingw32/lib/../lib/libmsvcrt.a(duags01089.o)
                0x0000000068f737d0                __imp_free
 .idata$5       0x0000000068f737d8        0x8 C:/mingw64/bin/../lib/gcc/x86_64-w64-mingw32/8.1.0/../../../../x86_64-w64-mingw32/lib/../lib/libmsvcrt.a(duags01101.o)
                0x0000000068f737d8                __imp_fwrite
 .idata$5       0x0000000068f737e0        0x8 C:/mingw64/bin/../lib/gcc/x86_64-w64-mingw32/8.1.0/../../../../x86_64-w64-mingw32/lib/../lib/libmsvcrt.a(duags01149.o)
                0x0000000068f737e0                __imp_malloc
 .idata$5       0x0000000068f737e8        0x8 C:/mingw64/bin/../lib/gcc/x86_64-w64-mingw32/8.1.0/../../../../x86_64-w64-mingw32/lib/../lib/libmsvcrt.a(duags01155.o)
                0x0000000068f737e8                __imp_memchr
 .idata$5       0x0000000068f737f0        0x8 C:/mingw64/bin/../lib/gcc/x86_64-w64-mingw32/8.1.0/../../../../x86_64-w64-mingw32/lib/../lib/libmsvcrt.a(duags01156.o)
                0x0000000068f737f0                __imp_memcmp
 .idata$5       0x0000000068f737f8        0x8 C:/mingw64/bin/../lib/gcc/x86_64-w64-mingw32/8.1.0/../../../../x86_64-w64-mingw32/lib/../lib/libmsvcrt.a(duags01157.o)
                0x0000000068f737f8                __imp_memcpy
 .idata$5       0x0000000068f73800        0x8 C:/mingw64/bin/../lib/gcc/x86_64-w64-mingw32/8.1.0/../../../../x86_64-w64-mingw32/lib/../lib/libmsvcrt.a(duags01158.o)
                0x0000000068f73800                __imp_memmove
 .idata$5       0x0000000068f73808        0x8 C:/mingw64/bin/../lib/gcc/x86_64-w64-mingw32/8.1.0/../../../../x86_64-w64-mingw32/lib/../lib/libmsvcrt.a(duags01159.o)
                0x0000000068f73808                __imp_memset
 .idata$5       0x0000000068f73810        0x8 C:/mingw64/bin/../lib/gcc/x86_64-w64-mingw32/8.1.0/../../../../x86_64-w64-mingw32/lib/../lib/libmsvcrt.a(duags01177.o)
                0x0000000068f73810                __imp_realloc
 .idata$5       0x0000000068f73818        0x8 C:/mingw64/bin/../lib/gcc/x86_64-w64-mingw32/8.1.0/../../../../x86_64-w64-mingw32/lib/../lib/libmsvcrt.a(duags01186.o)
                0x0000000068f73818                __imp_setvbuf
 .idata$5       0x0000000068f73820        0x8 C:/mingw64/bin/../lib/gcc/x86_64-w64-mingw32/8.1.0/../../../../x86_64-w64-mingw32/lib/../lib/libmsvcrt.a(duags01187.o)
                0x0000000068f73820                __imp_signal
 .idata$5       0x0000000068f73828        0x8 C:/mingw64/bin/../lib/gcc/x86_64-w64-mingw32/8.1.0/../../../../x86_64-w64-mingw32/lib/../lib/libmsvcrt.a(duags01192.o)
                0x0000000068f73828                __imp_sprintf
 .idata$5       0x0000000068f73830        0x8 C:/mingw64/bin/../lib/gcc/x86_64-w64-mingw32/8.1.0/../../../../x86_64-w64-mingw32/lib/../lib/libmsvcrt.a(duags01201.o)
                0x0000000068f73830                __imp_strcmp
 .idata$5       0x0000000068f73838        0x8 C:/mingw64/bin/../lib/gcc/x86_64-w64-mingw32/8.1.0/../../../../x86_64-w64-mingw32/lib/../lib/libmsvcrt.a(duags01208.o)
                0x0000000068f73838                __imp_strlen
 .idata$5       0x0000000068f73840        0x8 C:/mingw64/bin/../lib/gcc/x86_64-w64-mingw32/8.1.0/../../../../x86_64-w64-mingw32/lib/../lib/libmsvcrt.a(duags01211.o)
                0x0000000068f73840                __imp_strncmp
 .idata$5       0x0000000068f73848        0x8 C:/mingw64/bin/../lib/gcc/x86_64-w64-mingw32/8.1.0/../../../../x86_64-w64-mingw32/lib/../lib/libmsvcrt.a(duags01223.o)
                0x0000000068f73848                __imp_strtoul
 .idata$5       0x0000000068f73850        0x8 C:/mingw64/bin/../lib/gcc/x86_64-w64-mingw32/8.1.0/../../../../x86_64-w64-mingw32/lib/../lib/libmsvcrt.a(duags01243.o)
                0x0000000068f73850                __imp_vfprintf
 .idata$5       0x0000000068f73858        0x8 C:/mingw64/bin/../lib/gcc/x86_64-w64-mingw32/8.1.0/../../../../x86_64-w64-mingw32/lib/../lib/libmsvcrt.a(duags01251.o)
                0x0000000068f73858                __imp_vswprintf_s
 .idata$5       0x0000000068f73860        0x8 C:/mingw64/bin/../lib/gcc/x86_64-w64-mingw32/8.1.0/../../../../x86_64-w64-mingw32/lib/../lib/libmsvcrt.a(duags01257.o)
                0x0000000068f73860                __imp_wcschr
 .idata$5       0x0000000068f73868        0x8 C:/mingw64/bin/../lib/gcc/x86_64-w64-mingw32/8.1.0/../../../../x86_64-w64-mingw32/lib/../lib/libmsvcrt.a(duags01264.o)
                0x0000000068f73868                __imp_wcslen
 .idata$5       0x0000000068f73870        0x8 C:/mingw64/bin/../lib/gcc/x86_64-w64-mingw32/8.1.0/../../../../x86_64-w64-mingw32/lib/../lib/libmsvcrt.a(duagt.o)
 .idata$5       0x0000000068f73878        0x0 C:/mingw64/bin/../lib/gcc/x86_64-w64-mingw32/8.1.0/../../../../x86_64-w64-mingw32/lib/../lib/libuser32.a(dyqeh.o)
 .idata$5       0x0000000068f73878        0x8 C:/mingw64/bin/../lib/gcc/x86_64-w64-mingw32/8.1.0/../../../../x86_64-w64-mingw32/lib/../lib/libuser32.a(dyqes00104.o)
                0x0000000068f73878                __imp_CreateDialogParamW
 .idata$5       0x0000000068f73880        0x8 C:/mingw64/bin/../lib/gcc/x86_64-w64-mingw32/8.1.0/../../../../x86_64-w64-mingw32/lib/../lib/libuser32.a(dyqes00176.o)
                0x0000000068f73880                __imp_DestroyWindow
 .idata$5       0x0000000068f73888        0x8 C:/mingw64/bin/../lib/gcc/x86_64-w64-mingw32/8.1.0/../../../../x86_64-w64-mingw32/lib/../lib/libuser32.a(dyqes00235.o)
                0x0000000068f73888                __imp_EnableWindow
 .idata$5       0x0000000068f73890        0x8 C:/mingw64/bin/../lib/gcc/x86_64-w64-mingw32/8.1.0/../../../../x86_64-w64-mingw32/lib/../lib/libuser32.a(dyqes00303.o)
                0x0000000068f73890                __imp_GetClientRect
 .idata$5       0x0000000068f73898        0x8 C:/mingw64/bin/../lib/gcc/x86_64-w64-mingw32/8.1.0/../../../../x86_64-w64-mingw32/lib/../lib/libuser32.a(dyqes00317.o)
                0x0000000068f73898                __imp_GetCursorPos
 .idata$5       0x0000000068f738a0        0x8 C:/mingw64/bin/../lib/gcc/x86_64-w64-mingw32/8.1.0/../../../../x86_64-w64-mingw32/lib/../lib/libuser32.a(dyqes00326.o)
                0x0000000068f738a0                __imp_GetDlgItem
 .idata$5       0x0000000068f738a8        0x8 C:/mingw64/bin/../lib/gcc/x86_64-w64-mingw32/8.1.0/../../../../x86_64-w64-mingw32/lib/../lib/libuser32.a(dyqes00385.o)
                0x0000000068f738a8                __imp_GetMonitorInfoW
 .idata$5       0x0000000068f738b0        0x8 C:/mingw64/bin/../lib/gcc/x86_64-w64-mingw32/8.1.0/../../../../x86_64-w64-mingw32/lib/../lib/libuser32.a(dyqes00470.o)
                0x0000000068f738b0                __imp_GetWindowLongPtrW
 .idata$5       0x0000000068f738b8        0x8 C:/mingw64/bin/../lib/gcc/x86_64-w64-mingw32/8.1.0/../../../../x86_64-w64-mingw32/lib/../lib/libuser32.a(dyqes00476.o)
                0x0000000068f738b8                __imp_GetWindowPlacement
 .idata$5       0x0000000068f738c0        0x8 C:/mingw64/bin/../lib/gcc/x86_64-w64-mingw32/8.1.0/../../../../x86_64-w64-mingw32/lib/../lib/libuser32.a(dyqes00477.o)
                0x0000000068f738c0                __imp_GetWindowRect
 .idata$5       0x0000000068f738c8        0x8 C:/mingw64/bin/../lib/gcc/x86_64-w64-mingw32/8.1.0/../../../../x86_64-w64-mingw32/lib/../lib/libuser32.a(dyqes00567.o)
                0x0000000068f738c8                __imp_KillTimer
 .idata$5       0x0000000068f738d0        0x8 C:/mingw64/bin/../lib/gcc/x86_64-w64-mingw32/8.1.0/../../../../x86_64-w64-mingw32/lib/../lib/libuser32.a(dyqes00623.o)
                0x0000000068f738d0                __imp_MonitorFromRect
 .idata$5       0x0000000068f738d8        0x8 C:/mingw64/bin/../lib/gcc/x86_64-w64-mingw32/8.1.0/../../../../x86_64-w64-mingw32/lib/../lib/libuser32.a(dyqes00654.o)
                0x0000000068f738d8                __imp_PostMessageW
 .idata$5       0x0000000068f738e0        0x8 C:/mingw64/bin/../lib/gcc/x86_64-w64-mingw32/8.1.0/../../../../x86_64-w64-mingw32/lib/../lib/libuser32.a(dyqes00738.o)
                0x0000000068f738e0                __imp_ScreenToClient
 .idata$5       0x0000000068f738e8        0x8 C:/mingw64/bin/../lib/gcc/x86_64-w64-mingw32/8.1.0/../../../../x86_64-w64-mingw32/lib/../lib/libuser32.a(dyqes00744.o)
                0x0000000068f738e8                __imp_SendDlgItemMessageW
 .idata$5       0x0000000068f738f0        0x8 C:/mingw64/bin/../lib/gcc/x86_64-w64-mingw32/8.1.0/../../../../x86_64-w64-mingw32/lib/../lib/libuser32.a(dyqes00752.o)
                0x0000000068f738f0                __imp_SendMessageTimeoutW
 .idata$5       0x0000000068f738f8        0x8 C:/mingw64/bin/../lib/gcc/x86_64-w64-mingw32/8.1.0/../../../../x86_64-w64-mingw32/lib/../lib/libuser32.a(dyqes00753.o)
                0x0000000068f738f8                __imp_SendMessageW
 .idata$5       0x0000000068f73900        0x8 C:/mingw64/bin/../lib/gcc/x86_64-w64-mingw32/8.1.0/../../../../x86_64-w64-mingw32/lib/../lib/libuser32.a(dyqes00778.o)
                0x0000000068f73900                __imp_SetDlgItemTextW
 .idata$5       0x0000000068f73908        0x8 C:/mingw64/bin/../lib/gcc/x86_64-w64-mingw32/8.1.0/../../../../x86_64-w64-mingw32/lib/../lib/libuser32.a(dyqes00831.o)
                0x0000000068f73908                __imp_SetTimer
 .idata$5       0x0000000068f73910        0x8 C:/mingw64/bin/../lib/gcc/x86_64-w64-mingw32/8.1.0/../../../../x86_64-w64-mingw32/lib/../lib/libuser32.a(dyqes00844.o)
                0x0000000068f73910                __imp_SetWindowLongPtrW
 .idata$5       0x0000000068f73918        0x8 C:/mingw64/bin/../lib/gcc/x86_64-w64-mingw32/8.1.0/../../../../x86_64-w64-mingw32/lib/../lib/libuser32.a(dyqes00847.o)
                0x0000000068f73918                __imp_SetWindowPos
 .idata$5       0x0000000068f73920        0x8 C:/mingw64/bin/../lib/gcc/x86_64-w64-mingw32/8.1.0/../../../../x86_64-w64-mingw32/lib/../lib/libuser32.a(dyqes00852.o)
                0x0000000068f73920                __imp_SetWindowTextW
 .idata$5       0x0000000068f73928        0x8 C:/mingw64/bin/../lib/gcc/x86_64-w64-mingw32/8.1.0/../../../../x86_64-w64-mingw32/lib/../lib/libuser32.a(dyqes00864.o)
                0x0000000068f73928                __imp_ShowWindow
 .idata$5       0x0000000068f73930        0x8 C:/mingw64/bin/../lib/gcc/x86_64-w64-mingw32/8.1.0/../../../../x86_64-w64-mingw32/lib/../lib/libuser32.a(dyqet.o)
 .idata$5       0x0000000068f73938        0x0 C:/mingw64/bin/../lib/gcc/x86_64-w64-mingw32/8.1.0/../../../../x86_64-w64-mingw32/lib/../lib/libws2_32.a(dozfh.o)
 .idata$5       0x0000000068f73938        0x8 C:/mingw64/bin/../lib/gcc/x86_64-w64-mingw32/8.1.0/../../../../x86_64-w64-mingw32/lib/../lib/libws2_32.a(dozfs00030.o)
                0x0000000068f73938                __imp_WSACleanup
 .idata$5       0x0000000068f73940        0x8 C:/mingw64/bin/../lib/gcc/x86_64-w64-mingw32/8.1.0/../../../../x86_64-w64-mingw32/lib/../lib/libws2_32.a(dozfs00047.o)
                0x0000000068f73940                __imp_WSAGetLastError
 .idata$5       0x0000000068f73948        0x8 C:/mingw64/bin/../lib/gcc/x86_64-w64-mingw32/8.1.0/../../../../x86_64-w64-mingw32/lib/../lib/libws2_32.a(dozfs00088.o)
                0x0000000068f73948                __imp_WSAStartup
 .idata$5       0x0000000068f73950        0x8 C:/mingw64/bin/../lib/gcc/x86_64-w64-mingw32/8.1.0/../../../../x86_64-w64-mingw32/lib/../lib/libws2_32.a(dozfs00163.o)
                0x0000000068f73950                __imp_closesocket
 .idata$5       0x0000000068f73958        0x8 C:/mingw64/bin/../lib/gcc/x86_64-w64-mingw32/8.1.0/../../../../x86_64-w64-mingw32/lib/../lib/libws2_32.a(dozfs00164.o)
                0x0000000068f73958                __imp_connect
 .idata$5       0x0000000068f73960        0x8 C:/mingw64/bin/../lib/gcc/x86_64-w64-mingw32/8.1.0/../../../../x86_64-w64-mingw32/lib/../lib/libws2_32.a(dozfs00165.o)
                0x0000000068f73960                __imp_freeaddrinfo
 .idata$5       0x0000000068f73968        0x8 C:/mingw64/bin/../lib/gcc/x86_64-w64-mingw32/8.1.0/../../../../x86_64-w64-mingw32/lib/../lib/libws2_32.a(dozfs00166.o)
                0x0000000068f73968                __imp_getaddrinfo
 .idata$5       0x0000000068f73970        0x8 C:/mingw64/bin/../lib/gcc/x86_64-w64-mingw32/8.1.0/../../../../x86_64-w64-mingw32/lib/../lib/libws2_32.a(dozfs00184.o)
                0x0000000068f73970                __imp_ioctlsocket
 .idata$5       0x0000000068f73978        0x8 C:/mingw64/bin/../lib/gcc/x86_64-w64-mingw32/8.1.0/../../../../x86_64-w64-mingw32/lib/../lib/libws2_32.a(dozfs00188.o)
                0x0000000068f73978                __imp_recv
 .idata$5       0x0000000068f73980        0x8 C:/mingw64/bin/../lib/gcc/x86_64-w64-mingw32/8.1.0/../../../../x86_64-w64-mingw32/lib/../lib/libws2_32.a(dozfs00190.o)
                0x0000000068f73980                __imp_select
 .idata$5       0x0000000068f73988        0x8 C:/mingw64/bin/../lib/gcc/x86_64-w64-mingw32/8.1.0/../../../../x86_64-w64-mingw32/lib/../lib/libws2_32.a(dozfs00191.o)
                0x0000000068f73988                __imp_send
 .idata$5       0x0000000068f73990        0x8 C:/mingw64/bin/../lib/gcc/x86_64-w64-mingw32/8.1.0/../../../../x86_64-w64-mingw32/lib/../lib/libws2_32.a(dozfs00193.o)
                0x0000000068f73990                __imp_setsockopt
 .idata$5       0x0000000068f73998        0x8 C:/mingw64/bin/../lib/gcc/x86_64-w64-mingw32/8.1.0/../../../../x86_64-w64-mingw32/lib/../lib/libws2_32.a(dozfs00195.o)
                0x0000000068f73998                __imp_socket
 .idata$5       0x0000000068f739a0        0x8 C:/mingw64/bin/../lib/gcc/x86_64-w64-mingw32/8.1.0/../../../../x86_64-w64-mingw32/lib/../lib/libws2_32.a(dozft.o)
                0x0000000068f739a8                __IAT_end__ = .
 SORT_BY_NAME(*)(.idata$6)
 .idata$6       0x0000000068f739a8       0x16 C:/mingw64/bin/../lib/gcc/x86_64-w64-mingw32/8.1.0/../../../../x86_64-w64-mingw32/lib/../lib/libadvapi32.a(diufs00146.o)
 .idata$6       0x0000000068f739be       0x12 C:/mingw64/bin/../lib/gcc/x86_64-w64-mingw32/8.1.0/../../../../x86_64-w64-mingw32/lib/../lib/libadvapi32.a(diufs00354.o)
 .idata$6       0x0000000068f739d0       0x14 C:/mingw64/bin/../lib/gcc/x86_64-w64-mingw32/8.1.0/../../../../x86_64-w64-mingw32/lib/../lib/libadvapi32.a(diufs00720.o)
 .idata$6       0x0000000068f739e4       0x12 C:/mingw64/bin/../lib/gcc/x86_64-w64-mingw32/8.1.0/../../../../x86_64-w64-mingw32/lib/../lib/libadvapi32.a(diufs00741.o)
 .idata$6       0x0000000068f739f6        0xc C:/mingw64/bin/../lib/gcc/x86_64-w64-mingw32/8.1.0/../../../../x86_64-w64-mingw32/lib/../lib/libkernel32.a(dqifs00109.o)
 .idata$6       0x0000000068f73a02        0xe C:/mingw64/bin/../lib/gcc/x86_64-w64-mingw32/8.1.0/../../../../x86_64-w64-mingw32/lib/../lib/libkernel32.a(dqifs00130.o)
 .idata$6       0x0000000068f73a10       0x14 C:/mingw64/bin/../lib/gcc/x86_64-w64-mingw32/8.1.0/../../../../x86_64-w64-mingw32/lib/../lib/libkernel32.a(dqifs00151.o)
 .idata$6       0x0000000068f73a24       0x14 C:/mingw64/bin/../lib/gcc/x86_64-w64-mingw32/8.1.0/../../../../x86_64-w64-mingw32/lib/../lib/libkernel32.a(dqifs00183.o)
 .idata$6       0x0000000068f73a38       0x10 C:/mingw64/bin/../lib/gcc/x86_64-w64-mingw32/8.1.0/../../../../x86_64-w64-mingw32/lib/../lib/libkernel32.a(dqifs00187.o)
 .idata$6       0x0000000068f73a48        0xe C:/mingw64/bin/../lib/gcc/x86_64-w64-mingw32/8.1.0/../../../../x86_64-w64-mingw32/lib/../lib/libkernel32.a(dqifs00199.o)
 .idata$6       0x0000000068f73a56       0x14 C:/mingw64/bin/../lib/gcc/x86_64-w64-mingw32/8.1.0/../../../../x86_64-w64-mingw32/lib/../lib/libkernel32.a(dqifs00216.o)
 .idata$6       0x0000000068f73a6a       0x14 C:/mingw64/bin/../lib/gcc/x86_64-w64-mingw32/8.1.0/../../../../x86_64-w64-mingw32/lib/../lib/libkernel32.a(dqifs00231.o)
 .idata$6       0x0000000068f73a7e       0x18 C:/mingw64/bin/../lib/gcc/x86_64-w64-mingw32/8.1.0/../../../../x86_64-w64-mingw32/lib/../lib/libkernel32.a(dqifs00268.o)
 .idata$6       0x0000000068f73a96       0x16 C:/mingw64/bin/../lib/gcc/x86_64-w64-mingw32/8.1.0/../../../../x86_64-w64-mingw32/lib/../lib/libkernel32.a(dqifs00289.o)
 .idata$6       0x0000000068f73aac       0x18 C:/mingw64/bin/../lib/gcc/x86_64-w64-mingw32/8.1.0/../../../../x86_64-w64-mingw32/lib/../lib/libkernel32.a(dqifs00304.o)
 .idata$6       0x0000000068f73ac4        0xc C:/mingw64/bin/../lib/gcc/x86_64-w64-mingw32/8.1.0/../../../../x86_64-w64-mingw32/lib/../lib/libkernel32.a(dqifs00373.o)
 .idata$6       0x0000000068f73ad0       0x12 C:/mingw64/bin/../lib/gcc/x86_64-w64-mingw32/8.1.0/../../../../x86_64-w64-mingw32/lib/../lib/libkernel32.a(dqifs00384.o)
 .idata$6       0x0000000068f73ae2       0x10 C:/mingw64/bin/../lib/gcc/x86_64-w64-mingw32/8.1.0/../../../../x86_64-w64-mingw32/lib/../lib/libkernel32.a(dqifs00396.o)
 .idata$6       0x0000000068f73af2       0x14 C:/mingw64/bin/../lib/gcc/x86_64-w64-mingw32/8.1.0/../../../../x86_64-w64-mingw32/lib/../lib/libkernel32.a(dqifs00415.o)
 .idata$6       0x0000000068f73b06       0x14 C:/mingw64/bin/../lib/gcc/x86_64-w64-mingw32/8.1.0/../../../../x86_64-w64-mingw32/lib/../lib/libkernel32.a(dqifs00535.o)
 .idata$6       0x0000000068f73b1a       0x16 C:/mingw64/bin/../lib/gcc/x86_64-w64-mingw32/8.1.0/../../../../x86_64-w64-mingw32/lib/../lib/libkernel32.a(dqifs00536.o)
 .idata$6       0x0000000068f73b30       0x16 C:/mingw64/bin/../lib/gcc/x86_64-w64-mingw32/8.1.0/../../../../x86_64-w64-mingw32/lib/../lib/libkernel32.a(dqifs00540.o)
 .idata$6       0x0000000068f73b46       0x16 C:/mingw64/bin/../lib/gcc/x86_64-w64-mingw32/8.1.0/../../../../x86_64-w64-mingw32/lib/../lib/libkernel32.a(dqifs00554.o)
 .idata$6       0x0000000068f73b5c       0x16 C:/mingw64/bin/../lib/gcc/x86_64-w64-mingw32/8.1.0/../../../../x86_64-w64-mingw32/lib/../lib/libkernel32.a(dqifs00583.o)
 .idata$6       0x0000000068f73b72       0x10 C:/mingw64/bin/../lib/gcc/x86_64-w64-mingw32/8.1.0/../../../../x86_64-w64-mingw32/lib/../lib/libkernel32.a(dqifs00609.o)
 .idata$6       0x0000000068f73b82       0x16 C:/mingw64/bin/../lib/gcc/x86_64-w64-mingw32/8.1.0/../../../../x86_64-w64-mingw32/lib/../lib/libkernel32.a(dqifs00629.o)
 .idata$6       0x0000000068f73b98       0x14 C:/mingw64/bin/../lib/gcc/x86_64-w64-mingw32/8.1.0/../../../../x86_64-w64-mingw32/lib/../lib/libkernel32.a(dqifs00633.o)
 .idata$6       0x0000000068f73bac       0x18 C:/mingw64/bin/../lib/gcc/x86_64-w64-mingw32/8.1.0/../../../../x86_64-w64-mingw32/lib/../lib/libkernel32.a(dqifs00680.o)
 .idata$6       0x0000000068f73bc4       0x1c C:/mingw64/bin/../lib/gcc/x86_64-w64-mingw32/8.1.0/../../../../x86_64-w64-mingw32/lib/../lib/libkernel32.a(dqifs00686.o)
 .idata$6       0x0000000068f73be0       0x12 C:/mingw64/bin/../lib/gcc/x86_64-w64-mingw32/8.1.0/../../../../x86_64-w64-mingw32/lib/../lib/libkernel32.a(dqifs00689.o)
 .idata$6       0x0000000068f73bf2       0x1a C:/mingw64/bin/../lib/gcc/x86_64-w64-mingw32/8.1.0/../../../../x86_64-w64-mingw32/lib/../lib/libkernel32.a(dqifs00746.o)
 .idata$6       0x0000000068f73c0c       0x10 C:/mingw64/bin/../lib/gcc/x86_64-w64-mingw32/8.1.0/../../../../x86_64-w64-mingw32/lib/../lib/libkernel32.a(dqifs00774.o)
 .idata$6       0x0000000068f73c1c       0x24 C:/mingw64/bin/../lib/gcc/x86_64-w64-mingw32/8.1.0/../../../../x86_64-w64-mingw32/lib/../lib/libkernel32.a(dqifs00799.o)
 .idata$6       0x0000000068f73c40       0x16 C:/mingw64/bin/../lib/gcc/x86_64-w64-mingw32/8.1.0/../../../../x86_64-w64-mingw32/lib/../lib/libkernel32.a(dqifs00801.o)
 .idata$6       0x0000000068f73c56       0x1c C:/mingw64/bin/../lib/gcc/x86_64-w64-mingw32/8.1.0/../../../../x86_64-w64-mingw32/lib/../lib/libkernel32.a(dqifs00863.o)
 .idata$6       0x0000000068f73c72       0x18 C:/mingw64/bin/../lib/gcc/x86_64-w64-mingw32/8.1.0/../../../../x86_64-w64-mingw32/lib/../lib/libkernel32.a(dqifs00951.o)
 .idata$6       0x0000000068f73c8a        0xc C:/mingw64/bin/../lib/gcc/x86_64-w64-mingw32/8.1.0/../../../../x86_64-w64-mingw32/lib/../lib/libkernel32.a(dqifs00967.o)
 .idata$6       0x0000000068f73c96       0x16 C:/mingw64/bin/../lib/gcc/x86_64-w64-mingw32/8.1.0/../../../../x86_64-w64-mingw32/lib/../lib/libkernel32.a(dqifs00999.o)
 .idata$6       0x0000000068f73cac        0xe C:/mingw64/bin/../lib/gcc/x86_64-w64-mingw32/8.1.0/../../../../x86_64-w64-mingw32/lib/../lib/libkernel32.a(dqifs01020.o)
 .idata$6       0x0000000068f73cba       0x16 C:/mingw64/bin/../lib/gcc/x86_64-w64-mingw32/8.1.0/../../../../x86_64-w64-mingw32/lib/../lib/libkernel32.a(dqifs01042.o)
 .idata$6       0x0000000068f73cd0       0x1a C:/mingw64/bin/../lib/gcc/x86_64-w64-mingw32/8.1.0/../../../../x86_64-w64-mingw32/lib/../lib/libkernel32.a(dqifs01093.o)
 .idata$6       0x0000000068f73cea       0x12 C:/mingw64/bin/../lib/gcc/x86_64-w64-mingw32/8.1.0/../../../../x86_64-w64-mingw32/lib/../lib/libkernel32.a(dqifs01112.o)
 .idata$6       0x0000000068f73cfc        0xc C:/mingw64/bin/../lib/gcc/x86_64-w64-mingw32/8.1.0/../../../../x86_64-w64-mingw32/lib/../lib/libkernel32.a(dqifs01128.o)
 .idata$6       0x0000000068f73d08       0x14 C:/mingw64/bin/../lib/gcc/x86_64-w64-mingw32/8.1.0/../../../../x86_64-w64-mingw32/lib/../lib/libkernel32.a(dqifs01154.o)
 .idata$6       0x0000000068f73d1c        0xe C:/mingw64/bin/../lib/gcc/x86_64-w64-mingw32/8.1.0/../../../../x86_64-w64-mingw32/lib/../lib/libkernel32.a(dqifs01172.o)
 .idata$6       0x0000000068f73d2a       0x16 C:/mingw64/bin/../lib/gcc/x86_64-w64-mingw32/8.1.0/../../../../x86_64-w64-mingw32/lib/../lib/libkernel32.a(dqifs01179.o)
 .idata$6       0x0000000068f73d40       0x14 C:/mingw64/bin/../lib/gcc/x86_64-w64-mingw32/8.1.0/../../../../x86_64-w64-mingw32/lib/../lib/libkernel32.a(dqifs01180.o)
 .idata$6       0x0000000068f73d54       0x1a C:/mingw64/bin/../lib/gcc/x86_64-w64-mingw32/8.1.0/../../../../x86_64-w64-mingw32/lib/../lib/libkernel32.a(dqifs01187.o)
 .idata$6       0x0000000068f73d6e        0xe C:/mingw64/bin/../lib/gcc/x86_64-w64-mingw32/8.1.0/../../../../x86_64-w64-mingw32/lib/../lib/libkernel32.a(dqifs01193.o)
 .idata$6       0x0000000068f73d7c       0x14 C:/mingw64/bin/../lib/gcc/x86_64-w64-mingw32/8.1.0/../../../../x86_64-w64-mingw32/lib/../lib/libkernel32.a(dqifs01194.o)
 .idata$6       0x0000000068f73d90        0xc C:/mingw64/bin/../lib/gcc/x86_64-w64-mingw32/8.1.0/../../../../x86_64-w64-mingw32/lib/../lib/libkernel32.a(dqifs01263.o)
 .idata$6       0x0000000068f73d9c       0x10 C:/mingw64/bin/../lib/gcc/x86_64-w64-mingw32/8.1.0/../../../../x86_64-w64-mingw32/lib/../lib/libkernel32.a(dqifs01290.o)
 .idata$6       0x0000000068f73dac       0x1e C:/mingw64/bin/../lib/gcc/x86_64-w64-mingw32/8.1.0/../../../../x86_64-w64-mingw32/lib/../lib/libkernel32.a(dqifs01346.o)
 .idata$6       0x0000000068f73dca        0x8 C:/mingw64/bin/../lib/gcc/x86_64-w64-mingw32/8.1.0/../../../../x86_64-w64-mingw32/lib/../lib/libkernel32.a(dqifs01360.o)
 .idata$6       0x0000000068f73dd2       0x14 C:/mingw64/bin/../lib/gcc/x86_64-w64-mingw32/8.1.0/../../../../x86_64-w64-mingw32/lib/../lib/libkernel32.a(dqifs01375.o)
 .idata$6       0x0000000068f73de6        0xc C:/mingw64/bin/../lib/gcc/x86_64-w64-mingw32/8.1.0/../../../../x86_64-w64-mingw32/lib/../lib/libkernel32.a(dqifs01393.o)
 .idata$6       0x0000000068f73df2        0xa C:/mingw64/bin/../lib/gcc/x86_64-w64-mingw32/8.1.0/../../../../x86_64-w64-mingw32/lib/../lib/libkernel32.a(dqifs01394.o)
 .idata$6       0x0000000068f73dfc        0xe C:/mingw64/bin/../lib/gcc/x86_64-w64-mingw32/8.1.0/../../../../x86_64-w64-mingw32/lib/../lib/libkernel32.a(dqifs01395.o)
 .idata$6       0x0000000068f73e0a        0xe C:/mingw64/bin/../lib/gcc/x86_64-w64-mingw32/8.1.0/../../../../x86_64-w64-mingw32/lib/../lib/libkernel32.a(dqifs01396.o)
 .idata$6       0x0000000068f73e18       0x1c C:/mingw64/bin/../lib/gcc/x86_64-w64-mingw32/8.1.0/../../../../x86_64-w64-mingw32/lib/../lib/libkernel32.a(dqifs01409.o)
 .idata$6       0x0000000068f73e34       0x12 C:/mingw64/bin/../lib/gcc/x86_64-w64-mingw32/8.1.0/../../../../x86_64-w64-mingw32/lib/../lib/libkernel32.a(dqifs01443.o)
 .idata$6       0x0000000068f73e46       0x10 C:/mingw64/bin/../lib/gcc/x86_64-w64-mingw32/8.1.0/../../../../x86_64-w64-mingw32/lib/../lib/libkernel32.a(dqifs01445.o)
 .idata$6       0x0000000068f73e56       0x1a C:/mingw64/bin/../lib/gcc/x86_64-w64-mingw32/8.1.0/../../../../x86_64-w64-mingw32/lib/../lib/libkernel32.a(dqifs01451.o)
 .idata$6       0x0000000068f73e70       0x16 C:/mingw64/bin/../lib/gcc/x86_64-w64-mingw32/8.1.0/../../../../x86_64-w64-mingw32/lib/../lib/libkernel32.a(dqifs01453.o)
 .idata$6       0x0000000068f73e86       0x16 C:/mingw64/bin/../lib/gcc/x86_64-w64-mingw32/8.1.0/../../../../x86_64-w64-mingw32/lib/../lib/libkernel32.a(dqifs01490.o)
 .idata$6       0x0000000068f73e9c        0xc C:/mingw64/bin/../lib/gcc/x86_64-w64-mingw32/8.1.0/../../../../x86_64-w64-mingw32/lib/../lib/libkernel32.a(dqifs01510.o)
 .idata$6       0x0000000068f73ea8       0x1e C:/mingw64/bin/../lib/gcc/x86_64-w64-mingw32/8.1.0/../../../../x86_64-w64-mingw32/lib/../lib/libkernel32.a(dqifs01516.o)
 .idata$6       0x0000000068f73ec6        0xe C:/mingw64/bin/../lib/gcc/x86_64-w64-mingw32/8.1.0/../../../../x86_64-w64-mingw32/lib/../lib/libmsvcrt.a(duags00083.o)
 .idata$6       0x0000000068f73ed4        0xe C:/mingw64/bin/../lib/gcc/x86_64-w64-mingw32/8.1.0/../../../../x86_64-w64-mingw32/lib/../lib/libmsvcrt.a(duags00122.o)
 .idata$6       0x0000000068f73ee2       0x12 C:/mingw64/bin/../lib/gcc/x86_64-w64-mingw32/8.1.0/../../../../x86_64-w64-mingw32/lib/../lib/libmsvcrt.a(duags00137.o)
 .idata$6       0x0000000068f73ef4        0xa C:/mingw64/bin/../lib/gcc/x86_64-w64-mingw32/8.1.0/../../../../x86_64-w64-mingw32/lib/../lib/libmsvcrt.a(duags00155.o)
 .idata$6       0x0000000068f73efe        0xc C:/mingw64/bin/../lib/gcc/x86_64-w64-mingw32/8.1.0/../../../../x86_64-w64-mingw32/lib/../lib/libmsvcrt.a(duags00332.o)
 .idata$6       0x0000000068f73f0a        0x8 C:/mingw64/bin/../lib/gcc/x86_64-w64-mingw32/8.1.0/../../../../x86_64-w64-mingw32/lib/../lib/libmsvcrt.a(duags00441.o)
 .idata$6       0x0000000068f73f12       0x12 C:/mingw64/bin/../lib/gcc/x86_64-w64-mingw32/8.1.0/../../../../x86_64-w64-mingw32/lib/../lib/libmsvcrt.a(duags00617.o)
 .idata$6       0x0000000068f73f24        0xa C:/mingw64/bin/../lib/gcc/x86_64-w64-mingw32/8.1.0/../../../../x86_64-w64-mingw32/lib/../lib/libmsvcrt.a(duags00821.o)
 .idata$6       0x0000000068f73f2e        0xe C:/mingw64/bin/../lib/gcc/x86_64-w64-mingw32/8.1.0/../../../../x86_64-w64-mingw32/lib/../lib/libmsvcrt.a(duags00852.o)
 .idata$6       0x0000000068f73f3c       0x10 C:/mingw64/bin/../lib/gcc/x86_64-w64-mingw32/8.1.0/../../../../x86_64-w64-mingw32/lib/../lib/libmsvcrt.a(duags00861.o)
 .idata$6       0x0000000068f73f4c        0xc C:/mingw64/bin/../lib/gcc/x86_64-w64-mingw32/8.1.0/../../../../x86_64-w64-mingw32/lib/../lib/libmsvcrt.a(duags00945.o)
 .idata$6       0x0000000068f73f58        0xa C:/mingw64/bin/../lib/gcc/x86_64-w64-mingw32/8.1.0/../../../../x86_64-w64-mingw32/lib/../lib/libmsvcrt.a(duags00986.o)
 .idata$6       0x0000000068f73f62        0x8 C:/mingw64/bin/../lib/gcc/x86_64-w64-mingw32/8.1.0/../../../../x86_64-w64-mingw32/lib/../lib/libmsvcrt.a(duags01032.o)
 .idata$6       0x0000000068f73f6a        0xa C:/mingw64/bin/../lib/gcc/x86_64-w64-mingw32/8.1.0/../../../../x86_64-w64-mingw32/lib/../lib/libmsvcrt.a(duags01050.o)
 .idata$6       0x0000000068f73f74        0xa C:/mingw64/bin/../lib/gcc/x86_64-w64-mingw32/8.1.0/../../../../x86_64-w64-mingw32/lib/../lib/libmsvcrt.a(duags01067.o)
 .idata$6       0x0000000068f73f7e        0x8 C:/mingw64/bin/../lib/gcc/x86_64-w64-mingw32/8.1.0/../../../../x86_64-w64-mingw32/lib/../lib/libmsvcrt.a(duags01080.o)
 .idata$6       0x0000000068f73f86        0x8 C:/mingw64/bin/../lib/gcc/x86_64-w64-mingw32/8.1.0/../../../../x86_64-w64-mingw32/lib/../lib/libmsvcrt.a(duags01084.o)
 .idata$6       0x0000000068f73f8e        0x8 C:/mingw64/bin/../lib/gcc/x86_64-w64-mingw32/8.1.0/../../../../x86_64-w64-mingw32/lib/../lib/libmsvcrt.a(duags01085.o)
 .idata$6       0x0000000068f73f96        0xa C:/mingw64/bin/../lib/gcc/x86_64-w64-mingw32/8.1.0/../../../../x86_64-w64-mingw32/lib/../lib/libmsvcrt.a(duags01086.o)
 .idata$6       0x0000000068f73fa0        0x8 C:/mingw64/bin/../lib/gcc/x86_64-w64-mingw32/8.1.0/../../../../x86_64-w64-mingw32/lib/../lib/libmsvcrt.a(duags01089.o)
 .idata$6       0x0000000068f73fa8        0xa C:/mingw64/bin/../lib/gcc/x86_64-w64-mingw32/8.1.0/../../../../x86_64-w64-mingw32/lib/../lib/libmsvcrt.a(duags01101.o)
 .idata$6       0x0000000068f73fb2        0xa C:/mingw64/bin/../lib/gcc/x86_64-w64-mingw32/8.1.0/../../../../x86_64-w64-mingw32/lib/../lib/libmsvcrt.a(duags01149.o)
 .idata$6       0x0000000068f73fbc        0xa C:/mingw64/bin/../lib/gcc/x86_64-w64-mingw32/8.1.0/../../../../x86_64-w64-mingw32/lib/../lib/libmsvcrt.a(duags01155.o)
 .idata$6       0x0000000068f73fc6        0xa C:/mingw64/bin/../lib/gcc/x86_64-w64-mingw32/8.1.0/../../../../x86_64-w64-mingw32/lib/../lib/libmsvcrt.a(duags01156.o)
 .idata$6       0x0000000068f73fd0        0xa C:/mingw64/bin/../lib/gcc/x86_64-w64-mingw32/8.1.0/../../../../x86_64-w64-mingw32/lib/../lib/libmsvcrt.a(duags01157.o)
 .idata$6       0x0000000068f73fda        0xa C:/mingw64/bin/../lib/gcc/x86_64-w64-mingw32/8.1.0/../../../../x86_64-w64-mingw32/lib/../lib/libmsvcrt.a(duags01158.o)
 .idata$6       0x0000000068f73fe4        0xa C:/mingw64/bin/../lib/gcc/x86_64-w64-mingw32/8.1.0/../../../../x86_64-w64-mingw32/lib/../lib/libmsvcrt.a(duags01159.o)
 .idata$6       0x0000000068f73fee        0xa C:/mingw64/bin/../lib/gcc/x86_64-w64-mingw32/8.1.0/../../../../x86_64-w64-mingw32/lib/../lib/libmsvcrt.a(duags01177.o)
 .idata$6       0x0000000068f73ff8        0xa C:/mingw64/bin/../lib/gcc/x86_64-w64-mingw32/8.1.0/../../../../x86_64-w64-mingw32/lib/../lib/libmsvcrt.a(duags01186.o)
 .idata$6       0x0000000068f74002        0xa C:/mingw64/bin/../lib/gcc/x86_64-w64-mingw32/8.1.0/../../../../x86_64-w64-mingw32/lib/../lib/libmsvcrt.a(duags01187.o)
 .idata$6       0x0000000068f7400c        0xa C:/mingw64/bin/../lib/gcc/x86_64-w64-mingw32/8.1.0/../../../../x86_64-w64-mingw32/lib/../lib/libmsvcrt.a(duags01192.o)
 .idata$6       0x0000000068f74016        0xa C:/mingw64/bin/../lib/gcc/x86_64-w64-mingw32/8.1.0/../../../../x86_64-w64-mingw32/lib/../lib/libmsvcrt.a(duags01201.o)
 .idata$6       0x0000000068f74020        0xa C:/mingw64/bin/../lib/gcc/x86_64-w64-mingw32/8.1.0/../../../../x86_64-w64-mingw32/lib/../lib/libmsvcrt.a(duags01208.o)
 .idata$6       0x0000000068f7402a        0xa C:/mingw64/bin/../lib/gcc/x86_64-w64-mingw32/8.1.0/../../../../x86_64-w64-mingw32/lib/../lib/libmsvcrt.a(duags01211.o)
 .idata$6       0x0000000068f74034        0xa C:/mingw64/bin/../lib/gcc/x86_64-w64-mingw32/8.1.0/../../../../x86_64-w64-mingw32/lib/../lib/libmsvcrt.a(duags01223.o)
 .idata$6       0x0000000068f7403e        0xc C:/mingw64/bin/../lib/gcc/x86_64-w64-mingw32/8.1.0/../../../../x86_64-w64-mingw32/lib/../lib/libmsvcrt.a(duags01243.o)
 .idata$6       0x0000000068f7404a        0xe C:/mingw64/bin/../lib/gcc/x86_64-w64-mingw32/8.1.0/../../../../x86_64-w64-mingw32/lib/../lib/libmsvcrt.a(duags01251.o)
 .idata$6       0x0000000068f74058        0xa C:/mingw64/bin/../lib/gcc/x86_64-w64-mingw32/8.1.0/../../../../x86_64-w64-mingw32/lib/../lib/libmsvcrt.a(duags01257.o)
 .idata$6       0x0000000068f74062        0xa C:/mingw64/bin/../lib/gcc/x86_64-w64-mingw32/8.1.0/../../../../x86_64-w64-mingw32/lib/../lib/libmsvcrt.a(duags01264.o)
 .idata$6       0x0000000068f7406c       0x16 C:/mingw64/bin/../lib/gcc/x86_64-w64-mingw32/8.1.0/../../../../x86_64-w64-mingw32/lib/../lib/libuser32.a(dyqes00104.o)
 .idata$6       0x0000000068f74082       0x10 C:/mingw64/bin/../lib/gcc/x86_64-w64-mingw32/8.1.0/../../../../x86_64-w64-mingw32/lib/../lib/libuser32.a(dyqes00176.o)
 .idata$6       0x0000000068f74092       0x10 C:/mingw64/bin/../lib/gcc/x86_64-w64-mingw32/8.1.0/../../../../x86_64-w64-mingw32/lib/../lib/libuser32.a(dyqes00235.o)
 .idata$6       0x0000000068f740a2       0x10 C:/mingw64/bin/../lib/gcc/x86_64-w64-mingw32/8.1.0/../../../../x86_64-w64-mingw32/lib/../lib/libuser32.a(dyqes00303.o)
 .idata$6       0x0000000068f740b2       0x10 C:/mingw64/bin/../lib/gcc/x86_64-w64-mingw32/8.1.0/../../../../x86_64-w64-mingw32/lib/../lib/libuser32.a(dyqes00317.o)
 .idata$6       0x0000000068f740c2        0xe C:/mingw64/bin/../lib/gcc/x86_64-w64-mingw32/8.1.0/../../../../x86_64-w64-mingw32/lib/../lib/libuser32.a(dyqes00326.o)
 .idata$6       0x0000000068f740d0       0x12 C:/mingw64/bin/../lib/gcc/x86_64-w64-mingw32/8.1.0/../../../../x86_64-w64-mingw32/lib/../lib/libuser32.a(dyqes00385.o)
 .idata$6       0x0000000068f740e2       0x14 C:/mingw64/bin/../lib/gcc/x86_64-w64-mingw32/8.1.0/../../../../x86_64-w64-mingw32/lib/../lib/libuser32.a(dyqes00470.o)
 .idata$6       0x0000000068f740f6       0x16 C:/mingw64/bin/../lib/gcc/x86_64-w64-mingw32/8.1.0/../../../../x86_64-w64-mingw32/lib/../lib/libuser32.a(dyqes00476.o)
 .idata$6       0x0000000068f7410c       0x10 C:/mingw64/bin/../lib/gcc/x86_64-w64-mingw32/8.1.0/../../../../x86_64-w64-mingw32/lib/../lib/libuser32.a(dyqes00477.o)
 .idata$6       0x0000000068f7411c        0xc C:/mingw64/bin/../lib/gcc/x86_64-w64-mingw32/8.1.0/../../../../x86_64-w64-mingw32/lib/../lib/libuser32.a(dyqes00567.o)
 .idata$6       0x0000000068f74128       0x12 C:/mingw64/bin/../lib/gcc/x86_64-w64-mingw32/8.1.0/../../../../x86_64-w64-mingw32/lib/../lib/libuser32.a(dyqes00623.o)
 .idata$6       0x0000000068f7413a       0x10 C:/mingw64/bin/../lib/gcc/x86_64-w64-mingw32/8.1.0/../../../../x86_64-w64-mingw32/lib/../lib/libuser32.a(dyqes00654.o)
 .idata$6       0x0000000068f7414a       0x12 C:/mingw64/bin/../lib/gcc/x86_64-w64-mingw32/8.1.0/../../../../x86_64-w64-mingw32/lib/../lib/libuser32.a(dyqes00738.o)
 .idata$6       0x0000000068f7415c       0x16 C:/mingw64/bin/../lib/gcc/x86_64-w64-mingw32/8.1.0/../../../../x86_64-w64-mingw32/lib/../lib/libuser32.a(dyqes00744.o)
 .idata$6       0x0000000068f74172       0x16 C:/mingw64/bin/../lib/gcc/x86_64-w64-mingw32/8.1.0/../../../../x86_64-w64-mingw32/lib/../lib/libuser32.a(dyqes00752.o)
 .idata$6       0x0000000068f74188       0x10 C:/mingw64/bin/../lib/gcc/x86_64-w64-mingw32/8.1.0/../../../../x86_64-w64-mingw32/lib/../lib/libuser32.a(dyqes00753.o)
 .idata$6       0x0000000068f74198       0x12 C:/mingw64/bin/../lib/gcc/x86_64-w64-mingw32/8.1.0/../../../../x86_64-w64-mingw32/lib/../lib/libuser32.a(dyqes00778.o)
 .idata$6       0x0000000068f741aa        0xc C:/mingw64/bin/../lib/gcc/x86_64-w64-mingw32/8.1.0/../../../../x86_64-w64-mingw32/lib/../lib/libuser32.a(dyqes00831.o)
 .idata$6       0x0000000068f741b6       0x14 C:/mingw64/bin/../lib/gcc/x86_64-w64-mingw32/8.1.0/../../../../x86_64-w64-mingw32/lib/../lib/libuser32.a(dyqes00844.o)
 .idata$6       0x0000000068f741ca       0x10 C:/mingw64/bin/../lib/gcc/x86_64-w64-mingw32/8.1.0/../../../../x86_64-w64-mingw32/lib/../lib/libuser32.a(dyqes00847.o)
 .idata$6       0x0000000068f741da       0x12 C:/mingw64/bin/../lib/gcc/x86_64-w64-mingw32/8.1.0/../../../../x86_64-w64-mingw32/lib/../lib/libuser32.a(dyqes00852.o)
 .idata$6       0x0000000068f741ec        0xe C:/mingw64/bin/../lib/gcc/x86_64-w64-mingw32/8.1.0/../../../../x86_64-w64-mingw32/lib/../lib/libuser32.a(dyqes00864.o)
 .idata$6       0x0000000068f741fa        0xe C:/mingw64/bin/../lib/gcc/x86_64-w64-mingw32/8.1.0/../../../../x86_64-w64-mingw32/lib/../lib/libws2_32.a(dozfs00030.o)
 .idata$6       0x0000000068f74208       0x12 C:/mingw64/bin/../lib/gcc/x86_64-w64-mingw32/8.1.0/../../../../x86_64-w64-mingw32/lib/../lib/libws2_32.a(dozfs00047.o)
 .idata$6       0x0000000068f7421a        0xe C:/mingw64/bin/../lib/gcc/x86_64-w64-mingw32/8.1.0/../../../../x86_64-w64-mingw32/lib/../lib/libws2_32.a(dozfs00088.o)
 .idata$6       0x0000000068f74228        0xe C:/mingw64/bin/../lib/gcc/x86_64-w64-mingw32/8.1.0/../../../../x86_64-w64-mingw32/lib/../lib/libws2_32.a(dozfs00163.o)
 .idata$6       0x0000000068f74236        0xa C:/mingw64/bin/../lib/gcc/x86_64-w64-mingw32/8.1.0/../../../../x86_64-w64-mingw32/lib/../lib/libws2_32.a(dozfs00164.o)
 .idata$6       0x0000000068f74240       0x10 C:/mingw64/bin/../lib/gcc/x86_64-w64-mingw32/8.1.0/../../../../x86_64-w64-mingw32/lib/../lib/libws2_32.a(dozfs00165.o)
 .idata$6       0x0000000068f74250        0xe C:/mingw64/bin/../lib/gcc/x86_64-w64-mingw32/8.1.0/../../../../x86_64-w64-mingw32/lib/../lib/libws2_32.a(dozfs00166.o)
 .idata$6       0x0000000068f7425e        0xe C:/mingw64/bin/../lib/gcc/x86_64-w64-mingw32/8.1.0/../../../../x86_64-w64-mingw32/lib/../lib/libws2_32.a(dozfs00184.o)
 .idata$6       0x0000000068f7426c        0x8 C:/mingw64/bin/../lib/gcc/x86_64-w64-mingw32/8.1.0/../../../../x86_64-w64-mingw32/lib/../lib/libws2_32.a(dozfs00188.o)
 .idata$6       0x0000000068f74274        0xa C:/mingw64/bin/../lib/gcc/x86_64-w64-mingw32/8.1.0/../../../../x86_64-w64-mingw32/lib/../lib/libws2_32.a(dozfs00190.o)
 .idata$6       0x0000000068f7427e        0x8 C:/mingw64/bin/../lib/gcc/x86_64-w64-mingw32/8.1.0/../../../../x86_64-w64-mingw32/lib/../lib/libws2_32.a(dozfs00191.o)
 .idata$6       0x0000000068f74286        0xe C:/mingw64/bin/../lib/gcc/x86_64-w64-mingw32/8.1.0/../../../../x86_64-w64-mingw32/lib/../lib/libws2_32.a(dozfs00193.o)
 .idata$6       0x0000000068f74294        0xa C:/mingw64/bin/../lib/gcc/x86_64-w64-mingw32/8.1.0/../../../../x86_64-w64-mingw32/lib/../lib/libws2_32.a(dozfs00195.o)
 SORT_BY_NAME(*)(.idata$7)
 *fill*         0x0000000068f7429e        0x2 
 .idata$7       0x0000000068f742a0        0x4 C:/mingw64/bin/../lib/gcc/x86_64-w64-mingw32/8.1.0/../../../../x86_64-w64-mingw32/lib/../lib/libadvapi32.a(diufs00146.o)
 .idata$7       0x0000000068f742a4        0x4 C:/mingw64/bin/../lib/gcc/x86_64-w64-mingw32/8.1.0/../../../../x86_64-w64-mingw32/lib/../lib/libadvapi32.a(diufs00354.o)
 .idata$7       0x0000000068f742a8        0x4 C:/mingw64/bin/../lib/gcc/x86_64-w64-mingw32/8.1.0/../../../../x86_64-w64-mingw32/lib/../lib/libadvapi32.a(diufs00720.o)
 .idata$7       0x0000000068f742ac        0x4 C:/mingw64/bin/../lib/gcc/x86_64-w64-mingw32/8.1.0/../../../../x86_64-w64-mingw32/lib/../lib/libadvapi32.a(diufs00741.o)
 .idata$7       0x0000000068f742b0       0x10 C:/mingw64/bin/../lib/gcc/x86_64-w64-mingw32/8.1.0/../../../../x86_64-w64-mingw32/lib/../lib/libadvapi32.a(diuft.o)
                0x0000000068f742b0                __lib64_libadvapi32_a_iname
 .idata$7       0x0000000068f742c0        0x4 C:/mingw64/bin/../lib/gcc/x86_64-w64-mingw32/8.1.0/../../../../x86_64-w64-mingw32/lib/../lib/libkernel32.a(dqifs00109.o)
 .idata$7       0x0000000068f742c4        0x4 C:/mingw64/bin/../lib/gcc/x86_64-w64-mingw32/8.1.0/../../../../x86_64-w64-mingw32/lib/../lib/libkernel32.a(dqifs00130.o)
 .idata$7       0x0000000068f742c8        0x4 C:/mingw64/bin/../lib/gcc/x86_64-w64-mingw32/8.1.0/../../../../x86_64-w64-mingw32/lib/../lib/libkernel32.a(dqifs00151.o)
 .idata$7       0x0000000068f742cc        0x4 C:/mingw64/bin/../lib/gcc/x86_64-w64-mingw32/8.1.0/../../../../x86_64-w64-mingw32/lib/../lib/libkernel32.a(dqifs00183.o)
 .idata$7       0x0000000068f742d0        0x4 C:/mingw64/bin/../lib/gcc/x86_64-w64-mingw32/8.1.0/../../../../x86_64-w64-mingw32/lib/../lib/libkernel32.a(dqifs00187.o)
 .idata$7       0x0000000068f742d4        0x4 C:/mingw64/bin/../lib/gcc/x86_64-w64-mingw32/8.1.0/../../../../x86_64-w64-mingw32/lib/../lib/libkernel32.a(dqifs00199.o)
 .idata$7       0x0000000068f742d8        0x4 C:/mingw64/bin/../lib/gcc/x86_64-w64-mingw32/8.1.0/../../../../x86_64-w64-mingw32/lib/../lib/libkernel32.a(dqifs00216.o)
 .idata$7       0x0000000068f742dc        0x4 C:/mingw64/bin/../lib/gcc/x86_64-w64-mingw32/8.1.0/../../../../x86_64-w64-mingw32/lib/../lib/libkernel32.a(dqifs00231.o)
 .idata$7       0x0000000068f742e0        0x4 C:/mingw64/bin/../lib/gcc/x86_64-w64-mingw32/8.1.0/../../../../x86_64-w64-mingw32/lib/../lib/libkernel32.a(dqifs00268.o)
 .idata$7       0x0000000068f742e4        0x4 C:/mingw64/bin/../lib/gcc/x86_64-w64-mingw32/8.1.0/../../../../x86_64-w64-mingw32/lib/../lib/libkernel32.a(dqifs00289.o)
 .idata$7       0x0000000068f742e8        0x4 C:/mingw64/bin/../lib/gcc/x86_64-w64-mingw32/8.1.0/../../../../x86_64-w64-mingw32/lib/../lib/libkernel32.a(dqifs00304.o)
 .idata$7       0x0000000068f742ec        0x4 C:/mingw64/bin/../lib/gcc/x86_64-w64-mingw32/8.1.0/../../../../x86_64-w64-mingw32/lib/../lib/libkernel32.a(dqifs00373.o)
 .idata$7       0x0000000068f742f0        0x4 C:/mingw64/bin/../lib/gcc/x86_64-w64-mingw32/8.1.0/../../../../x86_64-w64-mingw32/lib/../lib/libkernel32.a(dqifs00384.o)
 .idata$7       0x0000000068f742f4        0x4 C:/mingw64/bin/../lib/gcc/x86_64-w64-mingw32/8.1.0/../../../../x86_64-w64-mingw32/lib/../lib/libkernel32.a(dqifs00396.o)
 .idata$7       0x0000000068f742f8        0x4 C:/mingw64/bin/../lib/gcc/x86_64-w64-mingw32/8.1.0/../../../../x86_64-w64-mingw32/lib/../lib/libkernel32.a(dqifs00415.o)
 .idata$7       0x0000000068f742fc        0x4 C:/mingw64/bin/../lib/gcc/x86_64-w64-mingw32/8.1.0/../../../../x86_64-w64-mingw32/lib/../lib/libkernel32.a(dqifs00535.o)
 .idata$7       0x0000000068f74300        0x4 C:/mingw64/bin/../lib/gcc/x86_64-w64-mingw32/8.1.0/../../../../x86_64-w64-mingw32/lib/../lib/libkernel32.a(dqifs00536.o)
 .idata$7       0x0000000068f74304        0x4 C:/mingw64/bin/../lib/gcc/x86_64-w64-mingw32/8.1.0/../../../../x86_64-w64-mingw32/lib/../lib/libkernel32.a(dqifs00540.o)
 .idata$7       0x0000000068f74308        0x4 C:/mingw64/bin/../lib/gcc/x86_64-w64-mingw32/8.1.0/../../../../x86_64-w64-mingw32/lib/../lib/libkernel32.a(dqifs00554.o)
 .idata$7       0x0000000068f7430c        0x4 C:/mingw64/bin/../lib/gcc/x86_64-w64-mingw32/8.1.0/../../../../x86_64-w64-mingw32/lib/../lib/libkernel32.a(dqifs00583.o)
 .idata$7       0x0000000068f74310        0x4 C:/mingw64/bin/../lib/gcc/x86_64-w64-mingw32/8.1.0/../../../../x86_64-w64-mingw32/lib/../lib/libkernel32.a(dqifs00609.o)
 .idata$7       0x0000000068f74314        0x4 C:/mingw64/bin/../lib/gcc/x86_64-w64-mingw32/8.1.0/../../../../x86_64-w64-mingw32/lib/../lib/libkernel32.a(dqifs00629.o)
 .idata$7       0x0000000068f74318        0x4 C:/mingw64/bin/../lib/gcc/x86_64-w64-mingw32/8.1.0/../../../../x86_64-w64-mingw32/lib/../lib/libkernel32.a(dqifs00633.o)
 .idata$7       0x0000000068f7431c        0x4 C:/mingw64/bin/../lib/gcc/x86_64-w64-mingw32/8.1.0/../../../../x86_64-w64-mingw32/lib/../lib/libkernel32.a(dqifs00680.o)
 .idata$7       0x0000000068f74320        0x4 C:/mingw64/bin/../lib/gcc/x86_64-w64-mingw32/8.1.0/../../../../x86_64-w64-mingw32/lib/../lib/libkernel32.a(dqifs00686.o)
 .idata$7       0x0000000068f74324        0x4 C:/mingw64/bin/../lib/gcc/x86_64-w64-mingw32/8.1.0/../../../../x86_64-w64-mingw32/lib/../lib/libkernel32.a(dqifs00689.o)
 .idata$7       0x0000000068f74328        0x4 C:/mingw64/bin/../lib/gcc/x86_64-w64-mingw32/8.1.0/../../../../x86_64-w64-mingw32/lib/../lib/libkernel32.a(dqifs00746.o)
 .idata$7       0x0000000068f7432c        0x4 C:/mingw64/bin/../lib/gcc/x86_64-w64-mingw32/8.1.0/../../../../x86_64-w64-mingw32/lib/../lib/libkernel32.a(dqifs00774.o)
 .idata$7       0x0000000068f74330        0x4 C:/mingw64/bin/../lib/gcc/x86_64-w64-mingw32/8.1.0/../../../../x86_64-w64-mingw32/lib/../lib/libkernel32.a(dqifs00799.o)
 .idata$7       0x0000000068f74334        0x4 C:/mingw64/bin/../lib/gcc/x86_64-w64-mingw32/8.1.0/../../../../x86_64-w64-mingw32/lib/../lib/libkernel32.a(dqifs00801.o)
 .idata$7       0x0000000068f74338        0x4 C:/mingw64/bin/../lib/gcc/x86_64-w64-mingw32/8.1.0/../../../../x86_64-w64-mingw32/lib/../lib/libkernel32.a(dqifs00863.o)
 .idata$7       0x0000000068f7433c        0x4 C:/mingw64/bin/../lib/gcc/x86_64-w64-mingw32/8.1.0/../../../../x86_64-w64-mingw32/lib/../lib/libkernel32.a(dqifs00951.o)
 .idata$7       0x0000000068f74340        0x4 C:/mingw64/bin/../lib/gcc/x86_64-w64-mingw32/8.1.0/../../../../x86_64-w64-mingw32/lib/../lib/libkernel32.a(dqifs00967.o)
 .idata$7       0x0000000068f74344        0x4 C:/mingw64/bin/../lib/gcc/x86_64-w64-mingw32/8.1.0/../../../../x86_64-w64-mingw32/lib/../lib/libkernel32.a(dqifs00999.o)
 .idata$7       0x0000000068f74348        0x4 C:/mingw64/bin/../lib/gcc/x86_64-w64-mingw32/8.1.0/../../../../x86_64-w64-mingw32/lib/../lib/libkernel32.a(dqifs01020.o)
 .idata$7       0x0000000068f7434c        0x4 C:/mingw64/bin/../lib/gcc/x86_64-w64-mingw32/8.1.0/../../../../x86_64-w64-mingw32/lib/../lib/libkernel32.a(dqifs01042.o)
 .idata$7       0x0000000068f74350        0x4 C:/mingw64/bin/../lib/gcc/x86_64-w64-mingw32/8.1.0/../../../../x86_64-w64-mingw32/lib/../lib/libkernel32.a(dqifs01093.o)
 .idata$7       0x0000000068f74354        0x4 C:/mingw64/bin/../lib/gcc/x86_64-w64-mingw32/8.1.0/../../../../x86_64-w64-mingw32/lib/../lib/libkernel32.a(dqifs01112.o)
 .idata$7       0x0000000068f74358        0x4 C:/mingw64/bin/../lib/gcc/x86_64-w64-mingw32/8.1.0/../../../../x86_64-w64-mingw32/lib/../lib/libkernel32.a(dqifs01128.o)
 .idata$7       0x0000000068f7435c        0x4 C:/mingw64/bin/../lib/gcc/x86_64-w64-mingw32/8.1.0/../../../../x86_64-w64-mingw32/lib/../lib/libkernel32.a(dqifs01154.o)
 .idata$7       0x0000000068f74360        0x4 C:/mingw64/bin/../lib/gcc/x86_64-w64-mingw32/8.1.0/../../../../x86_64-w64-mingw32/lib/../lib/libkernel32.a(dqifs01172.o)
 .idata$7       0x0000000068f74364        0x4 C:/mingw64/bin/../lib/gcc/x86_64-w64-mingw32/8.1.0/../../../../x86_64-w64-mingw32/lib/../lib/libkernel32.a(dqifs01179.o)
 .idata$7       0x0000000068f74368        0x4 C:/mingw64/bin/../lib/gcc/x86_64-w64-mingw32/8.1.0/../../../../x86_64-w64-mingw32/lib/../lib/libkernel32.a(dqifs01180.o)
 .idata$7       0x0000000068f7436c        0x4 C:/mingw64/bin/../lib/gcc/x86_64-w64-mingw32/8.1.0/../../../../x86_64-w64-mingw32/lib/../lib/libkernel32.a(dqifs01187.o)
 .idata$7       0x0000000068f74370        0x4 C:/mingw64/bin/../lib/gcc/x86_64-w64-mingw32/8.1.0/../../../../x86_64-w64-mingw32/lib/../lib/libkernel32.a(dqifs01193.o)
 .idata$7       0x0000000068f74374        0x4 C:/mingw64/bin/../lib/gcc/x86_64-w64-mingw32/8.1.0/../../../../x86_64-w64-mingw32/lib/../lib/libkernel32.a(dqifs01194.o)
 .idata$7       0x0000000068f74378        0x4 C:/mingw64/bin/../lib/gcc/x86_64-w64-mingw32/8.1.0/../../../../x86_64-w64-mingw32/lib/../lib/libkernel32.a(dqifs01263.o)
 .idata$7       0x0000000068f7437c        0x4 C:/mingw64/bin/../lib/gcc/x86_64-w64-mingw32/8.1.0/../../../../x86_64-w64-mingw32/lib/../lib/libkernel32.a(dqifs01290.o)
 .idata$7       0x0000000068f74380        0x4 C:/mingw64/bin/../lib/gcc/x86_64-w64-mingw32/8.1.0/../../../../x86_64-w64-mingw32/lib/../lib/libkernel32.a(dqifs01346.o)
 .idata$7       0x0000000068f74384        0x4 C:/mingw64/bin/../lib/gcc/x86_64-w64-mingw32/8.1.0/../../../../x86_64-w64-mingw32/lib/../lib/libkernel32.a(dqifs01360.o)
 .idata$7       0x0000000068f74388        0x4 C:/mingw64/bin/../lib/gcc/x86_64-w64-mingw32/8.1.0/../../../../x86_64-w64-mingw32/lib/../lib/libkernel32.a(dqifs01375.o)
 .idata$7       0x0000000068f7438c        0x4 C:/mingw64/bin/../lib/gcc/x86_64-w64-mingw32/8.1.0/../../../../x86_64-w64-mingw32/lib/../lib/libkernel32.a(dqifs01393.o)
 .idata$7       0x0000000068f74390        0x4 C:/mingw64/bin/../lib/gcc/x86_64-w64-mingw32/8.1.0/../../../../x86_64-w64-mingw32/lib/../lib/libkernel32.a(dqifs01394.o)
 .idata$7       0x0000000068f74394        0x4 C:/mingw64/bin/../lib/gcc/x86_64-w64-mingw32/8.1.0/../../../../x86_64-w64-mingw32/lib/../lib/libkernel32.a(dqifs01395.o)
 .idata$7       0x0000000068f74398        0x4 C:/mingw64/bin/../lib/gcc/x86_64-w64-mingw32/8.1.0/../../../../x86_64-w64-mingw32/lib/../lib/libkernel32.a(dqifs01396.o)
 .idata$7       0x0000000068f7439c        0x4 C:/mingw64/bin/../lib/gcc/x86_64-w64-mingw32/8.1.0/../../../../x86_64-w64-mingw32/lib/../lib/libkernel32.a(dqifs01409.o)
 .idata$7       0x0000000068f743a0        0x4 C:/mingw64/bin/../lib/gcc/x86_64-w64-mingw32/8.1.0/../../../../x86_64-w64-mingw32/lib/../lib/libkernel32.a(dqifs01443.o)
 .idata$7       0x0000000068f743a4        0x4 C:/mingw64/bin/../lib/gcc/x86_64-w64-mingw32/8.1.0/../../../../x86_64-w64-mingw32/lib/../lib/libkernel32.a(dqifs01445.o)
 .idata$7       0x0000000068f743a8        0x4 C:/mingw64/bin/../lib/gcc/x86_64-w64-mingw32/8.1.0/../../../../x86_64-w64-mingw32/lib/../lib/libkernel32.a(dqifs01451.o)
 .idata$7       0x0000000068f743ac        0x4 C:/mingw64/bin/../lib/gcc/x86_64-w64-mingw32/8.1.0/../../../../x86_64-w64-mingw32/lib/../lib/libkernel32.a(dqifs01453.o)
 .idata$7       0x0000000068f743b0        0x4 C:/mingw64/bin/../lib/gcc/x86_64-w64-mingw32/8.1.0/../../../../x86_64-w64-mingw32/lib/../lib/libkernel32.a(dqifs01490.o)
 .idata$7       0x0000000068f743b4        0x4 C:/mingw64/bin/../lib/gcc/x86_64-w64-mingw32/8.1.0/../../../../x86_64-w64-mingw32/lib/../lib/libkernel32.a(dqifs01510.o)
 .idata$7       0x0000000068f743b8        0x4 C:/mingw64/bin/../lib/gcc/x86_64-w64-mingw32/8.1.0/../../../../x86_64-w64-mingw32/lib/../lib/libkernel32.a(dqifs01516.o)
 .idata$7       0x0000000068f743bc       0x10 C:/mingw64/bin/../lib/gcc/x86_64-w64-mingw32/8.1.0/../../../../x86_64-w64-mingw32/lib/../lib/libkernel32.a(dqift.o)
                0x0000000068f743bc                __lib64_libkernel32_a_iname
 .idata$7       0x0000000068f743cc        0x4 C:/mingw64/bin/../lib/gcc/x86_64-w64-mingw32/8.1.0/../../../../x86_64-w64-mingw32/lib/../lib/libmsvcrt.a(duags00083.o)
 .idata$7       0x0000000068f743d0        0x4 C:/mingw64/bin/../lib/gcc/x86_64-w64-mingw32/8.1.0/../../../../x86_64-w64-mingw32/lib/../lib/libmsvcrt.a(duags00122.o)
 .idata$7       0x0000000068f743d4        0x4 C:/mingw64/bin/../lib/gcc/x86_64-w64-mingw32/8.1.0/../../../../x86_64-w64-mingw32/lib/../lib/libmsvcrt.a(duags00137.o)
 .idata$7       0x0000000068f743d8        0x4 C:/mingw64/bin/../lib/gcc/x86_64-w64-mingw32/8.1.0/../../../../x86_64-w64-mingw32/lib/../lib/libmsvcrt.a(duags00155.o)
 .idata$7       0x0000000068f743dc        0x4 C:/mingw64/bin/../lib/gcc/x86_64-w64-mingw32/8.1.0/../../../../x86_64-w64-mingw32/lib/../lib/libmsvcrt.a(duags00332.o)
 .idata$7       0x0000000068f743e0        0x4 C:/mingw64/bin/../lib/gcc/x86_64-w64-mingw32/8.1.0/../../../../x86_64-w64-mingw32/lib/../lib/libmsvcrt.a(duags00441.o)
 .idata$7       0x0000000068f743e4        0x4 C:/mingw64/bin/../lib/gcc/x86_64-w64-mingw32/8.1.0/../../../../x86_64-w64-mingw32/lib/../lib/libmsvcrt.a(duags00617.o)
 .idata$7       0x0000000068f743e8        0x4 C:/mingw64/bin/../lib/gcc/x86_64-w64-mingw32/8.1.0/../../../../x86_64-w64-mingw32/lib/../lib/libmsvcrt.a(duags00821.o)
 .idata$7       0x0000000068f743ec        0x4 C:/mingw64/bin/../lib/gcc/x86_64-w64-mingw32/8.1.0/../../../../x86_64-w64-mingw32/lib/../lib/libmsvcrt.a(duags00852.o)
 .idata$7       0x0000000068f743f0        0x4 C:/mingw64/bin/../lib/gcc/x86_64-w64-mingw32/8.1.0/../../../../x86_64-w64-mingw32/lib/../lib/libmsvcrt.a(duags00861.o)
 .idata$7       0x0000000068f743f4        0x4 C:/mingw64/bin/../lib/gcc/x86_64-w64-mingw32/8.1.0/../../../../x86_64-w64-mingw32/lib/../lib/libmsvcrt.a(duags00945.o)
 .idata$7       0x0000000068f743f8        0x4 C:/mingw64/bin/../lib/gcc/x86_64-w64-mingw32/8.1.0/../../../../x86_64-w64-mingw32/lib/../lib/libmsvcrt.a(duags00986.o)
 .idata$7       0x0000000068f743fc        0x4 C:/mingw64/bin/../lib/gcc/x86_64-w64-mingw32/8.1.0/../../../../x86_64-w64-mingw32/lib/../lib/libmsvcrt.a(duags01032.o)
 .idata$7       0x0000000068f74400        0x4 C:/mingw64/bin/../lib/gcc/x86_64-w64-mingw32/8.1.0/../../../../x86_64-w64-mingw32/lib/../lib/libmsvcrt.a(duags01050.o)
 .idata$7       0x0000000068f74404        0x4 C:/mingw64/bin/../lib/gcc/x86_64-w64-mingw32/8.1.0/../../../../x86_64-w64-mingw32/lib/../lib/libmsvcrt.a(duags01067.o)
 .idata$7       0x0000000068f74408        0x4 C:/mingw64/bin/../lib/gcc/x86_64-w64-mingw32/8.1.0/../../../../x86_64-w64-mingw32/lib/../lib/libmsvcrt.a(duags01080.o)
 .idata$7       0x0000000068f7440c        0x4 C:/mingw64/bin/../lib/gcc/x86_64-w64-mingw32/8.1.0/../../../../x86_64-w64-mingw32/lib/../lib/libmsvcrt.a(duags01084.o)
 .idata$7       0x0000000068f74410        0x4 C:/mingw64/bin/../lib/gcc/x86_64-w64-mingw32/8.1.0/../../../../x86_64-w64-mingw32/lib/../lib/libmsvcrt.a(duags01085.o)
 .idata$7       0x0000000068f74414        0x4 C:/mingw64/bin/../lib/gcc/x86_64-w64-mingw32/8.1.0/../../../../x86_64-w64-mingw32/lib/../lib/libmsvcrt.a(duags01086.o)
 .idata$7       0x0000000068f74418        0x4 C:/mingw64/bin/../lib/gcc/x86_64-w64-mingw32/8.1.0/../../../../x86_64-w64-mingw32/lib/../lib/libmsvcrt.a(duags01089.o)
 .idata$7       0x0000000068f7441c        0x4 C:/mingw64/bin/../lib/gcc/x86_64-w64-mingw32/8.1.0/../../../../x86_64-w64-mingw32/lib/../lib/libmsvcrt.a(duags01101.o)
 .idata$7       0x0000000068f74420        0x4 C:/mingw64/bin/../lib/gcc/x86_64-w64-mingw32/8.1.0/../../../../x86_64-w64-mingw32/lib/../lib/libmsvcrt.a(duags01149.o)
 .idata$7       0x0000000068f74424        0x4 C:/mingw64/bin/../lib/gcc/x86_64-w64-mingw32/8.1.0/../../../../x86_64-w64-mingw32/lib/../lib/libmsvcrt.a(duags01155.o)
 .idata$7       0x0000000068f74428        0x4 C:/mingw64/bin/../lib/gcc/x86_64-w64-mingw32/8.1.0/../../../../x86_64-w64-mingw32/lib/../lib/libmsvcrt.a(duags01156.o)
 .idata$7       0x0000000068f7442c        0x4 C:/mingw64/bin/../lib/gcc/x86_64-w64-mingw32/8.1.0/../../../../x86_64-w64-mingw32/lib/../lib/libmsvcrt.a(duags01157.o)
 .idata$7       0x0000000068f74430        0x4 C:/mingw64/bin/../lib/gcc/x86_64-w64-mingw32/8.1.0/../../../../x86_64-w64-mingw32/lib/../lib/libmsvcrt.a(duags01158.o)
 .idata$7       0x0000000068f74434        0x4 C:/mingw64/bin/../lib/gcc/x86_64-w64-mingw32/8.1.0/../../../../x86_64-w64-mingw32/lib/../lib/libmsvcrt.a(duags01159.o)
 .idata$7       0x0000000068f74438        0x4 C:/mingw64/bin/../lib/gcc/x86_64-w64-mingw32/8.1.0/../../../../x86_64-w64-mingw32/lib/../lib/libmsvcrt.a(duags01177.o)
 .idata$7       0x0000000068f7443c        0x4 C:/mingw64/bin/../lib/gcc/x86_64-w64-mingw32/8.1.0/../../../../x86_64-w64-mingw32/lib/../lib/libmsvcrt.a(duags01186.o)
 .idata$7       0x0000000068f74440        0x4 C:/mingw64/bin/../lib/gcc/x86_64-w64-mingw32/8.1.0/../../../../x86_64-w64-mingw32/lib/../lib/libmsvcrt.a(duags01187.o)
 .idata$7       0x0000000068f74444        0x4 C:/mingw64/bin/../lib/gcc/x86_64-w64-mingw32/8.1.0/../../../../x86_64-w64-mingw32/lib/../lib/libmsvcrt.a(duags01192.o)
 .idata$7       0x0000000068f74448        0x4 C:/mingw64/bin/../lib/gcc/x86_64-w64-mingw32/8.1.0/../../../../x86_64-w64-mingw32/lib/../lib/libmsvcrt.a(duags01201.o)
 .idata$7       0x0000000068f7444c        0x4 C:/mingw64/bin/../lib/gcc/x86_64-w64-mingw32/8.1.0/../../../../x86_64-w64-mingw32/lib/../lib/libmsvcrt.a(duags01208.o)
 .idata$7       0x0000000068f74450        0x4 C:/mingw64/bin/../lib/gcc/x86_64-w64-mingw32/8.1.0/../../../../x86_64-w64-mingw32/lib/../lib/libmsvcrt.a(duags01211.o)
 .idata$7       0x0000000068f74454        0x4 C:/mingw64/bin/../lib/gcc/x86_64-w64-mingw32/8.1.0/../../../../x86_64-w64-mingw32/lib/../lib/libmsvcrt.a(duags01223.o)
 .idata$7       0x0000000068f74458        0x4 C:/mingw64/bin/../lib/gcc/x86_64-w64-mingw32/8.1.0/../../../../x86_64-w64-mingw32/lib/../lib/libmsvcrt.a(duags01243.o)
 .idata$7       0x0000000068f7445c        0x4 C:/mingw64/bin/../lib/gcc/x86_64-w64-mingw32/8.1.0/../../../../x86_64-w64-mingw32/lib/../lib/libmsvcrt.a(duags01251.o)
 .idata$7       0x0000000068f74460        0x4 C:/mingw64/bin/../lib/gcc/x86_64-w64-mingw32/8.1.0/../../../../x86_64-w64-mingw32/lib/../lib/libmsvcrt.a(duags01257.o)
 .idata$7       0x0000000068f74464        0x4 C:/mingw64/bin/../lib/gcc/x86_64-w64-mingw32/8.1.0/../../../../x86_64-w64-mingw32/lib/../lib/libmsvcrt.a(duags01264.o)
 .idata$7       0x0000000068f74468        0xc C:/mingw64/bin/../lib/gcc/x86_64-w64-mingw32/8.1.0/../../../../x86_64-w64-mingw32/lib/../lib/libmsvcrt.a(duagt.o)
                0x0000000068f74468                __lib64_libmsvcrt_os_a_iname
 .idata$7       0x0000000068f74474        0x4 C:/mingw64/bin/../lib/gcc/x86_64-w64-mingw32/8.1.0/../../../../x86_64-w64-mingw32/lib/../lib/libuser32.a(dyqes00104.o)
 .idata$7       0x0000000068f74478        0x4 C:/mingw64/bin/../lib/gcc/x86_64-w64-mingw32/8.1.0/../../../../x86_64-w64-mingw32/lib/../lib/libuser32.a(dyqes00176.o)
 .idata$7       0x0000000068f7447c        0x4 C:/mingw64/bin/../lib/gcc/x86_64-w64-mingw32/8.1.0/../../../../x86_64-w64-mingw32/lib/../lib/libuser32.a(dyqes00235.o)
 .idata$7       0x0000000068f74480        0x4 C:/mingw64/bin/../lib/gcc/x86_64-w64-mingw32/8.1.0/../../../../x86_64-w64-mingw32/lib/../lib/libuser32.a(dyqes00303.o)
 .idata$7       0x0000000068f74484        0x4 C:/mingw64/bin/../lib/gcc/x86_64-w64-mingw32/8.1.0/../../../../x86_64-w64-mingw32/lib/../lib/libuser32.a(dyqes00317.o)
 .idata$7       0x0000000068f74488        0x4 C:/mingw64/bin/../lib/gcc/x86_64-w64-mingw32/8.1.0/../../../../x86_64-w64-mingw32/lib/../lib/libuser32.a(dyqes00326.o)
 .idata$7       0x0000000068f7448c        0x4 C:/mingw64/bin/../lib/gcc/x86_64-w64-mingw32/8.1.0/../../../../x86_64-w64-mingw32/lib/../lib/libuser32.a(dyqes00385.o)
 .idata$7       0x0000000068f74490        0x4 C:/mingw64/bin/../lib/gcc/x86_64-w64-mingw32/8.1.0/../../../../x86_64-w64-mingw32/lib/../lib/libuser32.a(dyqes00470.o)
 .idata$7       0x0000000068f74494        0x4 C:/mingw64/bin/../lib/gcc/x86_64-w64-mingw32/8.1.0/../../../../x86_64-w64-mingw32/lib/../lib/libuser32.a(dyqes00476.o)
 .idata$7       0x0000000068f74498        0x4 C:/mingw64/bin/../lib/gcc/x86_64-w64-mingw32/8.1.0/../../../../x86_64-w64-mingw32/lib/../lib/libuser32.a(dyqes00477.o)
 .idata$7       0x0000000068f7449c        0x4 C:/mingw64/bin/../lib/gcc/x86_64-w64-mingw32/8.1.0/../../../../x86_64-w64-mingw32/lib/../lib/libuser32.a(dyqes00567.o)
 .idata$7       0x0000000068f744a0        0x4 C:/mingw64/bin/../lib/gcc/x86_64-w64-mingw32/8.1.0/../../../../x86_64-w64-mingw32/lib/../lib/libuser32.a(dyqes00623.o)
 .idata$7       0x0000000068f744a4        0x4 C:/mingw64/bin/../lib/gcc/x86_64-w64-mingw32/8.1.0/../../../../x86_64-w64-mingw32/lib/../lib/libuser32.a(dyqes00654.o)
 .idata$7       0x0000000068f744a8        0x4 C:/mingw64/bin/../lib/gcc/x86_64-w64-mingw32/8.1.0/../../../../x86_64-w64-mingw32/lib/../lib/libuser32.a(dyqes00738.o)
 .idata$7       0x0000000068f744ac        0x4 C:/mingw64/bin/../lib/gcc/x86_64-w64-mingw32/8.1.0/../../../../x86_64-w64-mingw32/lib/../lib/libuser32.a(dyqes00744.o)
 .idata$7       0x0000000068f744b0        0x4 C:/mingw64/bin/../lib/gcc/x86_64-w64-mingw32/8.1.0/../../../../x86_64-w64-mingw32/lib/../lib/libuser32.a(dyqes00752.o)
 .idata$7       0x0000000068f744b4        0x4 C:/mingw64/bin/../lib/gcc/x86_64-w64-mingw32/8.1.0/../../../../x86_64-w64-mingw32/lib/../lib/libuser32.a(dyqes00753.o)
 .idata$7       0x0000000068f744b8        0x4 C:/mingw64/bin/../lib/gcc/x86_64-w64-mingw32/8.1.0/../../../../x86_64-w64-mingw32/lib/../lib/libuser32.a(dyqes00778.o)
 .idata$7       0x0000000068f744bc        0x4 C:/mingw64/bin/../lib/gcc/x86_64-w64-mingw32/8.1.0/../../../../x86_64-w64-mingw32/lib/../lib/libuser32.a(dyqes00831.o)
 .idata$7       0x0000000068f744c0        0x4 C:/mingw64/bin/../lib/gcc/x86_64-w64-mingw32/8.1.0/../../../../x86_64-w64-mingw32/lib/../lib/libuser32.a(dyqes00844.o)
 .idata$7       0x0000000068f744c4        0x4 C:/mingw64/bin/../lib/gcc/x86_64-w64-mingw32/8.1.0/../../../../x86_64-w64-mingw32/lib/../lib/libuser32.a(dyqes00847.o)
 .idata$7       0x0000000068f744c8        0x4 C:/mingw64/bin/../lib/gcc/x86_64-w64-mingw32/8.1.0/../../../../x86_64-w64-mingw32/lib/../lib/libuser32.a(dyqes00852.o)
 .idata$7       0x0000000068f744cc        0x4 C:/mingw64/bin/../lib/gcc/x86_64-w64-mingw32/8.1.0/../../../../x86_64-w64-mingw32/lib/../lib/libuser32.a(dyqes00864.o)
 .idata$7       0x0000000068f744d0        0xc C:/mingw64/bin/../lib/gcc/x86_64-w64-mingw32/8.1.0/../../../../x86_64-w64-mingw32/lib/../lib/libuser32.a(dyqet.o)
                0x0000000068f744d0                __lib64_libuser32_a_iname
 .idata$7       0x0000000068f744dc        0x4 C:/mingw64/bin/../lib/gcc/x86_64-w64-mingw32/8.1.0/../../../../x86_64-w64-mingw32/lib/../lib/libws2_32.a(dozfs00030.o)
 .idata$7       0x0000000068f744e0        0x4 C:/mingw64/bin/../lib/gcc/x86_64-w64-mingw32/8.1.0/../../../../x86_64-w64-mingw32/lib/../lib/libws2_32.a(dozfs00047.o)
 .idata$7       0x0000000068f744e4        0x4 C:/mingw64/bin/../lib/gcc/x86_64-w64-mingw32/8.1.0/../../../../x86_64-w64-mingw32/lib/../lib/libws2_32.a(dozfs00088.o)
 .idata$7       0x0000000068f744e8        0x4 C:/mingw64/bin/../lib/gcc/x86_64-w64-mingw32/8.1.0/../../../../x86_64-w64-mingw32/lib/../lib/libws2_32.a(dozfs00163.o)
 .idata$7       0x0000000068f744ec        0x4 C:/mingw64/bin/../lib/gcc/x86_64-w64-mingw32/8.1.0/../../../../x86_64-w64-mingw32/lib/../lib/libws2_32.a(dozfs00164.o)
 .idata$7       0x0000000068f744f0        0x4 C:/mingw64/bin/../lib/gcc/x86_64-w64-mingw32/8.1.0/../../../../x86_64-w64-mingw32/lib/../lib/libws2_32.a(dozfs00165.o)
 .idata$7       0x0000000068f744f4        0x4 C:/mingw64/bin/../lib/gcc/x86_64-w64-mingw32/8.1.0/../../../../x86_64-w64-mingw32/lib/../lib/libws2_32.a(dozfs00166.o)
 .idata$7       0x0000000068f744f8        0x4 C:/mingw64/bin/../lib/gcc/x86_64-w64-mingw32/8.1.0/../../../../x86_64-w64-mingw32/lib/../lib/libws2_32.a(dozfs00184.o)
 .idata$7       0x0000000068f744fc        0x4 C:/mingw64/bin/../lib/gcc/x86_64-w64-mingw32/8.1.0/../../../../x86_64-w64-mingw32/lib/../lib/libws2_32.a(dozfs00188.o)
 .idata$7       0x0000000068f74500        0x4 C:/mingw64/bin/../lib/gcc/x86_64-w64-mingw32/8.1.0/../../../../x86_64-w64-mingw32/lib/../lib/libws2_32.a(dozfs00190.o)
 .idata$7       0x0000000068f74504        0x4 C:/mingw64/bin/../lib/gcc/x86_64-w64-mingw32/8.1.0/../../../../x86_64-w64-mingw32/lib/../lib/libws2_32.a(dozfs00191.o)
 .idata$7       0x0000000068f74508        0x4 C:/mingw64/bin/../lib/gcc/x86_64-w64-mingw32/8.1.0/../../../../x86_64-w64-mingw32/lib/../lib/libws2_32.a(dozfs00193.o)
 .idata$7       0x0000000068f7450c        0x4 C:/mingw64/bin/../lib/gcc/x86_64-w64-mingw32/8.1.0/../../../../x86_64-w64-mingw32/lib/../lib/libws2_32.a(dozfs00195.o)
 .idata$7       0x0000000068f74510        0xc C:/mingw64/bin/../lib/gcc/x86_64-w64-mingw32/8.1.0/../../../../x86_64-w64-mingw32/lib/../lib/libws2_32.a(dozft.o)
                0x0000000068f74510                __lib64_libws2_32_a_iname

.CRT            0x0000000068f75000      0x200
                0x0000000068f75000                ___crt_xc_start__ = .
 *(SORT_BY_NAME(.CRT$XC*))
 .CRT$XCA       0x0000000068f75000        0x8 C:/mingw64/bin/../lib/gcc/x86_64-w64-mingw32/8.1.0/../../../../x86_64-w64-mingw32/lib/../lib/libmingw32.a(lib64_libmingw32_a-cinitexe.o)
                0x0000000068f75000                __xc_a
 .CRT$XCZ       0x0000000068f75008        0x8 C:/mingw64/bin/../lib/gcc/x86_64-w64-mingw32/8.1.0/../../../../x86_64-w64-mingw32/lib/../lib/libmingw32.a(lib64_libmingw32_a-cinitexe.o)
                0x0000000068f75008                __xc_z
                0x0000000068f75010                ___crt_xc_end__ = .
                0x0000000068f75010                ___crt_xi_start__ = .
 *(SORT_BY_NAME(.CRT$XI*))
 .CRT$XIA       0x0000000068f75010        0x8 C:/mingw64/bin/../lib/gcc/x86_64-w64-mingw32/8.1.0/../../../../x86_64-w64-mingw32/lib/../lib/libmingw32.a(lib64_libmingw32_a-cinitexe.o)
                0x0000000068f75010                __xi_a
 .CRT$XIAA      0x0000000068f75018        0x8 C:/mingw64/bin/../lib/gcc/x86_64-w64-mingw32/8.1.0/../../../../x86_64-w64-mingw32/lib/../lib/dllcrt2.o
                0x0000000068f75018                pcinit
 .CRT$XIZ       0x0000000068f75020        0x8 C:/mingw64/bin/../lib/gcc/x86_64-w64-mingw32/8.1.0/../../../../x86_64-w64-mingw32/lib/../lib/libmingw32.a(lib64_libmingw32_a-cinitexe.o)
                0x0000000068f75020                __xi_z
                0x0000000068f75028                ___crt_xi_end__ = .
                0x0000000068f75028                ___crt_xl_start__ = .
 *(SORT_BY_NAME(.CRT$XL*))
 .CRT$XLA       0x0000000068f75028        0x8 C:/mingw64/bin/../lib/gcc/x86_64-w64-mingw32/8.1.0/../../../../x86_64-w64-mingw32/lib/../lib/libmingw32.a(lib64_libmingw32_a-tlssup.o)
                0x0000000068f75028                __xl_a
 .CRT$XLC       0x0000000068f75030        0x8 C:/mingw64/bin/../lib/gcc/x86_64-w64-mingw32/8.1.0/../../../../x86_64-w64-mingw32/lib/../lib/libmingw32.a(lib64_libmingw32_a-tlssup.o)
                0x0000000068f75030                __xl_c
 .CRT$XLD       0x0000000068f75038        0x8 C:/mingw64/bin/../lib/gcc/x86_64-w64-mingw32/8.1.0/../../../../x86_64-w64-mingw32/lib/../lib/libmingw32.a(lib64_libmingw32_a-tlssup.o)
                0x0000000068f75038                __xl_d
 .CRT$XLZ       0x0000000068f75040        0x8 C:/mingw64/bin/../lib/gcc/x86_64-w64-mingw32/8.1.0/../../../../x86_64-w64-mingw32/lib/../lib/libmingw32.a(lib64_libmingw32_a-tlssup.o)
                0x0000000068f75040                __xl_z
                0x0000000068f75048                ___crt_xp_start__ = .
 *(SORT_BY_NAME(.CRT$XP*))
                0x0000000068f75048                ___crt_xp_end__ = .
                0x0000000068f75048                ___crt_xt_start__ = .
 *(SORT_BY_NAME(.CRT$XT*))
                0x0000000068f75048                ___crt_xt_end__ = .
 .CRT$XDA       0x0000000068f75048        0x8 C:/mingw64/bin/../lib/gcc/x86_64-w64-mingw32/8.1.0/../../../../x86_64-w64-mingw32/lib/../lib/libmingw32.a(lib64_libmingw32_a-tlssup.o)
 .CRT$XDZ       0x0000000068f75050        0x8 C:/mingw64/bin/../lib/gcc/x86_64-w64-mingw32/8.1.0/../../../../x86_64-w64-mingw32/lib/../lib/libmingw32.a(lib64_libmingw32_a-tlssup.o)

.tls            0x0000000068f76000      0x200
                0x0000000068f76000                ___tls_start__ = .
 *(.tls$AAA)
 *(.tls)
 .tls           0x0000000068f76000        0x8 C:/mingw64/bin/../lib/gcc/x86_64-w64-mingw32/8.1.0/../../../../x86_64-w64-mingw32/lib/../lib/libmingw32.a(lib64_libmingw32_a-tlssup.o)
                0x0000000068f76000                _tls_start
 *(.tls$)
 *(SORT_BY_NAME(.tls$*))
 .tls$ZZZ       0x0000000068f76008        0x8 C:/mingw64/bin/../lib/gcc/x86_64-w64-mingw32/8.1.0/../../../../x86_64-w64-mingw32/lib/../lib/libmingw32.a(lib64_libmingw32_a-tlssup.o)
                0x0000000068f76008                _tls_end
 *(.tls$ZZZ)
                0x0000000068f76010                ___tls_end__ = .

.endjunk        0x0000000068f77000        0x0
                [!provide]                        PROVIDE (end = .)
                [!provide]                        PROVIDE (_end = .)
                0x0000000068f77000                __end__ = .

.rsrc           0x0000000068f77000      0x600
 *(.rsrc)
 .rsrc          0x0000000068f77000      0x510 EpgTimerPlugIn.rc.obj
 *(.rsrc$*)

.reloc          0x0000000068f78000      0x400
 *(.reloc)
 .reloc         0x0000000068f78000      0x3d4 dll stuff

.stab
 *(.stab)

.stabstr
 *(.stabstr)

.debug_aranges
 *(.debug_aranges)

.zdebug_aranges
 *(.zdebug_aranges)

.debug_pubnames
 *(.debug_pubnames)

.zdebug_pubnames
 *(.zdebug_pubnames)

.debug_pubtypes
 *(.debug_pubtypes)

.zdebug_pubtypes
 *(.zdebug_pubtypes)

.debug_info
 *(.debug_info .gnu.linkonce.wi.*)

.zdebug_info
 *(.zdebug_info .zdebug.gnu.linkonce.wi.*)

.debug_abbrev
 *(.debug_abbrev)

.zdebug_abbrev
 *(.zdebug_abbrev)

.debug_line
 *(.debug_line)

.zdebug_line
 *(.zdebug_line)

.debug_frame
 *(.debug_frame)

.zdebug_frame
 *(.zdebug_frame)

.debug_str
 *(.debug_str)

.zdebug_str
 *(.zdebug_str)

.debug_loc
 *(.debug_loc)

.zdebug_loc
 *(.zdebug_loc)

.debug_macinfo
 *(.debug_macinfo)

.zdebug_macinfo
 *(.zdebug_macinfo)

.debug_weaknames
 *(.debug_weaknames)

.zdebug_weaknames
 *(.zdebug_weaknames)

.debug_funcnames
 *(.debug_funcnames)

.zdebug_funcnames
 *(.zdebug_funcnames)

.debug_typenames
 *(.debug_typenames)

.zdebug_typenames
 *(.zdebug_typenames)

.debug_varnames
 *(.debug_varnames)

.zdebug_varnames
 *(.zdebug_varnames)

.debug_macro
 *(.debug_macro)

.zdebug_macro
 *(.zdebug_macro)

.debug_ranges
 *(.debug_ranges)

.zdebug_ranges
 *(.zdebug_ranges)

.debug_types
 *(.debug_types .gnu.linkonce.wt.*)

.zdebug_types
 *(.zdebug_types .zdebug.gnu.linkonce.wt.*)

.debug_gdb_scripts
 *(.debug_gdb_scripts)

.zdebug_gdb_scripts
 *(.zdebug_gdb_scripts)
OUTPUT(../../Document/MinGW/EpgTimerPlugIn.tvtp pei-x86-64)
LOAD dll stuff
